Archive member included because of file (symbol)

d:/program files (x86)/microchip/xc32/v2.30/bin/bin/../../lib/gcc/pic32mx/4.8.3/fpu64\libgcc.a(_udivdi3.o)
                              build/default/production/_ext/1108686962/sys_tmr.o (__udivdi3)
d:/program files (x86)/microchip/xc32/v2.30/bin/bin/../../lib/gcc/pic32mx/4.8.3/../../../../pic32mx/lib/fpu64\libpic32.a(memcmp.o)
                              build/default/production/_ext/412220316/drv_wifi_event_handler.o (memcmp)
d:/program files (x86)/microchip/xc32/v2.30/bin/bin/../../lib/gcc/pic32mx/4.8.3/../../../../pic32mx/lib/fpu64\libpic32.a(memcpy.o)
                              build/default/production/_ext/412220316/drv_wifi_connection_profile.o (memcpy)
d:/program files (x86)/microchip/xc32/v2.30/bin/bin/../../lib/gcc/pic32mx/4.8.3/../../../../pic32mx/lib/fpu64\libpic32.a(memset.o)
                              build/default/production/_ext/110609098/drv_spi.o (memset)
d:/program files (x86)/microchip/xc32/v2.30/bin/bin/../../lib/gcc/pic32mx/4.8.3/../../../../pic32mx/lib/fpu64\libpic32.a(strcmp.o)
                              build/default/production/_ext/412220316/drv_wifi_commands.o (strcmp)
d:/program files (x86)/microchip/xc32/v2.30/bin/bin/../../lib/gcc/pic32mx/4.8.3/../../../../pic32mx/lib/fpu64\libpic32.a(strcpy.o)
                              build/default/production/_ext/1052224704/sys_command.o (strcpy)
d:/program files (x86)/microchip/xc32/v2.30/bin/bin/../../lib/gcc/pic32mx/4.8.3/../../../../pic32mx/lib/fpu64\libpic32.a(strlen.o)
                              build/default/production/_ext/412220316/drv_wifi_commands.o (strlen)
d:/program files (x86)/microchip/xc32/v2.30/bin/bin/../../lib/gcc/pic32mx/4.8.3/../../../../pic32mx/lib/fpu64\libpic32.a(default-bootstrap-exception-handler.o)
                              C:\Users\KIKI\AppData\Local\Temp\ccW6W84J.o (_bootstrap_exception_handler)
d:/program files (x86)/microchip/xc32/v2.30/bin/bin/../../lib/gcc/pic32mx/4.8.3/../../../../pic32mx/lib/fpu64\libpic32.a(default-on-reset.o)
                              C:\Users\KIKI\AppData\Local\Temp\ccW6W84J.o (_on_reset)
d:/program files (x86)/microchip/xc32/v2.30/bin/bin/../../lib/gcc/pic32mx/4.8.3/../../../../pic32mx/lib/fpu64\libpic32.a(default-on-bootstrap.o)
                              C:\Users\KIKI\AppData\Local\Temp\ccW6W84J.o (_on_bootstrap)
d:/program files (x86)/microchip/xc32/v2.30/bin/bin/../../lib/gcc/pic32mx/4.8.3/../../../../pic32mx/lib/fpu64\libpic32.a(default-nmi-handler.o)
                              C:\Users\KIKI\AppData\Local\Temp\ccW6W84J.o (_nmi_handler)
d:/program files (x86)/microchip/xc32/v2.30/bin/bin/../../lib/gcc/pic32mx/4.8.3/../../../../pic32mx/lib/fpu64\libpic32.a(pic32_data_init.o)
                              C:\Users\KIKI\AppData\Local\Temp\ccW6W84J.o (__pic32_data_init)
d:/program files (x86)/microchip/xc32/v2.30/bin/bin/../../lib/gcc/pic32mx/4.8.3/../../../../pic32mx/lib/fpu64\libpic32.a(pic32_init_cache.o)
                              C:\Users\KIKI\AppData\Local\Temp\ccW6W84J.o (__pic32_init_cache)
d:/program files (x86)/microchip/xc32/v2.30/bin/bin/../../lib/gcc/pic32mx/4.8.3/../../../../pic32mx/lib/fpu64\libpic32.a(pic32_init_tlb_ebi_sqi.o)
                              C:\Users\KIKI\AppData\Local\Temp\ccW6W84J.o (__pic32_tlb_init_ebi_sqi)
d:/program files (x86)/microchip/xc32/v2.30/bin/bin/../../lib/gcc/pic32mx/4.8.3/../../../../pic32mx/lib/fpu64\libpic32.a(general-exception.o)
                              C:\Users\KIKI\AppData\Local\Temp\ccW6W84J.o (_general_exception_context)
d:/program files (x86)/microchip/xc32/v2.30/bin/bin/../../lib/gcc/pic32mx/4.8.3/../../../../pic32mx/lib/fpu64\libpic32.a(cache-err-exception.o)
                              C:\Users\KIKI\AppData\Local\Temp\ccW6W84J.o (_cache_err_exception_context)
d:/program files (x86)/microchip/xc32/v2.30/bin/bin/../../lib/gcc/pic32mx/4.8.3/../../../../pic32mx/lib/fpu64\libpic32.a(simple-tlb-refill-exception.o)
                              C:\Users\KIKI\AppData\Local\Temp\ccW6W84J.o (_simple_tlb_refill_exception_context)
d:/program files (x86)/microchip/xc32/v2.30/bin/bin/../../lib/gcc/pic32mx/4.8.3/../../../../pic32mx/lib/fpu64\libpic32.a(defaultinterrupt.o)
                              C:\Users\KIKI\AppData\Local\Temp\ccivBgIW.o (_DefaultInterrupt)
d:/program files (x86)/microchip/xc32/v2.30/bin/bin/../../lib/gcc/pic32mx/4.8.3/../../../../pic32mx/lib/fpu64\libpic32.a(default-cache-err-exception-handler.o)
                              d:/program files (x86)/microchip/xc32/v2.30/bin/bin/../../lib/gcc/pic32mx/4.8.3/../../../../pic32mx/lib/fpu64\libpic32.a(cache-err-exception.o) (_cache_err_exception_handler)
d:/program files (x86)/microchip/xc32/v2.30/bin/bin/../../lib/gcc/pic32mx/4.8.3/../../../../pic32mx/lib/fpu64\libpic32.a(default-simple-tlb-refill-exception-handler.o)
                              d:/program files (x86)/microchip/xc32/v2.30/bin/bin/../../lib/gcc/pic32mx/4.8.3/../../../../pic32mx/lib/fpu64\libpic32.a(simple-tlb-refill-exception.o) (_simple_tlb_refill_exception_handler)
d:/program files (x86)/microchip/xc32/v2.30/bin/bin/../../lib/gcc/pic32mx/4.8.3/../../../../pic32mx/lib/fpu64\libc.a(atoi.o)
                              build/default/production/_ext/412220316/drv_wifi_commands.o (atoi)
d:/program files (x86)/microchip/xc32/v2.30/bin/bin/../../lib/gcc/pic32mx/4.8.3/../../../../pic32mx/lib/fpu64\libc.a(calloc.o)
                              build/default/production/_ext/126554269/tcpip_commands.o (calloc)
d:/program files (x86)/microchip/xc32/v2.30/bin/bin/../../lib/gcc/pic32mx/4.8.3/../../../../pic32mx/lib/fpu64\libc.a(ctype.o)
                              build/default/production/_ext/412220316/drv_wifi_scan_helper.o (_ctype)
d:/program files (x86)/microchip/xc32/v2.30/bin/bin/../../lib/gcc/pic32mx/4.8.3/../../../../pic32mx/lib/fpu64\libc.a(ctypef.o)
                              build/default/production/_ext/1360937237/wnetcom.o (tolower)
d:/program files (x86)/microchip/xc32/v2.30/bin/bin/../../lib/gcc/pic32mx/4.8.3/../../../../pic32mx/lib/fpu64\libc.a(malloc.o)
                              build/default/production/_ext/412220316/drv_wifi_mac.o (malloc)
d:/program files (x86)/microchip/xc32/v2.30/bin/bin/../../lib/gcc/pic32mx/4.8.3/../../../../pic32mx/lib/fpu64\libc.a(rand.o)
                              build/default/production/_ext/1304044280/sys_random.o (srand)
d:/program files (x86)/microchip/xc32/v2.30/bin/bin/../../lib/gcc/pic32mx/4.8.3/../../../../pic32mx/lib/fpu64\libc.a(strchr.o)
                              build/default/production/_ext/412220316/drv_wifi_commands.o (strchr)
d:/program files (x86)/microchip/xc32/v2.30/bin/bin/../../lib/gcc/pic32mx/4.8.3/../../../../pic32mx/lib/fpu64\libc.a(strncmp.o)
                              build/default/production/_ext/1360937237/wnetcom.o (strncmp)
d:/program files (x86)/microchip/xc32/v2.30/bin/bin/../../lib/gcc/pic32mx/4.8.3/../../../../pic32mx/lib/fpu64\libc.a(strncpy.o)
                              build/default/production/_ext/1052224704/sys_command.o (strncpy)
d:/program files (x86)/microchip/xc32/v2.30/bin/bin/../../lib/gcc/pic32mx/4.8.3/../../../../pic32mx/lib/fpu64\libc.a(strtol.o)
                              build/default/production/_ext/126554269/tcpip_helpers.o (strtol)
d:/program files (x86)/microchip/xc32/v2.30/bin/bin/../../lib/gcc/pic32mx/4.8.3/../../../../pic32mx/lib/fpu64\libc.a(sprintf_cdnopuxX.eo)
                              build/default/production/_ext/126554269/tcpip_helpers.o (_sprintf_cdnopuxX)
d:/program files (x86)/microchip/xc32/v2.30/bin/bin/../../lib/gcc/pic32mx/4.8.3/../../../../pic32mx/lib/fpu64\libc.a(sscanf_cdnopuxX.eo)
                              build/default/production/_ext/412220316/drv_wifi_debug_output.o (_sscanf_cdnopuxX)
d:/program files (x86)/microchip/xc32/v2.30/bin/bin/../../lib/gcc/pic32mx/4.8.3/../../../../pic32mx/lib/fpu64\libc.a(vsnprintf.o)
                              build/default/production/_ext/1052224704/sys_command.o (vsnprintf)
d:/program files (x86)/microchip/xc32/v2.30/bin/bin/../../lib/gcc/pic32mx/4.8.3/../../../../pic32mx/lib/fpu64\libc.a(errno.o)
                              d:/program files (x86)/microchip/xc32/v2.30/bin/bin/../../lib/gcc/pic32mx/4.8.3/../../../../pic32mx/lib/fpu64\libc.a(strtol.o) (errno)
d:/program files (x86)/microchip/xc32/v2.30/bin/bin/../../lib/gcc/pic32mx/4.8.3/../../../../pic32mx/lib/fpu64\libc.a(doprnt_cdnopuxX.eo)
                              d:/program files (x86)/microchip/xc32/v2.30/bin/bin/../../lib/gcc/pic32mx/4.8.3/../../../../pic32mx/lib/fpu64\libc.a(sprintf_cdnopuxX.eo) (_vfprintf_cdnopuxX)
d:/program files (x86)/microchip/xc32/v2.30/bin/bin/../../lib/gcc/pic32mx/4.8.3/../../../../pic32mx/lib/fpu64\libc.a(doprnt.o)
                              d:/program files (x86)/microchip/xc32/v2.30/bin/bin/../../lib/gcc/pic32mx/4.8.3/../../../../pic32mx/lib/fpu64\libc.a(vsnprintf.o) (vfprintf)
d:/program files (x86)/microchip/xc32/v2.30/bin/bin/../../lib/gcc/pic32mx/4.8.3/../../../../pic32mx/lib/fpu64\libc.a(doscan_cdnopuxX.eo)
                              d:/program files (x86)/microchip/xc32/v2.30/bin/bin/../../lib/gcc/pic32mx/4.8.3/../../../../pic32mx/lib/fpu64\libc.a(sscanf_cdnopuxX.eo) (_vfscanf_cdnopuxX)
d:/program files (x86)/microchip/xc32/v2.30/bin/bin/../../lib/gcc/pic32mx/4.8.3/../../../../pic32mx/lib/fpu64\libc.a(fgetc.o)
                              d:/program files (x86)/microchip/xc32/v2.30/bin/bin/../../lib/gcc/pic32mx/4.8.3/../../../../pic32mx/lib/fpu64\libc.a(doscan_cdnopuxX.eo) (fgetc)
d:/program files (x86)/microchip/xc32/v2.30/bin/bin/../../lib/gcc/pic32mx/4.8.3/../../../../pic32mx/lib/fpu64\libc.a(_fputc_simple.o)
                              d:/program files (x86)/microchip/xc32/v2.30/bin/bin/../../lib/gcc/pic32mx/4.8.3/../../../../pic32mx/lib/fpu64\libc.a(doprnt_cdnopuxX.eo) (fputc)
d:/program files (x86)/microchip/xc32/v2.30/bin/bin/../../lib/gcc/pic32mx/4.8.3/../../../../pic32mx/lib/fpu64\libc.a(ldpowers.o)
                              d:/program files (x86)/microchip/xc32/v2.30/bin/bin/../../lib/gcc/pic32mx/4.8.3/../../../../pic32mx/lib/fpu64\libc.a(doprnt.o) (_npowers_)
d:/program files (x86)/microchip/xc32/v2.30/bin/bin/../../lib/gcc/pic32mx/4.8.3/../../../../pic32mx/lib/fpu64\libc.a(ungetc.o)
                              d:/program files (x86)/microchip/xc32/v2.30/bin/bin/../../lib/gcc/pic32mx/4.8.3/../../../../pic32mx/lib/fpu64\libc.a(doscan_cdnopuxX.eo) (ungetc)
d:/program files (x86)/microchip/xc32/v2.30/bin/bin/../../lib/gcc/pic32mx/4.8.3/../../../../pic32mx/lib/fpu64\libc.a(_iob.o)
                              d:/program files (x86)/microchip/xc32/v2.30/bin/bin/../../lib/gcc/pic32mx/4.8.3/../../../../pic32mx/lib/fpu64\libc.a(_fputc_simple.o) (_outdone)
d:/program files (x86)/microchip/xc32/v2.30/bin/bin/../../lib/gcc/pic32mx/4.8.3/../../../../pic32mx/lib/fpu64\libc.a(filbuf.o)
                              d:/program files (x86)/microchip/xc32/v2.30/bin/bin/../../lib/gcc/pic32mx/4.8.3/../../../../pic32mx/lib/fpu64\libc.a(fgetc.o) (_filbuf)
d:/program files (x86)/microchip/xc32/v2.30/bin/bin/../../lib/gcc/pic32mx/4.8.3/../../../../pic32mx/lib/fpu64\libc.a(_flsbuf_simple.o)
                              d:/program files (x86)/microchip/xc32/v2.30/bin/bin/../../lib/gcc/pic32mx/4.8.3/../../../../pic32mx/lib/fpu64\libc.a(_fputc_simple.o) (_flsbuf)
d:/program files (x86)/microchip/xc32/v2.30/bin/bin/../../lib/gcc/pic32mx/4.8.3/../../../../pic32mx/lib/fpu64\libc.a(fflush.o)
                              d:/program files (x86)/microchip/xc32/v2.30/bin/bin/../../lib/gcc/pic32mx/4.8.3/../../../../pic32mx/lib/fpu64\libc.a(filbuf.o) (fflush)
d:/program files (x86)/microchip/xc32/v2.30/bin/bin/../../lib/gcc/pic32mx/4.8.3/../../../../pic32mx/lib/fpu64\libmfd.a(s_frexp.o)
                              d:/program files (x86)/microchip/xc32/v2.30/bin/bin/../../lib/gcc/pic32mx/4.8.3/../../../../pic32mx/lib/fpu64\libc.a(doprnt.o) (_frexpx)
d:/program files (x86)/microchip/xc32/v2.30/bin/bin/../../lib/gcc/pic32mx/4.8.3/fpu64\libgcc.a(_cmpdi2.o)
                              d:/program files (x86)/microchip/xc32/v2.30/bin/bin/../../lib/gcc/pic32mx/4.8.3/../../../../pic32mx/lib/fpu64\libc.a(doprnt.o) (__cmpdi2)
d:/program files (x86)/microchip/xc32/v2.30/bin/bin/../../lib/gcc/pic32mx/4.8.3/fpu64\libgcc.a(_umoddi3.o)
                              d:/program files (x86)/microchip/xc32/v2.30/bin/bin/../../lib/gcc/pic32mx/4.8.3/../../../../pic32mx/lib/fpu64\libc.a(doprnt_cdnopuxX.eo) (__umoddi3)
d:/program files (x86)/microchip/xc32/v2.30/bin/bin/../../lib/gcc/pic32mx/4.8.3/../../../../pic32mx/lib/fpu64\libpic32.a(sbrk.o)
                              d:/program files (x86)/microchip/xc32/v2.30/bin/bin/../../lib/gcc/pic32mx/4.8.3/../../../../pic32mx/lib/fpu64\libc.a(malloc.o) (sbrk)
d:/program files (x86)/microchip/xc32/v2.30/bin/bin/../../lib/gcc/pic32mx/4.8.3/../../../../pic32mx/lib/fpu64\libpic32.a(read.o)
                              d:/program files (x86)/microchip/xc32/v2.30/bin/bin/../../lib/gcc/pic32mx/4.8.3/../../../../pic32mx/lib/fpu64\libc.a(filbuf.o) (read)
d:/program files (x86)/microchip/xc32/v2.30/bin/bin/../../lib/gcc/pic32mx/4.8.3/../../../../pic32mx/lib/fpu64\libpic32.a(write.o)
                              d:/program files (x86)/microchip/xc32/v2.30/bin/bin/../../lib/gcc/pic32mx/4.8.3/../../../../pic32mx/lib/fpu64\libc.a(_fputc_simple.o) (write)
d:/program files (x86)/microchip/xc32/v2.30/bin/bin/../../lib/gcc/pic32mx/4.8.3/../../../../pic32mx/lib/fpu64\libpic32.a(xc32_uart.o)
                              d:/program files (x86)/microchip/xc32/v2.30/bin/bin/../../lib/gcc/pic32mx/4.8.3/../../../../pic32mx/lib/fpu64\libpic32.a(read.o) (__XC_UART)
d:/program files (x86)/microchip/xc32/v2.30/bin/bin/../../lib/gcc/pic32mx/4.8.3/../../../../pic32mx/lib/fpu64\libpic32.a(_mon_putc.o)
                              d:/program files (x86)/microchip/xc32/v2.30/bin/bin/../../lib/gcc/pic32mx/4.8.3/../../../../pic32mx/lib/fpu64\libpic32.a(write.o) (_mon_putc)

Allocating common symbols
Common symbol       size              file

g_scanResults       0xb54             build/default/production/_ext/412220316/drv_wifi_scan_helper.o
sDrvSpiTxDummy      0x100             build/default/production/_ext/977502197/drv_spi_tasks.o
g_softAPEvent       0x8               build/default/production/_ext/412220316/drv_wifi_event_handler.o
gDrvUSARTBufferObj  0x370             build/default/production/_ext/115751837/drv_usart_buffer_queue.o
sysObj              0x1c              build/default/production/_ext/1688732426/system_init.o
sDrvSpiRxDummy      0x100             build/default/production/_ext/977502197/drv_spi_tasks.o
gDrvUSARTCommonDataObj
                    0xc               build/default/production/_ext/115751837/drv_usart.o
g_scanStatus        0x6               build/default/production/_ext/412220316/drv_wifi_scan_helper.o
wnetcomData         0xc               build/default/production/_ext/1360937237/wnetcom.o
gDrvUSARTClientObj  0x50              build/default/production/_ext/115751837/drv_usart.o
RawMoveState        0xa               build/default/production/_ext/412220316/drv_wifi_raw.o
gSysDMAChannelObj   0x80              build/default/production/_ext/1855423469/sys_dma.o
clkObject           0xb0              build/default/production/_ext/639803181/sys_clk.o
gDrvUSARTObj        0x60              build/default/production/_ext/115751837/drv_usart.o
sysDevconObj        0x8               build/default/production/_ext/340578644/sys_devcon.o
sysRandCtx          0x108             build/default/production/_ext/1304044280/sys_random.o
g_passphraseReady   0x62              build/default/production/_ext/412220316/drv_wifi_event_handler.o
g_mgmt_base         0x2               build/default/production/_ext/412220316/drv_wifi_init.o

Microchip PIC32 Memory-Usage Report

kseg0 Program-Memory Usage
section                    address  length [bytes]      (dec)  Description
-------                 ----------  -------------------------  -----------
.simple_tlb_refill_excp 0x9d000000           0x10          16   
.text.DRV_WIFI_Scan     0x9d000010           0xf0         240   
.cache_err_excpt        0x9d000100           0x10          16   
.text._DRV_SPI_SYS_QUEU 0x9d000110           0x70         112   
.app_excpt              0x9d000180           0x10          16  General-Exception 
.text.Cmd_LoadConfig    0x9d000190           0x70         112   
.vectors                0x9d000200         0x1ad4        6868   
.text.vfprintf          0x9d001cd4         0x2018        8216   
.rodata                 0x9d003cec         0x16ac        5804  Read-only const 
.text.TCPIP_TCP_Task    0x9d005398         0x14f8        5368   
.rodata                 0x9d006890         0x13b8        5048  Read-only const 
.text.SHA1Transform     0x9d007c48         0x11b4        4532   
.dinit                  0x9d008dfc          0xde0        3552   
.rodata                 0x9d009bdc          0xd8c        3468  Read-only const 
.text._vfprintf_cdnopux 0x9d00a968          0xc8c        3212   
.text.Cmd_Iwconfig      0x9d00b5f4          0xbe4        3044   
.text._vfscanf_cdnopuxX 0x9d00c1d8          0x908        2312   
.text._Command_DNS_Serv 0x9d00cae0          0x8a0        2208   
.text.TCPIP_STACK_Task  0x9d00d380          0x870        2160   
.text._TcpSend          0x9d00dbf0          0x83c        2108   
.text.TCPIP_DHCP_Task   0x9d00e42c          0x80c        2060   
.text.IwconfigDisplaySt 0x9d00ec38          0x76c        1900   
.text.OutputDriverConfi 0x9d00f3a4          0x754        1876   
.text.DRV_SPI_ISRMaster 0x9d00faf8          0x6f0        1776   
.text                   0x9d0101e8          0x6bc        1724  App's exec code 
.text.TCPIP_ZCLL_Task   0x9d0108a4          0x600        1536   
.text.DRV_WIFI_DataRxTa 0x9d010ea4          0x578        1400   
.text.TCPIP_ARP_Task    0x9d01141c          0x538        1336   
.text.SYS_CMD_Tasks     0x9d011954          0x4f0        1264   
.text.DRV_WIFI_SystemIn 0x9d011e44          0x4d8        1240   
.text.DRV_WIFI_MgmtIndP 0x9d01231c          0x4cc        1228   
.text.DRV_WIFI_ConfigDa 0x9d0127e8          0x480        1152   
.text                   0x9d012c68          0x8bc        2236  App's exec code 
.text.DRV_WIFI_DataTxTa 0x9d013524          0x43c        1084   
.text._CommandArp       0x9d013960          0x434        1076   
.text.WNETCOM_Tasks     0x9d013d94          0x404        1028   
.text.TCPIP_Helper_Stri 0x9d014198          0x3e8        1000   
.text._Command_StackOnO 0x9d014580          0x3d4         980   
.text._DNS_Send_Query   0x9d014954          0x3bc         956   
.text.TCPIP_UDP_Task    0x9d014d10          0x3a0         928   
.text.DRV_SPI_SetupHard 0x9d0150b0          0x394         916   
.text.Console_UART_Task 0x9d015444          0x388         904   
.text._CommandDhcpOptio 0x9d0157cc          0x388         904   
.text.TCPIP_ARP_Initial 0x9d015b54          0x36c         876   
.text._Command_NetInfo  0x9d015ec0          0x36c         876   
.text.TCPIP_STACK_Initi 0x9d01622c          0x354         852   
.text.TCPIP_ANNOUNCE_Ta 0x9d016580          0x340         832   
.text.TCPIP_NBNS_Task   0x9d0168c0          0x330         816   
.text.TCPIP_UDP_Flush   0x9d016bf0          0x314         788   
.text.ParseCmdBuffer    0x9d016f04          0x30c         780   
.text.TCPIP_COMMAND_Tas 0x9d017210          0x30c         780   
.text.TCPIP_DNS_ClientI 0x9d01751c          0x304         772   
.text.SYS_Initialize    0x9d017820          0x304         772   
.text._TCP_Open         0x9d017b24          0x2fc         764   
.text.TCPIP_STACK_Bring 0x9d017e20          0x2f8         760   
.text.DRV_WIFI_ContextL 0x9d018118          0x2ec         748   
.text._DHCPSend         0x9d018404          0x2ec         748   
.text._Command_NetworkO 0x9d0186f0          0x2e8         744   
.text.CommandHelp       0x9d0189d8          0x2dc         732   
.text.TCPIP_IPV4_Packet 0x9d018cb4          0x2dc         732   
.text._DNS_ProcessPacke 0x9d018f90          0x2dc         732   
.text.TCPIP_STACK_NetCo 0x9d01926c          0x2dc         732   
.text.DRV_SPI_Initializ 0x9d019548          0x2d0         720   
.text.OutputConnectionD 0x9d019818          0x2d0         720   
.text.TCPIP_UDP_Options 0x9d019ae8          0x2c8         712   
.text.xTaskCreate       0x9d019db0          0x2c8         712   
.rodata                 0x9d01a078          0x2b4         692  Read-only const 
.text.DRV_WIFI_ProcessE 0x9d01a32c          0x2b0         688   
.text.DRV_USART_BufferA 0x9d01a5dc          0x2ac         684   
.text.TCPIP_IPV4_Packet 0x9d01a888          0x2a4         676   
.text.pbkdf2_sha1       0x9d01ab2c          0x29c         668   
.text.TCPIP_IPV4_Task   0x9d01adc8          0x29c         668   
.text.TCPIP_TCP_ArrayPu 0x9d01b064          0x29c         668   
.text.malloc            0x9d01b300          0x28c         652   
.text.DRV_USART_BufferA 0x9d01b58c          0x278         632   
.text._Command_MacInfo  0x9d01b804          0x278         632   
.rodata                 0x9d01ba7c          0x264         612  Read-only const 
.text.xQueueGenericRece 0x9d01bce0          0x264         612   
.text                   0x9d01bf44          0x25c         604  App's exec code 
.text._DHCPReceive      0x9d01c1a0          0x254         596   
.text.TCPIP_DNS_EntryQu 0x9d01c3f4          0x23c         572   
.text._DHCPOptionHostNa 0x9d01c630          0x234         564   
.text.SYS_TMR_Tasks     0x9d01c864          0x224         548   
.text.DRV_USART_Read    0x9d01ca88          0x21c         540   
.text._DRV_USART_Buffer 0x9d01cca4          0x20c         524   
.text.xQueueGenericSend 0x9d01ceb0          0x20c         524   
.text.DRV_SPI_Open      0x9d01d0bc          0x1f8         504   
.text._Command_AddressS 0x9d01d2b4          0x1f8         504   
.rodata                 0x9d01d4ac          0x1f4         500  Read-only const 
.text._TCPIP_HEAP_Free  0x9d01d6a0          0x1f4         500   
.text.DRV_WIFI_INT_Hand 0x9d01d894          0x1f0         496   
.text._UDPOpen          0x9d01da84          0x1f0         496   
.text._LoadNetworkConfi 0x9d01dc74          0x1e8         488   
.text.TCPIP_UDP_Bind    0x9d01de5c          0x1e4         484   
.text.DRV_USART_Initial 0x9d01e040          0x1e0         480   
.text._Command_IPAddres 0x9d01e220          0x1e0         480   
.text.DRV_SPI_SYS_QUEUE 0x9d01e400          0x1dc         476   
.text._DNS_IsNameResolv 0x9d01e5dc          0x1dc         476   
.text._DNS_RESPONSE_Has 0x9d01e7b8          0x1d8         472   
.text.strtoul           0x9d01e990          0x1d4         468   
.text.scale             0x9d01eb64          0x1d4         468   
.text.TCPIP_DNS_ClientT 0x9d01ed38          0x1d0         464   
.text._DRV_USART_Hardwa 0x9d01ef08          0x1cc         460   
.text._UDPv4TxAckFnc    0x9d01f0d4          0x1cc         460   
.text.TCPIP_Helper_Stri 0x9d01f2a0          0x1cc         460   
.text.TCPIP_ARP_EntryRe 0x9d01f46c          0x1c8         456   
.text.SYS_PORTS_Initial 0x9d01f634          0x1c8         456   
.text.TCPIP_UDP_Options 0x9d01f7fc          0x1c4         452   
.text.DRV_SPI_BufferAdd 0x9d01f9c0          0x1c0         448   
.text.DRV_SPI_BufferAdd 0x9d01fb80          0x1c0         448   
.rodata                 0x9d01fd40          0x378         888  Read-only const 
.text.hmac_sha1_vector  0x9d0200b8          0x1b0         432   
.text._DNS_Resolve      0x9d020268          0x1b0         432   
.text.sha1_vector       0x9d020418          0x1ac         428   
.text.TCPIP_UDP_ArrayGe 0x9d0205c4          0x1ac         428   
.text.TCPIP_TCP_Initial 0x9d020770          0x1a8         424   
.text._DNS_GetAddresses 0x9d020918          0x1a4         420   
.text.DRV_TMR_Initializ 0x9d020abc          0x1a0         416   
.text                   0x9d020c5c          0x1a0         416  App's exec code 
.text.ResetModule       0x9d020dfc          0x19c         412   
.text.strtol            0x9d020f98          0x19c         412   
.text.MRF24W_MACMultica 0x9d021134          0x198         408   
.text._TcpCloseSocket   0x9d0212cc          0x198         408   
.text._ARPProbeAddress  0x9d021464          0x198         408   
.text._sbrk_init        0x9d0215fc          0x194         404   
.text.TCPIP_TCP_ArrayGe 0x9d021790          0x18c         396   
.text.TCPIP_DHCP_Initia 0x9d02191c          0x18c         396   
.text.TCPIP_HEAP_Create 0x9d021aa8          0x188         392   
.text._filbuf           0x9d021c30          0x188         392   
.text.DRV_USART_Open    0x9d021db8          0x180         384   
.text._ZeroconfARPPktNo 0x9d021f38          0x178         376   
.text._DRV_USART_Buffer 0x9d0220b0          0x170         368   
.text.SYS_DMA_ChannelSe 0x9d022220          0x16c         364   
.text._Tcpv4TxAckFnc    0x9d02238c          0x16c         364   
.text._DHCPProcessRecei 0x9d0224f8          0x16c         364   
.text._Command_HeapInfo 0x9d022664          0x16c         364   
.text.TCPIP_UDP_Deiniti 0x9d0227d0          0x168         360   
.text                   0x9d022938          0x2d0         720  App's exec code 
.text.WriteAnalogRegist 0x9d022c08          0x164         356   
.text.xTaskIncrementTic 0x9d022d6c          0x164         356   
.text.TCPIP_IPV4_Select 0x9d022ed0          0x160         352   
.text._DHCPStartOperati 0x9d023030          0x160         352   
.rodata                 0x9d023190          0x160         352  Read-only const 
.text.SYS_DMA_ChannelTr 0x9d0232f0          0x15c         348   
.text._ARPSendIfPkt     0x9d02344c          0x15c         348   
.text.read              0x9d0235a8          0x158         344   
.text.OutputConnectionC 0x9d023700          0x154         340   
.text._SYS_TMR_AlarmCal 0x9d023854          0x154         340   
.text.pvPortMalloc      0x9d0239a8          0x154         340   
.text.DRV_WIFI_ConfigDa 0x9d023afc          0x150         336   
.text.TCPIP_Helper_IPv6 0x9d023c4c          0x150         336   
.text.DRV_SPI_SetupDMA  0x9d023d9c          0x150         336   
.text._TcpDisconnect    0x9d023eec          0x14c         332   
.text.MRF24W_MACTasks   0x9d024038          0x148         328   
.text._SYS_TMR_ClientCr 0x9d024180          0x148         328   
.text.TCPIP_UDP_OpenSer 0x9d0242c8          0x148         328   
.text.xTaskResumeAll    0x9d024410          0x148         328   
.text.fputc             0x9d024558          0x144         324   
.text.DisplayNodeMsg    0x9d02469c          0x140         320   
.text.TCPIP_UDP_Initial 0x9d0247dc          0x140         320   
.text._TCPIP_HEAP_Mallo 0x9d02491c          0x140         320   
.text.TCPIP_ICMP_Task   0x9d024a5c          0x138         312   
.text.TCPIP_ANNOUNCE_In 0x9d024b94          0x134         308   
.text._Command_GatewayA 0x9d024cc8          0x134         308   
.text._ARPDeleteResourc 0x9d024dfc          0x130         304   
.text._Command_MACAddre 0x9d024f2c          0x130         304   
.text.DRV_TMR_AlarmRegi 0x9d02505c          0x12c         300   
.text._flsbuf           0x9d025188          0x12c         300   
.text.DRV_WIFI_Multicas 0x9d0252b4          0x128         296   
.text.TCPIP_IPV4_ArpHan 0x9d0253dc          0x128         296   
.text.vTaskPriorityInhe 0x9d025504          0x128         296   
.rodata                 0x9d02562c          0x128         296  Read-only const 
.text.fround            0x9d025754          0x128         296   
.text._OAHashFindBkt    0x9d02587c          0x124         292   
.text.TCPIP_Helper_Stri 0x9d0259a0          0x124         292   
.text.vTaskDelete       0x9d025ac4          0x124         292   
.text.DRV_USART_BaudSet 0x9d025be8          0x120         288   
.rodata                 0x9d025d08          0x120         288  Read-only const 
.text.SHA1Update        0x9d025e28          0x120         288   
.text.TCPIP_Helper_Pack 0x9d025f48          0x120         288   
.text                   0x9d026068          0x120         288  App's exec code 
.text._GetMaxSegSizeOpt 0x9d026188          0x11c         284   
.text.TCPIP_UDP_RemoteB 0x9d0262a4          0x11c         284   
.text.TCPIP_ARP_IsResol 0x9d0263c0          0x11c         284   
.rodata                 0x9d0264dc          0x11c         284  Read-only const 
.text.DRV_WIFI_RxTaskIn 0x9d0265f8          0x118         280   
.text._DHCPSetLeaseTime 0x9d026710          0x118         280   
.text._Command_PrimaryD 0x9d026828          0x114         276   
.text.TCPIP_Helper_Pack 0x9d02693c          0x114         276   
.text.DRV_SPI_ISRErrorT 0x9d026a50          0x110         272   
.text.TCPIP_ARP_EntryQu 0x9d026b60          0x110         272   
.text.TCPIP_STACK_KillS 0x9d026c70          0x110         272   
.text.DRV_SPI_MasterEBM 0x9d026d80          0x110         272   
.text.SYS_CLK_Initializ 0x9d026e90          0x110         272   
.text.MRF24W_MACInitial 0x9d026fa0          0x10c         268   
.text.WaitForMgmtRespon 0x9d0270ac          0x10c         268   
.text.SYS_CMD_ADDGRP    0x9d0271b8          0x10c         268   
.text.TCPIP_TCP_Deiniti 0x9d0272c4          0x10c         268   
.text.TCPIP_DHCP_InfoGe 0x9d0273d0          0x10c         268   
.text._TCPIPStackModule 0x9d0274dc          0x10c         268   
.text._UDPv4AllocateSkt 0x9d0275e8          0x108         264   
.text._DHCPClose        0x9d0276f0          0x108         264   
.rodata                 0x9d0277f8          0x108         264  Read-only const 
.text.DRV_SPI_SYS_QUEUE 0x9d027900          0x104         260   
.text.DRV_WIFI_KeyDeriv 0x9d027a04          0x104         260   
.text.MRF24W_TxPacketSe 0x9d027b08          0x104         260   
.text._TcpSocketSetIdle 0x9d027c0c          0x104         260   
.text.TCPIP_STACK_NetCo 0x9d027d10          0x104         260   
.text                   0x9d027e14          0x104         260  App's exec code 
.text.SYS_DEVCON_Perfor 0x9d027f18          0x104         260   
.rodata                 0x9d02801c          0x104         260  Read-only const 
.text.fgetc             0x9d028120          0x104         260   
.text._DNS_ValidateIf   0x9d028224          0x100         256   
.text.TCPIP_TCP_ServerO 0x9d028324           0xfc         252   
.text.prvUnlockQueue    0x9d028420           0xfc         252   
.text.DRV_WIFI_AllTasks 0x9d02851c           0xf8         248   
.text.Console_UART_Writ 0x9d028614           0xf8         248   
.text.SYS_DMA_TasksISR  0x9d02870c           0xf8         248   
.text._UDPsetPacketInfo 0x9d028804           0xf8         248   
.text.prvCopyDataToQueu 0x9d0288fc           0xf4         244   
.text.xTaskPriorityDisi 0x9d0289f0           0xf4         244   
.text.TCPIP_NBNS_Initia 0x9d028ae4           0xf0         240   
.text.RawSetIndex       0x9d028bd4           0xec         236   
.text.DRV_WIFI_TaskSync 0x9d028cc0           0xec         236   
.text.SYS_TMR_SystemCou 0x9d028dac           0xec         236   
.text.TCPIP_STACK_NetUp 0x9d028e98           0xec         236   
.text._DRV_TMR_ClockSou 0x9d028f84           0xe8         232   
.text._SYS_TMR_ClientPa 0x9d02906c           0xe8         232   
.text.TCPIP_IPV4_DeInit 0x9d029154           0xe8         232   
.text._DHCPPacketFilter 0x9d02923c           0xe8         232   
.text.TCPIP_IPV4_MacPac 0x9d029324           0xe4         228   
.text._DHCPOpenSocket   0x9d029408           0xe4         228   
.text._TCPIP_StackSyncF 0x9d0294ec           0xe4         228   
.text.prvAddCurrentTask 0x9d0295d0           0xe4         228   
.text.DRV_SPI_MasterEBM 0x9d0296b4           0xe4         228   
.text._DHCPEnable       0x9d029798           0xe0         224   
.text._DNSClientSocketO 0x9d029878           0xe0         224   
.text.TCPIP_OAHASH_Entr 0x9d029958           0xe0         224   
.text.TCPIP_STACK_Addre 0x9d029a38           0xe0         224   
.text.TCPIP_STACK_Bring 0x9d029b18           0xe0         224   
.text.vTaskSwitchContex 0x9d029bf8           0xe0         224   
.text.DRV_SPI_MasterDMA 0x9d029cd8           0xe0         224   
.text.SYS_CMD_DELETE    0x9d029db8           0xdc         220   
.text._TcpAbort         0x9d029e94           0xdc         220   
.text.TCPIP_DHCP_Connec 0x9d029f70           0xdc         220   
.text._Command_BIOSName 0x9d02a04c           0xdc         220   
.text._Command_DefaultI 0x9d02a128           0xdc         220   
.text.general_exception 0x9d02a204           0xdc         220   
.text.MgmtRxProcess     0x9d02a2e0           0xd8         216   
.text.DRV_WIFI_SpiWrite 0x9d02a3b8           0xd8         216   
.text.DRV_WIFI_SpiRead  0x9d02a490           0xd8         216   
.text.SYS_CMD_Initializ 0x9d02a568           0xd8         216   
.text._ARPUpdateEntry   0x9d02a640           0xd8         216   
.text.TCPIP_ARP_CacheEn 0x9d02a718           0xd8         216   
.text._TCPIP_PKT_Packet 0x9d02a7f0           0xd8         216   
.text.DRV_SPI_MasterDMA 0x9d02a8c8           0xd8         216   
.text._cache_err_except 0x9d02a9a0           0xd8         216   
.text.simple_tlb_refill 0x9d02aa78           0xd8         216   
.text.DRV_TMR_CounterFr 0x9d02ab50           0xd4         212   
.text._DRV_USART_Buffer 0x9d02ac24           0xd4         212   
.text.SYS_TMR_Initializ 0x9d02acf8           0xd4         212   
.text._mon_putc         0x9d02adcc           0xd4         212   
.text.RawInitStateMachi 0x9d02aea0           0xd0         208   
.rodata                 0x9d02af70           0xd0         208  Read-only const 
.text.TCPIP_ARP_EntryRe 0x9d02b040           0xcc         204   
.text.TCPIP_Commands_In 0x9d02b10c           0xcc         204   
.text.DRV_TMR_Tasks     0x9d02b1d8           0xc8         200   
.text.SendMgmtMsg       0x9d02b2a0           0xc8         200   
.text.TCPIP_OAHASH_Entr 0x9d02b368           0xc8         200   
.text._NetConfigStringT 0x9d02b430           0xc8         200   
.text._sbrk             0x9d02b4f8           0xc8         200   
.text._DRV_TMR_ClockPre 0x9d02b5c0           0xc4         196   
.text.SetSecurity       0x9d02b684           0xc4         196   
.text.TCPIP_IPV4_MacPac 0x9d02b748           0xc4         196   
.text.TCPIP_UDP_SocketI 0x9d02b80c           0xc4         196   
.text._DHCPOptionWriteS 0x9d02b8d0           0xc4         196   
.text.DRV_SPI_MasterDMA 0x9d02b994           0xc4         196   
.text.DRV_SPI_SYS_QUEUE 0x9d02ba58           0xc0         192   
.text.WaitForMgmtRespon 0x9d02bb18           0xc0         192   
.text.SYS_CMD_PRINT     0x9d02bbd8           0xc0         192   
.text._DHCPOptionProces 0x9d02bc98           0xc0         192   
.text.xQueueGenericRese 0x9d02bd58           0xc0         192   
.text.xQueueGiveFromISR 0x9d02be18           0xc0         192   
.text.DRV_WIFI_SpiInit  0x9d02bed8           0xbc         188   
.text.SendCommandPrint  0x9d02bf94           0xbc         188   
.text.SYS_CMDIO_ADD     0x9d02c050           0xbc         188   
.text.TCPIP_UDP_ArrayPu 0x9d02c10c           0xbc         188   
.text._DHCPOptionWriteI 0x9d02c1c8           0xbc         188   
.text.TCPIP_DNS_Disable 0x9d02c284           0xbc         188   
.text.xTaskRemoveFromEv 0x9d02c340           0xbc         188   
.tlb.__pic32_tlb_init_e 0x9d02c3fc           0xbc         188   
.text.TxQueueDeinit     0x9d02c4b8           0xb8         184   
.text.TCPIP_DNS_OAHASH_ 0x9d02c570           0xb8         184   
.text.TCPIP_DNS_GetIPAd 0x9d02c628           0xb8         184   
.text.TCPIP_PKT_DataSeg 0x9d02c6e0           0xb8         184   
.text.DRV_WIFI_Security 0x9d02c798           0xb4         180   
.text.Console_UART_Read 0x9d02c84c           0xb4         180   
.text.TCPIP_UDP_BcastIP 0x9d02c900           0xb4         180   
.text._ARPNotifyClients 0x9d02c9b4           0xb4         180   
.text.TCPIP_DHCP_Disabl 0x9d02ca68           0xb4         180   
.text._DNS_DeleteHash   0x9d02cb1c           0xb4         180   
.text.TCPIP_ZCLL_Initia 0x9d02cbd0           0xb4         180   
.text.prvIdleTask       0x9d02cc84           0xb4         180   
.text.RawMove           0x9d02cd38           0xb0         176   
.text._DNS_AddSelection 0x9d02cde8           0xb0         176   
.text._TCPIPStackInsert 0x9d02ce98           0xb0         176   
.rodata                 0x9d02cf48           0xac         172  Read-only const 
.text.isRawMoveComplete 0x9d02cff4           0xac         172   
.rodata                 0x9d02d0a0           0xac         172  Read-only const 
.text._DNS_Enable       0x9d02d14c           0xac         172   
.text.TCPIP_STACK_NetDo 0x9d02d1f8           0xac         172   
.text.DRV_WIFI_SpiWrite 0x9d02d2a4           0xa8         168   
.text.TCPIP_PKT_PacketM 0x9d02d34c           0xa8         168   
.text                   0x9d02d3f4           0xa8         168  App's exec code 
.text.atoi              0x9d02d49c           0xa8         168   
.text.range             0x9d02d544           0xa8         168   
.text.DRV_WIFI_ConfigDa 0x9d02d5ec           0xa4         164   
.text.DRV_WIFI_ScanCont 0x9d02d690           0xa4         164   
.rodata                 0x9d02d734           0xa4         164  Read-only const 
.text.DRV_WIFI_SpiDmaTx 0x9d02d7d8           0xa4         164   
.text.DRV_WIFI_SpiDmaRx 0x9d02d87c           0xa4         164   
.text.TCPIP_IPV4_Initia 0x9d02d920           0xa4         164   
.text.TCPIP_DNS_ClientD 0x9d02d9c4           0xa4         164   
.text.DRV_USART_TasksRe 0x9d02da68           0xa0         160   
.text.DRV_USART_TasksTr 0x9d02db08           0xa0         160   
.text.DRV_USART_TasksEr 0x9d02dba8           0xa0         160   
.text.RxDataCallback    0x9d02dc48           0xa0         160   
.rodata                 0x9d02dce8           0xa0         160  Read-only const 
.text.Console_UART_Stat 0x9d02dd88           0xa0         160   
.text._TcpClientSocketC 0x9d02de28           0xa0         160   
.text._TCPSendWinIncUpd 0x9d02dec8           0xa0         160   
.text.TCPIP_DNS_RemoveA 0x9d02df68           0xa0         160   
.text.TCPIP_Helper_Sing 0x9d02e008           0xa0         160   
.text._TCPIP_PKT_Packet 0x9d02e0a8           0xa0         160   
.text.xTaskCheckForTime 0x9d02e148           0xa0         160   
.text.DRV_SPI_MasterDMA 0x9d02e1e8           0xa0         160   
.text.fflush            0x9d02e288           0xa0         160   
.text._DRV_USART_ErrorC 0x9d02e328           0x9c         156   
.text.TCPIP_ARP_Probe   0x9d02e3c4           0x9c         156   
.text.TCPIP_STACK_Strin 0x9d02e460           0x9c         156   
.text.TCPIP_STACK_IPAdd 0x9d02e4fc           0x9c         156   
.text._TCPIPStackModule 0x9d02e598           0x9c         156   
.text.write             0x9d02e634           0x9c         156   
.text.DRV_USART_LineCon 0x9d02e6d0           0x98         152   
.text.Read16BitWFRegist 0x9d02e768           0x98         152   
.text.DRV_WIFI_Connecti 0x9d02e800           0x98         152   
.text.TCPIP_Helper_IPAd 0x9d02e898           0x98         152   
.text.TCPIP_Helper_Form 0x9d02e930           0x98         152   
.text._TCPIPStackModule 0x9d02e9c8           0x98         152   
.text                   0x9d02ea60           0x98         152  App's exec code 
.text.ReadWFArray       0x9d02eaf8           0x94         148   
.text.DRV_WIFI_ScanCont 0x9d02eb8c           0x94         148   
.text.CPElementGet      0x9d02ec20           0x94         148   
.text.DRV_WIFI_Assert   0x9d02ecb4           0x94         148   
.text.DRV_WIFI_DeviceIn 0x9d02ed48           0x94         148   
.text._TcpCleanup       0x9d02eddc           0x94         148   
.text._UDPSetNewRxPacke 0x9d02ee70           0x94         148   
.text.TCPIP_UDP_Destina 0x9d02ef04           0x94         148   
.text._DNS_CleanCacheEn 0x9d02ef98           0x94         148   
.text.xQueueGenericCrea 0x9d02f02c           0x94         148   
.text.WriteWFArray      0x9d02f0c0           0x90         144   
.text.CAElementGet      0x9d02f150           0x90         144   
.text.MRF24W_RxPacketGe 0x9d02f1e0           0x90         144   
.text.MRF24W_MACClose   0x9d02f270           0x90         144   
.text.SYS_CONSOLE_Statu 0x9d02f300           0x90         144   
.text.TCPIP_ARP_EntryGe 0x9d02f390           0x90         144   
.text._TCPIPStackIpAddF 0x9d02f420           0x90         144   
.text._frexpx           0x9d02f4b0           0x90         144   
.text.Read8BitWFRegiste 0x9d02f540           0x8c         140   
.text.IwconfigUpdateCb  0x9d02f5cc           0x8c         140   
.text.DRV_WIFI_Reconnec 0x9d02f658           0x8c         140   
.rodata                 0x9d02f6e4           0x8c         140  Read-only const 
.text.DRV_WIFI_InitTask 0x9d02f770           0x8c         140   
.text.OSAL_SEM_Create   0x9d02f7fc           0x8c         140   
.text.TCPIP_UDP_TxOffse 0x9d02f888           0x8c         140   
.text.TCPIP_UDP_PutIsRe 0x9d02f914           0x8c         140   
.text._DHCPNotifyClient 0x9d02f9a0           0x8c         140   
.text._DNSDiscardName   0x9d02fa2c           0x8c         140   
.text.TCPIP_STACK_NetAl 0x9d02fab8           0x8c         140   
.text.TCPIP_STACK_NetBi 0x9d02fb44           0x8c         140   
.text.rand              0x9d02fbd0           0x8c         140   
.text.Write16BitWFRegis 0x9d02fc5c           0x88         136   
.rodata                 0x9d02fce4           0x88         136  Read-only const 
.text.hexatob           0x9d02fd6c           0x88         136   
.text._TCPIPStackModule 0x9d02fdf4           0x88         136   
.rodata                 0x9d02fe7c           0x84         132  Read-only const 
.text.DRV_WIFI_SsidSet  0x9d02ff00           0x84         132   
.text.RawGetByte        0x9d02ff84           0x84         132   
.text.RawSetByte        0x9d030008           0x84         132   
.text.TCPIP_UDP_SourceI 0x9d03008c           0x84         132   
.text._TCPIP_HEAP_MaxSi 0x9d030110           0x84         132   
.text.zgzc_wait_for     0x9d030194           0x84         132   
.text.TCPIP_STACK_NetHa 0x9d030218           0x84         132   
.text                   0x9d03029c           0x84         132  App's exec code 
.text.vsnprintf         0x9d030320           0x84         132   
.text.Write8BitWFRegist 0x9d0303a4           0x80         128   
.text.ReadCommandCharac 0x9d030424           0x80         128   
.text.SYS_CONSOLE_Write 0x9d0304a4           0x80         128   
.text._TCPIP_HEAP_Delet 0x9d030524           0x80         128   
.text.TCPIP_DNS_OAHASH_ 0x9d0305a4           0x80         128   
.text.TCPIP_ICMP_Initia 0x9d030624           0x80         128   
.text.TCPIP_Helper_MACA 0x9d0306a4           0x80         128   
.text.DRV_SPI_SetVTable 0x9d030724           0x80         128   
.text.MRF24W_MACDeiniti 0x9d0307a4           0x7c         124   
.rodata                 0x9d030820           0x7c         124  Read-only const 
.text.DRV_WIFI_ScanResu 0x9d03089c           0x7c         124   
.text.CommandCleanup    0x9d030918           0x7c         124   
.text._TCP_EphemeralPor 0x9d030994           0x7c         124   
.text._UDPAllocateEphem 0x9d030a10           0x7c         124   
.text.TCPIP_ARP_Deiniti 0x9d030a8c           0x7c         124   
.text.TCPIP_ARP_Handler 0x9d030b08           0x7c         124   
.text.DRV_TMR_CounterVa 0x9d030b84           0x78         120   
.text.StartRawMoveTimer 0x9d030bfc           0x78         120   
.text.SYS_CONSOLE_Read  0x9d030c74           0x78         120   
.text._TxSktGetLockedV4 0x9d030cec           0x78         120   
.text._DHCPOptionProces 0x9d030d64           0x78         120   
.text.TCPIP_DHCP_IsEnab 0x9d030ddc           0x78         120   
.text.TCPIP_DHCP_Handle 0x9d030e54           0x78         120   
.text._TCPIP_MacEventCB 0x9d030ecc           0x78         120   
.text.TCPIP_PKT_Initial 0x9d030f44           0x78         120   
.text.vTaskStartSchedul 0x9d030fbc           0x78         120   
.text.DRV_SPI_SYS_QUEUE 0x9d031034           0x74         116   
.text.DRV_WIFI_PsPollEn 0x9d0310a8           0x74         116   
.text._TcpSocketSetSour 0x9d03111c           0x74         116   
.text._TcpSwapHeader    0x9d031190           0x74         116   
.text._DHCPOptionProces 0x9d031204           0x74         116   
.text.TCPIP_Helper_Stri 0x9d031278           0x74         116   
.text._TCPIPStackAnyNet 0x9d0312ec           0x74         116   
.text._TCPIPStackSignal 0x9d031360           0x74         116   
.text.strncpy           0x9d0313d4           0x74         116   
.text.ungetc            0x9d031448           0x74         116   
.text.DRV_WIFI_ChannelL 0x9d0314bc           0x70         112   
.text.DRV_WIFI_SsidGet  0x9d03152c           0x70         112   
.rodata                 0x9d03159c           0x70         112  Read-only const 
.text.CommandQuit       0x9d03160c           0x70         112   
.text._SYS_TMR_ClientCh 0x9d03167c           0x70         112   
.text._UDPClose         0x9d0316ec           0x70         112   
.text._ARPSetEntry      0x9d03175c           0x70         112   
.text._ARPRemoveEntry   0x9d0317cc           0x70         112   
.rodata                 0x9d03183c           0x70         112  Read-only const 
.text.TCPIP_Helper_Prot 0x9d0318ac           0x70         112   
.text.vPortFree         0x9d03191c           0x70         112   
.text.SYS_Tasks         0x9d03198c           0x70         112   
.text.strncmp           0x9d0319fc           0x70         112   
.text._DRV_SPI_SYS_QUEU 0x9d031a6c           0x6c         108   
.text.MRF24W_MACOpen    0x9d031ad8           0x6c         108   
.text.GetParamMsgSend   0x9d031b44           0x6c         108   
.text._DRV_WIFI_SpiDmaT 0x9d031bb0           0x6c         108   
.text._DRV_WIFI_SpiDmaR 0x9d031c1c           0x6c         108   
.text.SYS_CONSOLE_Initi 0x9d031c88           0x6c         108   
.text.SYS_DMA_Initializ 0x9d031cf4           0x6c         108   
.text._TcpSocketKill    0x9d031d60           0x6c         108   
.text.TCPIP_UDP_SocketN 0x9d031dcc           0x6c         108   
.text._DHCPCleanup      0x9d031e38           0x6c         108   
.text._DNSGetData       0x9d031ea4           0x6c         108   
.text._TCPIP_AnnounceCl 0x9d031f10           0x6c         108   
.text.TCPIP_ANNOUNCE_De 0x9d031f7c           0x6c         108   
.text.TCPIP_STACK_IsBca 0x9d031fe8           0x6c         108   
.text._TCPIP_PKT_Socket 0x9d032054           0x6c         108   
.text.vApplicationSetup 0x9d0320c0           0x6c         108   
.text._DRV_TMR_Resume   0x9d03212c           0x68         104   
.text.DRV_WIFI_Disconne 0x9d032194           0x68         104   
.rodata                 0x9d0321fc           0xd0         208  Read-only const 
.text.Console_UART_Flus 0x9d0322cc           0x68         104   
.text.SYS_RANDOM_Initia 0x9d032334           0x68         104   
.text.TCPIP_UDP_OpenCli 0x9d03239c           0x68         104   
.text.TCPIP_ARP_HashEnt 0x9d032404           0x68         104   
.text._DHCPSetRunFail   0x9d03246c           0x68         104   
.text._DHCPSetTimeout   0x9d0324d4           0x68         104   
.text.TCPIP_DNS_RemoveE 0x9d03253c           0x68         104   
.text._ZCLLEnable       0x9d0325a4           0x68         104   
.text.TCPIP_ZCLL_Enable 0x9d03260c           0x68         104   
.text.TCPIP_Helper_Prot 0x9d032674           0x68         104   
.text._sprintf_cdnopuxX 0x9d0326dc           0x68         104   
.text._DRV_TMR_ModuleOb 0x9d032744           0x64         100   
.text.DRV_TMR_AlarmDisa 0x9d0327a8           0x64         100   
.text.DRV_TMR_Start     0x9d03280c           0x64         100   
.rodata                 0x9d032870           0x64         100  Read-only const 
.text.DRV_WIFI_Reconnec 0x9d0328d4           0x64         100   
.text.DRV_WIFI_UserEven 0x9d032938           0x64         100   
.text.MRF24W_MACParamet 0x9d03299c           0x64         100   
.text.ConfigureLowPower 0x9d032a00           0x64         100   
.text.SendCommandCharac 0x9d032a64           0x64         100   
.text.TCPIP_IPV4_Cleanu 0x9d032ac8           0x64         100   
.text.TCPIP_UDP_SignalH 0x9d032b2c           0x64         100   
.text.TCPIP_DHCP_Deinit 0x9d032b90           0x64         100   
.text.TCPIP_DNS_ClientI 0x9d032bf4           0x64         100   
.text.TCPIP_ZCLL_Disabl 0x9d032c58           0x64         100   
.text.TCPIP_Commands_De 0x9d032cbc           0x64         100   
.text._TCPIPStackModule 0x9d032d20           0x64         100   
.text.DRV_SPI_SYS_QUEUE 0x9d032d84           0x60          96   
.text.DRV_SPI_SYS_QUEUE 0x9d032de4           0x60          96   
.text.DRV_WIFI_Security 0x9d032e44           0x60          96   
.text.DRV_WIFI_ScanStar 0x9d032ea4           0x60          96   
.text.IPv4RegisterFilte 0x9d032f04           0x60          96   
.text._UDPUpdatePacketL 0x9d032f64           0x60          96   
.text.TCPIP_UDP_GetIsRe 0x9d032fc4           0x60          96   
.text.TCPIP_ARP_Callbac 0x9d033024           0x60          96   
.text._DHCPOptionProces 0x9d033084           0x60          96   
.text._DNSClientCleanup 0x9d0330e4           0x60          96   
.text.ANNOUNCE_Notify   0x9d033144           0x60          96   
.text.TCPIP_OAHASH_Entr 0x9d0331a4           0x60          96   
.rodata                 0x9d033204           0x60          96  Read-only const 
.text.TCPIP_Helper_Prot 0x9d033264           0x60          96   
.text.TCPIP_Helper_Prot 0x9d0332c4           0x60          96   
.text.vTaskExitCritical 0x9d033324           0x60          96   
.text.pxPortInitialiseS 0x9d033384           0x60          96   
.text.SYS_PORTS_PinWrit 0x9d0333e4           0x60          96   
.text.wspace            0x9d033444           0x60          96   
.text.DRV_TMR_AlarmEnab 0x9d0334a4           0x5c          92   
.text.DRV_WIFI_PendingE 0x9d033500           0x5c          92   
.text.RxQueueDeinit     0x9d03355c           0x5c          92   
.text.SYS_DMA_ChannelAl 0x9d0335b8           0x5c          92   
.text._TCPSocketTxFreeS 0x9d033614           0x5c          92   
.text._TCPIP_HEAP_Buffe 0x9d033670           0x5c          92   
.text._DNS_NetIsValid   0x9d0336cc           0x5c          92   
.text.fnv_32_hash       0x9d033728           0x5c          92   
.text.TCPIP_STACK_MACId 0x9d033784           0x5c          92   
.text.vListInsert       0x9d0337e0           0x5c          92   
.text.xPortStartSchedul 0x9d03383c           0x5c          92   
.text.DRV_SPI_SYS_QUEUE 0x9d033898           0x58          88   
.text.DRV_TMR_Open      0x9d0338f0           0x58          88   
.text.WpaKeySet         0x9d033948           0x58          88   
.text.CPElementSet      0x9d0339a0           0x58          88   
.text.DRV_WIFI_Reinforc 0x9d0339f8           0x58          88   
.text.SendCommandMessag 0x9d033a50           0x58          88   
.text.TCPIP_IPV4_CheckP 0x9d033aa8           0x58          88   
.text._DHCPOptionProces 0x9d033b00           0x58          88   
.text._DHCPOptionProces 0x9d033b58           0x58          88   
.text._DHCPOptionProces 0x9d033bb0           0x58          88   
.text.TCPIP_ZCLL_Deinit 0x9d033c08           0x58          88   
.text.TCPIP_Helper_Prot 0x9d033c60           0x58          88   
.text._TCPIPSignalEntry 0x9d033cb8           0x58          88   
.text.TCPIP_STACK_Initi 0x9d033d10           0x58          88   
.text.TCPIP_STACK_NetBy 0x9d033d68           0x58          88   
.text.TCPIP_Notificatio 0x9d033dc0           0x58          88   
.text.xQueueCreateMutex 0x9d033e18           0x58          88   
.text.vTaskDelay        0x9d033e70           0x58          88   
.text.SYS_DEVCON_System 0x9d033ec8           0x58          88   
.text.TCPIP_STACK_Init  0x9d033f20           0x58          88   
.text.ResetPll          0x9d033f78           0x54          84   
.text.DRV_WIFI_MRF24W_I 0x9d033fcc           0x54          84   
.text.AllocateDataTxBuf 0x9d034020           0x54          84   
.text.SYS_INT_SourceDis 0x9d034074           0x54          84   
.text._TCP_PortIsAvaila 0x9d0340c8           0x54          84   
.text._UDPFreeTxResourc 0x9d03411c           0x54          84   
.text.TCPIP_ZCLL_Servic 0x9d034170           0x54          84   
.text.TCPIP_STACK_Addre 0x9d0341c4           0x54          84   
.text.vPortIncrementTic 0x9d034218           0x54          84   
.text.main_entry        0x9d03426c           0x54          84   
.text._sscanf_cdnopuxX  0x9d0342c0           0x54          84   
.text._DRV_TMR_Suspend  0x9d034314           0x50          80   
.text.ConsoleFlush      0x9d034364           0x50          80   
.text.CAElementSet      0x9d0343b4           0x50          80   
.text.DRV_WIFI_Connect  0x9d034404           0x50          80   
.text._MRF24W_MACEventS 0x9d034454           0x50          80   
.text.SetParamMsgSend   0x9d0344a4           0x50          80   
.text.DRV_WIFI_RtsThres 0x9d0344f4           0x50          80   
.text.EnsureWFisAwake   0x9d034544           0x50          80   
.text._TCPSetSourceAddr 0x9d034594           0x50          80   
.text._TCPSetHalfFlushF 0x9d0345e4           0x50          80   
.text._TcpFlush         0x9d034634           0x50          80   
.text.TCPIP_UDP_Close   0x9d034684           0x50          80   
.text._DHCPOptionWriteP 0x9d0346d4           0x50          80   
.text._DHCPOptionProces 0x9d034724           0x50          80   
.text.TCPIP_DNS_OAHASH_ 0x9d034774           0x50          80   
.text.TCPIP_NBNS_Deinit 0x9d0347c4           0x50          80   
.text._ZCLLDisable      0x9d034814           0x50          80   
.text.TCPIP_STACK_NetMA 0x9d034864           0x50          80   
.text.TCPIP_STACK_NetMA 0x9d0348b4           0x50          80   
.text.TCPIP_Notificatio 0x9d034904           0x50          80   
.text._TCPIP_PKT_Packet 0x9d034954           0x50          80   
.text.prvCopyDataFromQu 0x9d0349a4           0x50          80   
.text.DRV_SPI_ISRDMAMas 0x9d0349f4           0x50          80   
.text.DRV_SPI_ISRDMAMas 0x9d034a44           0x50          80   
.text._SYS_CLK_Peripher 0x9d034a94           0x50          80   
.text.sbrk              0x9d034ae4           0x50          80   
.text.PowerSaveTask     0x9d034b34           0x4c          76   
.text.DRV_WIFI_AdhocCon 0x9d034b80           0x4c          76   
.text.DRV_WIFI_PendingE 0x9d034bcc           0x4c          76   
.text.StopRawMoveTimer  0x9d034c18           0x4c          76   
.text.RawRead           0x9d034c64           0x4c          76   
.text.RawWrite          0x9d034cb0           0x4c          76   
.rodata                 0x9d034cfc           0x4c          76  Read-only const 
.text.OSAL_SEM_PostISR  0x9d034d48           0x4c          76   
.text.SYS_CONSOLE_Tasks 0x9d034d94           0x4c          76   
.text.UARTDeviceEventHa 0x9d034de0           0x4c          76   
.text.SYS_RESET_Softwar 0x9d034e2c           0x4c          76   
.text.SYS_TMR_TickCount 0x9d034e78           0x4c          76   
.text.TCPIP_UDP_Discard 0x9d034ec4           0x4c          76   
.text._TCPIP_HEAP_Callo 0x9d034f10           0x4c          76   
.text._ARPRemoveCacheEn 0x9d034f5c           0x4c          76   
.text.TCPIP_NBNS_Cleanu 0x9d034fa8           0x4c          76   
.text.TCPIP_Helper_Prot 0x9d034ff4           0x4c          76   
.text.TCPIP_STACK_NetAd 0x9d035040           0x4c          76   
.text.TCPIP_STACK_MACId 0x9d03508c           0x4c          76   
.text.TCPIP_STACK_DNSSe 0x9d0350d8           0x4c          76   
.text._TCPIPStackSignal 0x9d035124           0x4c          76   
.text.TCPIP_Notificatio 0x9d035170           0x4c          76   
.text.calloc            0x9d0351bc           0x4c          76   
.text.DRV_TMR_Close     0x9d035208           0x48          72   
.text.DRV_WIFI_INT_Sour 0x9d035250           0x48          72   
.text.DRV_WIFI_PendingE 0x9d035298           0x48          72   
.text.DRV_WIFI_Deinitia 0x9d0352e0           0x48          72   
.text.MRF24W_MACTxPacke 0x9d035328           0x48          72   
.text.OSAL_CRIT_Enter   0x9d035370           0x48          72   
.text._UDPIsAvailablePo 0x9d0353b8           0x48          72   
.text.TCPIP_HEAP_Create 0x9d035400           0x48          72   
.text.TCPIP_ARP_Handler 0x9d035448           0x48          72   
.text._DHCPOptionWriteM 0x9d035490           0x48          72   
.text.TCPIP_Helper_Sing 0x9d0354d8           0x48          72   
.text.TCPIP_STACK_IPAdd 0x9d035520           0x48          72   
.text.TCPIP_STACK_Netwo 0x9d035568           0x48          72   
.text.TCPIP_STACK_NetAd 0x9d0355b0           0x48          72   
.text.vTaskEnterCritica 0x9d0355f8           0x48          72   
.text.SYS_CLK_Secondary 0x9d035640           0x48          72   
.text.SYS_DEVCON_System 0x9d035688           0x48          72   
.text._SYS_Tasks        0x9d0356d0           0x48          72   
.text._bootstrap_except 0x9d035718           0x48          72   
.text._cache_err_except 0x9d035760           0x48          72   
.text._simple_tlb_refil 0x9d0357a8           0x48          72   
.text.ConnectionProfile 0x9d0357f0           0x44          68   
.text.MRF24W_MACEventDe 0x9d035834           0x44          68   
.text.RxTxUnLockTimerSt 0x9d035878           0x44          68   
.text.SendPowerModeMsg  0x9d0358bc           0x44          68   
.text.OSAL_CRIT_Leave   0x9d035900           0x44          68   
.text.IsCommandReady    0x9d035944           0x44          68   
.text.Ipv4DeRegisterFil 0x9d035988           0x44          68   
.text.TCPIP_TCP_IsConne 0x9d0359cc           0x44          68   
.text.TCPIP_UDP_TxPoint 0x9d035a10           0x44          68   
.text._SwapARPPacket    0x9d035a54           0x44          68   
.text.TCPIP_DHCP_Handle 0x9d035a98           0x44          68   
.text._TCPIP_STACK_Tick 0x9d035adc           0x44          68   
.text.TCPIP_STACK_NetMa 0x9d035b20           0x44          68   
.text.TCPIP_STACK_NetIs 0x9d035b64           0x44          68   
.text.TCPIP_STACK_NetIs 0x9d035ba8           0x44          68   
.text.TCPIP_STACK_NetAd 0x9d035bec           0x44          68   
.text.uxListRemove      0x9d035c30           0x44          68   
.text                   0x9d035c74           0x44          68  App's exec code 
.text.DRV_SPI_SYS_QUEUE 0x9d035cb8           0x40          64   
.text.DRV_WIFI_PsPollDi 0x9d035cf8           0x40          64   
.text.DRV_WIFI_Hibernat 0x9d035d38           0x40          64   
.text.OSAL_SEM_Pend     0x9d035d78           0x40          64   
.text.OSAL_MUTEX_Lock   0x9d035db8           0x40          64   
.rodata                 0x9d035df8           0x40          64  Read-only const 
.text.TCPIP_ICMP_Deinit 0x9d035e38           0x40          64   
.text._ZCLLCleanup      0x9d035e78           0x40          64   
.text                   0x9d035eb8           0x40          64  App's exec code 
.text._DRV_SPI_RootDriv 0x9d035ef8           0x3c          60   
.text.DRV_WIFI_DataCach 0x9d035f34           0x3c          60   
.text.Cmd_Init          0x9d035f70           0x3c          60   
.text.DataRxTx_Handle   0x9d035fac           0x3c          60   
.text.DRV_WIFI_RtsThres 0x9d035fe8           0x3c          60   
.text.OSAL_MUTEX_Create 0x9d036024           0x3c          60   
.text.Console_UART_Read 0x9d036060           0x3c          60   
.text.SYS_TMR_ObjectDel 0x9d03609c           0x3c          60   
.text._TCPIsGetReady    0x9d0360d8           0x3c          60   
.text._UDPTxPktValid    0x9d036114           0x3c          60   
.text._UDPFreeRxQueue   0x9d036150           0x3c          60   
.text._ARPTxAckFnc      0x9d03618c           0x3c          60   
.text.TCPIP_ARP_HashKey 0x9d0361c8           0x3c          60   
.text.TCPIP_DNS_IsResol 0x9d036204           0x3c          60   
.text.TCPIP_OAHASH_Init 0x9d036240           0x3c          60   
.text.TCPIP_Helper_Sing 0x9d03627c           0x3c          60   
.text._TCPIPSignalEntry 0x9d0362b8           0x3c          60   
.text._TCPIPStackSetCon 0x9d0362f4           0x3c          60   
.text.TCPIP_STACK_Deini 0x9d036330           0x3c          60   
.text.uxPortSetInterrup 0x9d03636c           0x3c          60   
.text._general_exceptio 0x9d0363a8           0x3c          60   
.text.DRV_WIFI_Security 0x9d0363e4           0x38          56   
.text._MRF24W_MACProces 0x9d03641c           0x38          56   
.text.hmac_sha1         0x9d036454           0x38          56   
.text.DRV_WIFI_SoftAPCl 0x9d03648c           0x38          56   
.text.CommandReset      0x9d0364c4           0x38          56   
.text._ARPAllocateTxPac 0x9d0364fc           0x38          56   
.text.TCPIP_ARP_Callbac 0x9d036534           0x38          56   
.text.TCPIP_DHCP_Enable 0x9d03656c           0x38          56   
.text.TCPIP_DHCP_Renew  0x9d0365a4           0x38          56   
.text.TCPIP_DHCP_Reques 0x9d0365dc           0x38          56   
.text.TCPIP_STACK_Index 0x9d036614           0x38          56   
.text.TCPIP_STACK_Addre 0x9d03664c           0x38          56   
.text.TCPIP_PKT_Payload 0x9d036684           0x38          56   
.text.prvResetNextTaskU 0x9d0366bc           0x38          56   
.text.vTaskPlaceOnEvent 0x9d0366f4           0x38          56   
.text.DRV_SPI_SYS_QUEUE 0x9d03672c           0x34          52   
.text.DRV_WIFI_TimerTas 0x9d036760           0x34          52   
.text.DRV_WIFI_ConfigDa 0x9d036794           0x34          52   
.text.DRV_WIFI_NetworkT 0x9d0367c8           0x34          52   
.text.SetWepKeyType     0x9d0367fc           0x34          52   
.text.DRV_WIFI_PendingE 0x9d036830           0x34          52   
.text.DRV_WIFI_SpiClose 0x9d036864           0x34          52   
.text._TcpSocketChk     0x9d036898           0x34          52   
.text.TCPIP_TCP_GetIsRe 0x9d0368cc           0x34          52   
.text._UDPSocketDcpt    0x9d036900           0x34          52   
.text.TCPIP_Helper_Prot 0x9d036934           0x34          52   
.text.TCPIP_Helper_Prot 0x9d036968           0x34          52   
.text.TCPIP_STACK_NetAd 0x9d03699c           0x34          52   
.text.TCPIP_STACK_DNSSe 0x9d0369d0           0x34          52   
.text.TCPIP_STACK_NetAd 0x9d036a04           0x34          52   
.text._TCPIPStackHandle 0x9d036a38           0x34          52   
.text.TCPIP_STACK_NetIs 0x9d036a6c           0x34          52   
.text.xQueueCreateCount 0x9d036aa0           0x34          52   
.text.IntHandlerExterna 0x9d036ad4           0x34          52   
.text.SetListenInterval 0x9d036b08           0x30          48   
.text.SetDtimInterval   0x9d036b38           0x30          48   
.text.MRF24W_MACEventIn 0x9d036b68           0x30          48   
.text.DRV_WIFI_Deferred 0x9d036b98           0x30          48   
.text.RawMoveScratchTim 0x9d036bc8           0x30          48   
.text.RawMoveDataTxTime 0x9d036bf8           0x30          48   
.text.RawMoveDataRxTime 0x9d036c28           0x30          48   
.text.DRV_WIFI_MACTask  0x9d036c58           0x30          48   
.text.DeallocateDataRxB 0x9d036c88           0x30          48   
.text.OSAL_SEM_Delete   0x9d036cb8           0x30          48   
.text.OSAL_SEM_Post     0x9d036ce8           0x30          48   
.text.OSAL_MUTEX_Unlock 0x9d036d18           0x30          48   
.text.SYS_CMDIO_GET_HAN 0x9d036d48           0x30          48   
.text.popQueue          0x9d036d78           0x30          48   
.text._TCPIP_HEAP_FreeS 0x9d036da8           0x30          48   
.text._DHCPSocketRxSign 0x9d036dd8           0x30          48   
.text.TCPIP_DHCP_IsActi 0x9d036e08           0x30          48   
.text._DNSSocketRxSigna 0x9d036e38           0x30          48   
.text.TCPIP_ICMP_Cleanu 0x9d036e68           0x30          48   
.text.NBNSSocketRxSigna 0x9d036e98           0x30          48   
.text._TCPIP_AnnounceSo 0x9d036ec8           0x30          48   
.text.TCPIP_OAHASH_Entr 0x9d036ef8           0x30          48   
.text.TCPIP_Helper_Sing 0x9d036f28           0x30          48   
.text.TCPIP_STACK_NetAd 0x9d036f58           0x30          48   
.text.TCPIP_STACK_NetAd 0x9d036f88           0x30          48   
.text.TCPIP_STACK_NetMa 0x9d036fb8           0x30          48   
.text.TCPIP_STACK_Netwo 0x9d036fe8           0x30          48   
.text.vListInsertEnd    0x9d037018           0x30          48   
.text.SYS_PORTS_PinSet  0x9d037048           0x30          48   
.text.SYS_PORTS_PinClea 0x9d037078           0x30          48   
.text.free              0x9d0370a8           0x30          48   
.text.DRV_USART_BufferE 0x9d0370d8           0x2c          44   
.text.DRV_WIFI_INT_Init 0x9d037104           0x2c          44   
.text._MRF24W_MACEventA 0x9d037130           0x2c          44   
.text.SignalTxStateMach 0x9d03715c           0x2c          44   
.text.SignalRxStateMach 0x9d037188           0x2c          44   
.text.DRV_WIFI_MultiCas 0x9d0371b4           0x2c          44   
.text.DRV_WIFI_HostKeyD 0x9d0371e0           0x2c          44   
.text.DRV_WIFI_SemInit  0x9d03720c           0x2c          44   
.text.DRV_WIFI_TaskCrea 0x9d037238           0x2c          44   
.text.DRV_WIFI_TaskDest 0x9d037264           0x2c          44   
.text.TCPIP_OAHASH_Entr 0x9d037290           0x2c          44   
.text.TCPIP_STACK_NetDe 0x9d0372bc           0x2c          44   
.text.TCPIP_STACK_NetNa 0x9d0372e8           0x2c          44   
.text.TCPIP_STACK_NetAd 0x9d037314           0x2c          44   
.text.TCPIP_Notificatio 0x9d037340           0x2c          44   
.text.strchr            0x9d03736c           0x2c          44   
.text._stub_sbd_memlayo 0x9d037398           0x2c          44   
.text._DRV_USART_Driver 0x9d0373c4           0x28          40   
.text.DRV_USART_ClientS 0x9d0373ec           0x28          40   
.text.DRV_WIFI_ChannelL 0x9d037414           0x28          40   
.text.DRV_WIFI_NetworkT 0x9d03743c           0x28          40   
.text.DRV_WIFI_WepKeyTy 0x9d037464           0x28          40   
.text.DRV_WIFI_Security 0x9d03748c           0x28          40   
.text.DRV_WIFI_Security 0x9d0374b4           0x28          40   
.text.DRV_WIFI_HiddenSs 0x9d0374dc           0x28          40   
.text.DRV_WIFI_AdhocMod 0x9d037504           0x28          40   
.text.MgmtEventsGet     0x9d03752c           0x28          40   
.text._MRF24W_MACInitia 0x9d037554           0x28          40   
.text.DRV_WIFI_TxTaskIn 0x9d03757c           0x28          40   
.text.MgmtRespReceivedS 0x9d0375a4           0x28          40   
.text.DRV_WIFI_MgmtBase 0x9d0375cc           0x28          40   
.text.SendRAWDataFrame  0x9d0375f4           0x28          40   
.text.RawMountRxDataBuf 0x9d03761c           0x28          40   
.text.ScratchMount      0x9d037644           0x28          40   
.text.DRV_WIFI_ScanComp 0x9d03766c           0x28          40   
.text.Console_UART_Regi 0x9d037694           0x28          40   
.text.SYS_INT_ExternalI 0x9d0376bc           0x28          40   
.text.SYS_TMR_TickCount 0x9d0376e4           0x28          40   
.text._TCPIP_HEAP_Size  0x9d03770c           0x28          40   
.text._TCPIP_HEAP_LastE 0x9d037734           0x28          40   
.text.TCPIP_Helper_Powe 0x9d03775c           0x28          40   
.text.TCPIP_STACK_NetAd 0x9d037784           0x28          40   
.text.TCPIP_STACK_NetAd 0x9d0377ac           0x28          40   
.text.TCPIP_STACK_NetMA 0x9d0377d4           0x28          40   
.text._TCPIPStackSignal 0x9d0377fc           0x28          40   
.text.pvTaskIncrementMu 0x9d037824           0x28          40   
.text.SYS_PORTS_PinRead 0x9d03784c           0x28          40   
.text.DRV_SPI_BufferAdd 0x9d037874           0x24          36   
.text.DRV_SPI_BufferAdd 0x9d037898           0x24          36   
.text.DRV_WIFI_ConnectC 0x9d0378bc           0x24          36   
.text.DRV_WIFI_BssidSet 0x9d0378e0           0x24          36   
.text.DRV_WIFI_Security 0x9d037904           0x24          36   
.text.MRF24W_MACProcess 0x9d037928           0x24          36   
.text.DRV_WIFI_MacAddre 0x9d03794c           0x24          36   
.text.DRV_WIFI_SetPSK   0x9d037970           0x24          36   
.text.DRV_WIFI_TxModeGe 0x9d037994           0x24          36   
.text.DRV_WIFI_MacAddre 0x9d0379b8           0x24          36   
.text.DRV_WIFI_Regional 0x9d0379dc           0x24          36   
.text.ScratchUnmount    0x9d037a00           0x24          36   
.text.RawReadRelative   0x9d037a24           0x24          36   
.text.DRV_WIFI_MutexIni 0x9d037a48           0x24          36   
.text.SYS_TMR_TickCount 0x9d037a6c           0x24          36   
.text.SYS_TMR_SystemCou 0x9d037a90           0x24          36   
.text._TCP_TxPktValid   0x9d037ab4           0x24          36   
.text.TCPIP_UDP_Put     0x9d037ad8           0x24          36   
.text._DHCPOptionWriteE 0x9d037afc           0x24          36   
.text.TCPIP_ZCLL_IsEnab 0x9d037b20           0x24          36   
.text.prvTaskExitError  0x9d037b44           0x24          36   
.text.SYS_DEVCON_DataCa 0x9d037b68           0x24          36   
.text.IntHandlerSysDmaI 0x9d037b8c           0x24          36   
.text.IntHandlerSysDmaI 0x9d037bb0           0x24          36   
.text.vApplicationStack 0x9d037bd4           0x24          36   
.text.vApplicationMallo 0x9d037bf8           0x24          36   
.text.tolower           0x9d037c1c           0x24          36   
.text.toupper           0x9d037c40           0x24          36   
.text.DRV_SPI_Tasks     0x9d037c64           0x20          32   
.text.Cmd_DeleteConfig  0x9d037c84           0x20          32   
.text.Cmd_SaveConfig    0x9d037ca4           0x20          32   
.text.SPI_DMA_TxComplet 0x9d037cc4           0x20          32   
.text.SPI_DMA_RxComplet 0x9d037ce4           0x20          32   
.text.DRV_WIFI_Deferred 0x9d037d04           0x20          32   
.text.SYS_CMD_MESSAGE   0x9d037d24           0x20          32   
.text.SYS_DMA_ChannelTr 0x9d037d44           0x20          32   
.text.TCPIP_HEAP_Malloc 0x9d037d64           0x20          32   
.text.TCPIP_HEAP_Calloc 0x9d037d84           0x20          32   
.text.TCPIP_HEAP_Free   0x9d037da4           0x20          32   
.rodata                 0x9d037dc4           0x20          32  Read-only const 
.text.TCPIP_DNS_OAHASH_ 0x9d037de4           0x20          32   
.text.TCPIP_DNS_GetIPv4 0x9d037e04           0x20          32   
.text.TCPIP_DNS_GetIPv6 0x9d037e24           0x20          32   
.text.TCPIP_DNS_Enable  0x9d037e44           0x20          32   
.text.TCPIP_STACK_Statu 0x9d037e64           0x20          32   
.text.TCPIP_STACK_NetIs 0x9d037e84           0x20          32   
.text.TCPIP_STACK_Addre 0x9d037ea4           0x20          32   
.text.TCPIP_STACK_HeapH 0x9d037ec4           0x20          32   
.text.vListInitialise   0x9d037ee4           0x20          32   
.text.SYS_CLK_Periphera 0x9d037f04           0x20          32   
.text.IntHandlerDrvTmrI 0x9d037f24           0x20          32   
.text.IntHandlerDrvUsar 0x9d037f44           0x20          32   
.text.IntHandlerDrvUsar 0x9d037f64           0x20          32   
.text.IntHandlerDrvUsar 0x9d037f84           0x20          32   
.text.IntHandlerSPIRxIn 0x9d037fa4           0x20          32   
.text.IntHandlerSPITxIn 0x9d037fc4           0x20          32   
.text.IntHandlerSPIFaul 0x9d037fe4           0x20          32   
.text.main              0x9d038004           0x20          32   
.text._WNETCOM_Tasks    0x9d038024           0x20          32   
.rodata                 0x9d038044           0x1c          28  Read-only const 
.text._MRF24W_MACCheckL 0x9d038060           0x1c          28   
.text.MRF24W_MACEventGe 0x9d03807c           0x1c          28   
.text.MRF24W_MACEventAc 0x9d038098           0x1c          28   
.text.MRF24W_MACEventSe 0x9d0380b4           0x1c          28   
.text.MRF24W_MACRxPacke 0x9d0380d0           0x1c          28   
.text.MRF24W_MACCheckLi 0x9d0380ec           0x1c          28   
.text.DRV_WIFI_MutexLoc 0x9d038108           0x1c          28   
.text.DRV_WIFI_MutexUnl 0x9d038124           0x1c          28   
.text.DRV_WIFI_SemDeIni 0x9d038140           0x1c          28   
.text.DRV_WIFI_SemTake  0x9d03815c           0x1c          28   
.text.DRV_WIFI_SemGive  0x9d038178           0x1c          28   
.text.DRV_WIFI_ISR_SemG 0x9d038194           0x1c          28   
.text.DRV_WIFI_TaskDela 0x9d0381b0           0x1c          28   
.text.SYS_RANDOM_Pseudo 0x9d0381cc           0x1c          28   
.text.SYS_TMR_CallbackS 0x9d0381e8           0x1c          28   
.text.SYS_TMR_CallbackP 0x9d038204           0x1c          28   
.text.SYS_TMR_CallbackS 0x9d038220           0x1c          28   
.text.TCPIP_UDP_ServerO 0x9d03823c           0x1c          28   
.text.TCPIP_UDP_ClientO 0x9d038258           0x1c          28   
.text.TCPIP_UDP_TxPutIs 0x9d038274           0x1c          28   
.text.TCPIP_UDP_Get     0x9d038290           0x1c          28   
.text.TCPIP_DNS_Resolve 0x9d0382ac           0x1c          28   
.text._Command_ZcllOnOf 0x9d0382c8           0x1c          28   
.text._Command_DHCPSOnO 0x9d0382e4           0x1c          28   
.text.btohexa_high      0x9d038300           0x1c          28   
.text.btohexa_low       0x9d03831c           0x1c          28   
.text.TCPIP_Helper_Chec 0x9d038338           0x1c          28   
.text.TCPIP_Notificatio 0x9d038354           0x1c          28   
.text.vQueueDelete      0x9d038370           0x1c          28   
.text.vPortClearInterru 0x9d03838c           0x1c          28   
.text.SYS_CLK_Reference 0x9d0383a8           0x1c          28   
.rodata                 0x9d0383c4           0x1c          28  Read-only const 
.text.srand             0x9d0383e0           0x1c          28   
.text.SYS_TMR_ModuleSta 0x9d0383fc           0x18          24   
.text.TCPIP_ARP_HashKey 0x9d038414           0x18          24   
.text.TCPIP_STACK_NetIn 0x9d03842c           0x18          24   
.text.TCPIP_STACK_NetIx 0x9d038444           0x18          24   
.text.TCPIP_STACK_Gatew 0x9d03845c           0x18          24   
.text.TCPIP_STACK_Prima 0x9d038474           0x18          24   
.text.TCPIP_STACK_Secon 0x9d03848c           0x18          24   
.text.WNETCOM_Initializ 0x9d0384a4           0x18          24   
.text                   0x9d0384bc           0x18          24  App's exec code 
.text._MRF24W_MACEventG 0x9d0384d4           0x14          20   
.text.SYS_INT_Initializ 0x9d0384e8           0x14          20   
.text.vTaskSuspendAll   0x9d0384fc           0x14          20   
.text.vTaskSetTimeOutSt 0x9d038510           0x14          20   
.text.SYS_DEVCON_Initia 0x9d038524           0x14          20   
.text.SignalWiFiConnect 0x9d038538           0x10          16   
.text.IncrementRxPendin 0x9d038548           0x10          16   
.text.DecrementRxPendin 0x9d038558           0x10          16   
.text.isInitComplete    0x9d038568           0x10          16   
.text.TCPIP_ARP_HashKey 0x9d038578           0x10          16   
.text.TCPIP_Helper_Sing 0x9d038588           0x10          16   
.text.vTaskMissedYield  0x9d038598           0x10          16   
.text.DRV_SPI_SYS_QUEUE 0x9d0385a8            0xc          12   
.text.DRV_WIFI_AllEvent 0x9d0385b4            0xc          12   
.text.ChipResetTimeoutC 0x9d0385c0            0xc          12   
.text.isRxStateMachineI 0x9d0385cc            0xc          12   
.text.SetRxPacketPendin 0x9d0385d8            0xc          12   
.text.GetStackData      0x9d0385e4            0xc          12   
.text.DRV_WIFI_PowerSav 0x9d0385f0            0xc          12   
.text.TCPIP_STACK_Numbe 0x9d0385fc            0xc          12   
.text.TCPIP_STACK_NetBI 0x9d038608            0xc          12   
.text._TCPIPStackAddres 0x9d038614            0xc          12   
.text.SYS_CLK_SystemFre 0x9d038620            0xc          12   
.text.GetRxPendingCount 0x9d03862c            0x8           8   
.text.isLinkUp          0x9d038634            0x8           8   
.text.SetLogicalConnect 0x9d03863c            0x8           8   
.text.DRV_WIFI_Initiali 0x9d038644            0x8           8   
.text.RxTxUnLockSleepTi 0x9d03864c            0x8           8   
.text.RawResetInitState 0x9d038654            0x8           8   
.text.MRF24W_MACReiniti 0x9d03865c            0x8           8   
.text.MRF24W_MACStatus  0x9d038664            0x8           8   
.text.MRF24W_MACGetConf 0x9d03866c            0x8           8   
.text.MRF24W_MACPowerMo 0x9d038674            0x8           8   
.text.MRF24W_MACStatist 0x9d03867c            0x8           8   
.text.MRF24W_MACRegiste 0x9d038684            0x8           8   
.rodata                 0x9d03868c            0x8           8  Read-only const 
.text.isSleepNeeded     0x9d038694            0x8           8   
.text.ClearSleepNeeded  0x9d03869c            0x8           8   
.text.GetPowerSaveMode  0x9d0386a4            0x8           8   
.text.DRV_WIFI_InHibern 0x9d0386ac            0x8           8   
.text.DRV_WIFI_Hibernat 0x9d0386b4            0x8           8   
.text.ClearAllIndexOuto 0x9d0386bc            0x8           8   
.text.GetCommandCharact 0x9d0386c4            0x8           8   
.text._DHCPOptionProces 0x9d0386cc            0x8           8   
.text.TCPIP_STACK_NetDe 0x9d0386d4            0x8           8   
.text.TCPIP_PKT_Deiniti 0x9d0386dc            0x8           8   
.text.vListInitialiseIt 0x9d0386e4            0x8           8   
.rodata                 0x9d0386ec            0x8           8  Read-only const 
.text._on_reset         0x9d0386f4            0x8           8   
.text._on_bootstrap     0x9d0386fc            0x8           8   
.rodata                 0x9d038704            0x4           4  Read-only const 
.rodata                 0x9d038708            0x8           8  Read-only const 
.rodata                 0x9d038710            0x4           4  Read-only const 
      Total kseg0_program_mem used  :     0x38714      231188  11.0% of 0x200000

kseg0 Boot-Memory Usage
section                    address  length [bytes]      (dec)  Description
-------                 ----------  -------------------------  -----------
         Total kseg0_boot_mem used  :           0           0  

kseg1 Boot-Memory Usage
section                    address  length [bytes]      (dec)  Description
-------                 ----------  -------------------------  -----------
.reset                  0xbfc00000          0x1b4         436  Reset handler 
.bev_excpt              0xbfc00380           0x10          16  BEV-Exception 
         Total kseg1_boot_mem used  :       0x1c4         452  39.2% of 0x480
        --------------------------------------------------------------------------
         Total Program Memory used  :     0x388d8      231640  11.0% of 0x200480
        --------------------------------------------------------------------------


kseg0 Data-Memory Usage
section                    address  length [bytes]      (dec)  Description
-------                 ----------  -------------------------  -----------
.sdata                  0x80000000           0x70         112  Small init data 
.sbss                   0x80000070          0x2a8         680  Small uninit data 
.bss                    0x80000318          0x7f4        2036  Uninitialized data 
.bss.errno              0x80000b0c            0x4           4   
.bss                    0x80000f90        0x10800       67584  Uninitialized data 
.bss                    0x80011790          0x6c0        1728  Uninitialized data 
.data                   0x80011e50          0x208         520  Initialized data 
.bss                    0x80012058          0x400        1024  Uninitialized data 
.bss                    0x80012458          0x200         512  Uninitialized data 
.bss                    0x80012658           0xc8         200  Uninitialized data 
.data                   0x80012720          0x15c         348  Initialized data 
.bss                    0x8001287c           0xa4         164  Uninitialized data 
.data                   0x80012920          0x140         320  Initialized data 
.bss                    0x80012a60           0xf8         248  Uninitialized data 
.bss                    0x80012b58           0xa8         168  Uninitialized data 
.bss                    0x80012c00           0x84         132  Uninitialized data 
.bss                    0x80012c84           0x70         112  Uninitialized data 
.data                   0x80012cf4           0x30          48  Initialized data 
.bss                    0x80012d24           0x50          80  Uninitialized data 
.bss                    0x80012d74           0x44          68  Uninitialized data 
.bss                    0x80012db8           0x38          56  Uninitialized data 
.bss                    0x80012df0           0x30          48  Uninitialized data 
.bss                    0x80012e20           0x24          36  Uninitialized data 
.data                   0x80012e44           0x10          16  Initialized data 
.bss                    0x80012e54            0x4           4  Uninitialized data 
.bss                    0x80012e58           0x1c          28  Uninitialized data 
.COHERENTBSS$           0x80000b10          0x480        1152   
         Total kseg0_data_mem used  :     0x12e74       77428  14.8% of 0x80000
        --------------------------------------------------------------------------
            Total Data Memory used  :     0x12e74       77428  14.8% of 0x80000
        --------------------------------------------------------------------------


Dynamic Data-Memory Reservation
section                    address  length [bytes]      (dec)  Description
-------                 ----------  -------------------------  -----------
heap                    0x80012e78         0xafa0       44960  Reserved for heap 
stack                   0x8001de30        0x621c0      401856  Reserved for stack 

        --------------------------------------------------------------------------

Discarded input sections

 .text          0x00000000        0x0 d:/program files (x86)/microchip/xc32/v2.30/bin/bin/../../lib/gcc/pic32mx/4.8.3/../../../../pic32mx/lib/fpu64\debug-exception-return.o
 .data          0x00000000        0x0 d:/program files (x86)/microchip/xc32/v2.30/bin/bin/../../lib/gcc/pic32mx/4.8.3/../../../../pic32mx/lib/fpu64\debug-exception-return.o
 .bss           0x00000000        0x0 d:/program files (x86)/microchip/xc32/v2.30/bin/bin/../../lib/gcc/pic32mx/4.8.3/../../../../pic32mx/lib/fpu64\debug-exception-return.o
 .text          0x00000000        0x0 build/default/production/_ext/110609098/drv_spi.o
 .reginfo       0x00000000       0x18 build/default/production/_ext/110609098/drv_spi.o
 .text.DRV_SPI_Deinitialize
                0x00000000       0x8c build/default/production/_ext/110609098/drv_spi.o
 .text.DRV_SPI_Status
                0x00000000        0x8 build/default/production/_ext/110609098/drv_spi.o
 .text.DRV_SPI_Close
                0x00000000      0x17c build/default/production/_ext/110609098/drv_spi.o
 .text.DRV_SPI_BufferAddWriteRead2
                0x00000000      0x200 build/default/production/_ext/110609098/drv_spi.o
 .text.DRV_SPI_BufferAddWriteRead
                0x00000000       0x34 build/default/production/_ext/110609098/drv_spi.o
 .text.DRV_SPI_BufferStatus
                0x00000000        0x8 build/default/production/_ext/110609098/drv_spi.o
 .text.DRV_SPI_ClientConfigure
                0x00000000       0x74 build/default/production/_ext/110609098/drv_spi.o
 .text          0x00000000        0x0 build/default/production/_ext/1908449382/drv_spi_sys_queue_fifo.o
 .data          0x00000000        0x0 build/default/production/_ext/1908449382/drv_spi_sys_queue_fifo.o
 .bss           0x00000000        0x0 build/default/production/_ext/1908449382/drv_spi_sys_queue_fifo.o
 .reginfo       0x00000000       0x18 build/default/production/_ext/1908449382/drv_spi_sys_queue_fifo.o
 .text.DRV_SPI_SYS_QUEUE_DestroyQueue
                0x00000000       0xb0 build/default/production/_ext/1908449382/drv_spi_sys_queue_fifo.o
 .text.DRV_SPI_SYS_QUEUE_Peek
                0x00000000       0x44 build/default/production/_ext/1908449382/drv_spi_sys_queue_fifo.o
 .text.DRV_SPI_SYS_QUEUE_Lock
                0x00000000       0x1c build/default/production/_ext/1908449382/drv_spi_sys_queue_fifo.o
 .text.DRV_SPI_SYS_QUEUE_Unlock
                0x00000000       0x1c build/default/production/_ext/1908449382/drv_spi_sys_queue_fifo.o
 .text.DRV_SPI_SYS_QUEUE_CreateQueueLock
                0x00000000       0x1c build/default/production/_ext/1908449382/drv_spi_sys_queue_fifo.o
 .text.DRV_SPI_SYS_QUEUE_DestroyQueueLock
                0x00000000       0x58 build/default/production/_ext/1908449382/drv_spi_sys_queue_fifo.o
 .text.DRV_SPI_SYS_QUEUE_FreeElementLock
                0x00000000       0x60 build/default/production/_ext/1908449382/drv_spi_sys_queue_fifo.o
 .text.DRV_SPI_SYS_QUEUE_DequeueLock
                0x00000000       0x60 build/default/production/_ext/1908449382/drv_spi_sys_queue_fifo.o
 .text.DRV_SPI_SYS_QUEUE_QueueManagerStatus
                0x00000000        0x8 build/default/production/_ext/1908449382/drv_spi_sys_queue_fifo.o
 .text.DRV_SPI_SYS_QUEUE_QueueStatus
                0x00000000        0x8 build/default/production/_ext/1908449382/drv_spi_sys_queue_fifo.o
 .text._DRV_SPI_SYS_QUEUE_LockQueueManager
                0x00000000        0x8 build/default/production/_ext/1908449382/drv_spi_sys_queue_fifo.o
 .text._DRV_SPI_SYS_QUEUE_UnlockQueueManager
                0x00000000        0x8 build/default/production/_ext/1908449382/drv_spi_sys_queue_fifo.o
 .text          0x00000000        0x0 build/default/production/_ext/494209719/drv_tmr.o
 .data          0x00000000        0x0 build/default/production/_ext/494209719/drv_tmr.o
 .reginfo       0x00000000       0x18 build/default/production/_ext/494209719/drv_tmr.o
 .text.DRV_TMR_Deinitialize
                0x00000000       0x54 build/default/production/_ext/494209719/drv_tmr.o
 .text.DRV_TMR_Status
                0x00000000       0x28 build/default/production/_ext/494209719/drv_tmr.o
 .text.DRV_TMR_ClientStatus
                0x00000000       0x44 build/default/production/_ext/494209719/drv_tmr.o
 .text.DRV_TMR_CounterValueSet
                0x00000000       0x60 build/default/production/_ext/494209719/drv_tmr.o
 .text.DRV_TMR_CounterClear
                0x00000000       0x58 build/default/production/_ext/494209719/drv_tmr.o
 .text.DRV_TMR_AlarmPeriodSet
                0x00000000       0xa0 build/default/production/_ext/494209719/drv_tmr.o
 .text.DRV_TMR_AlarmPeriodGet
                0x00000000       0x3c build/default/production/_ext/494209719/drv_tmr.o
 .text.DRV_TMR_AlarmDeregister
                0x00000000       0x60 build/default/production/_ext/494209719/drv_tmr.o
 .text.DRV_TMR_Stop
                0x00000000       0x7c build/default/production/_ext/494209719/drv_tmr.o
 .text.DRV_TMR_AlarmHasElapsed
                0x00000000       0x3c build/default/production/_ext/494209719/drv_tmr.o
 .text.DRV_TMR_OperationModeGet
                0x00000000       0x3c build/default/production/_ext/494209719/drv_tmr.o
 .text.DRV_TMR_DividerRangeGet
                0x00000000       0x74 build/default/production/_ext/494209719/drv_tmr.o
 .text.DRV_TMR_GateModeSet
                0x00000000       0x6c build/default/production/_ext/494209719/drv_tmr.o
 .text.DRV_TMR_GateModeClear
                0x00000000       0x6c build/default/production/_ext/494209719/drv_tmr.o
 .text.DRV_TMR_ClockSet
                0x00000000       0xa4 build/default/production/_ext/494209719/drv_tmr.o
 .text.DRV_TMR_PrescalerGet
                0x00000000      0x130 build/default/production/_ext/494209719/drv_tmr.o
 .text          0x00000000        0x0 build/default/production/_ext/115751837/drv_usart.o
 .data          0x00000000        0x0 build/default/production/_ext/115751837/drv_usart.o
 .bss           0x00000000        0x0 build/default/production/_ext/115751837/drv_usart.o
 .reginfo       0x00000000       0x18 build/default/production/_ext/115751837/drv_usart.o
 .text.DRV_USART_Deinitialize
                0x00000000       0xc8 build/default/production/_ext/115751837/drv_usart.o
 .text.DRV_USART_Status
                0x00000000       0x30 build/default/production/_ext/115751837/drv_usart.o
 .text.DRV_USART_ByteTransmitCallbackSet
                0x00000000       0x14 build/default/production/_ext/115751837/drv_usart.o
 .text.DRV_USART_ByteReceiveCallbackSet
                0x00000000       0x14 build/default/production/_ext/115751837/drv_usart.o
 .text.DRV_USART_ByteErrorCallbackSet
                0x00000000       0x14 build/default/production/_ext/115751837/drv_usart.o
 .text.DRV_USART_ErrorGet
                0x00000000       0x30 build/default/production/_ext/115751837/drv_usart.o
 .text.DRV_USART_TransferStatus
                0x00000000       0x6c build/default/production/_ext/115751837/drv_usart.o
 .text._DRV_USART_ClientBufferQueueObjectsRemove
                0x00000000      0x220 build/default/production/_ext/115751837/drv_usart.o
 .text.DRV_USART_Close
                0x00000000       0x9c build/default/production/_ext/115751837/drv_usart.o
 .text._DRV_USART_ByteTransmitTasks
                0x00000000       0x84 build/default/production/_ext/115751837/drv_usart.o
 .text._DRV_USART_ByteReceiveTasks
                0x00000000       0x6c build/default/production/_ext/115751837/drv_usart.o
 .text._DRV_USART_ByteErrorTasks
                0x00000000       0x84 build/default/production/_ext/115751837/drv_usart.o
 .text          0x00000000        0x0 build/default/production/_ext/115751837/drv_usart_buffer_queue.o
 .data          0x00000000        0x0 build/default/production/_ext/115751837/drv_usart_buffer_queue.o
 .bss           0x00000000        0x0 build/default/production/_ext/115751837/drv_usart_buffer_queue.o
 .reginfo       0x00000000       0x18 build/default/production/_ext/115751837/drv_usart_buffer_queue.o
 .text.DRV_USART_AddressedBufferAddWrite
                0x00000000      0x2b0 build/default/production/_ext/115751837/drv_usart_buffer_queue.o
 .text.DRV_USART_BufferProcessedSizeGet
                0x00000000       0x4c build/default/production/_ext/115751837/drv_usart_buffer_queue.o
 .text.DRV_USART_BufferCompletedBytesGet
                0x00000000       0x48 build/default/production/_ext/115751837/drv_usart_buffer_queue.o
 .text.DRV_USART_BufferRemove
                0x00000000      0x1b8 build/default/production/_ext/115751837/drv_usart_buffer_queue.o
 .text          0x00000000        0x0 build/default/production/_ext/115751837/drv_usart_read_write.o
 .data          0x00000000        0x0 build/default/production/_ext/115751837/drv_usart_read_write.o
 .bss           0x00000000        0x0 build/default/production/_ext/115751837/drv_usart_read_write.o
 .reginfo       0x00000000       0x18 build/default/production/_ext/115751837/drv_usart_read_write.o
 .text.DRV_USART_Write
                0x00000000      0x210 build/default/production/_ext/115751837/drv_usart_read_write.o
 .text          0x00000000        0x0 build/default/production/_ext/412220316/drv_wifi_com.o
 .data          0x00000000        0x0 build/default/production/_ext/412220316/drv_wifi_com.o
 .bss           0x00000000        0x0 build/default/production/_ext/412220316/drv_wifi_com.o
 .reginfo       0x00000000       0x18 build/default/production/_ext/412220316/drv_wifi_com.o
 .text          0x00000000        0x0 build/default/production/_ext/412220316/drv_wifi_commands.o
 .data          0x00000000        0x0 build/default/production/_ext/412220316/drv_wifi_commands.o
 .reginfo       0x00000000       0x18 build/default/production/_ext/412220316/drv_wifi_commands.o
 .text          0x00000000        0x0 build/default/production/_ext/412220316/drv_wifi_config_data.o
 .data          0x00000000        0x0 build/default/production/_ext/412220316/drv_wifi_config_data.o
 .reginfo       0x00000000       0x18 build/default/production/_ext/412220316/drv_wifi_config_data.o
 .text          0x00000000        0x0 build/default/production/_ext/412220316/drv_wifi_connection_algorithm.o
 .data          0x00000000        0x0 build/default/production/_ext/412220316/drv_wifi_connection_algorithm.o
 .bss           0x00000000        0x0 build/default/production/_ext/412220316/drv_wifi_connection_algorithm.o
 .reginfo       0x00000000       0x18 build/default/production/_ext/412220316/drv_wifi_connection_algorithm.o
 .text.DRV_WIFI_RssiSet
                0x00000000       0x28 build/default/production/_ext/412220316/drv_wifi_connection_algorithm.o
 .text.DRV_WIFI_RssiGet
                0x00000000       0x28 build/default/production/_ext/412220316/drv_wifi_connection_algorithm.o
 .text.DRV_WIFI_AdhocContextGet
                0x00000000       0x54 build/default/production/_ext/412220316/drv_wifi_connection_algorithm.o
 .text.DRV_WIFI_SoftAPContextSet
                0x00000000       0x1c build/default/production/_ext/412220316/drv_wifi_connection_algorithm.o
 .text.DRV_WIFI_SoftAPContextGet
                0x00000000       0x2c build/default/production/_ext/412220316/drv_wifi_connection_algorithm.o
 .text          0x00000000        0x0 build/default/production/_ext/412220316/drv_wifi_connection_manager.o
 .data          0x00000000        0x0 build/default/production/_ext/412220316/drv_wifi_connection_manager.o
 .reginfo       0x00000000       0x18 build/default/production/_ext/412220316/drv_wifi_connection_manager.o
 .text          0x00000000        0x0 build/default/production/_ext/412220316/drv_wifi_connection_profile.o
 .data          0x00000000        0x0 build/default/production/_ext/412220316/drv_wifi_connection_profile.o
 .bss           0x00000000        0x0 build/default/production/_ext/412220316/drv_wifi_connection_profile.o
 .reginfo       0x00000000       0x18 build/default/production/_ext/412220316/drv_wifi_connection_profile.o
 .text.DRV_WIFI_BssidGet
                0x00000000       0x28 build/default/production/_ext/412220316/drv_wifi_connection_profile.o
 .text.DRV_WIFI_WPSCredentialsGet
                0x00000000       0x4c build/default/production/_ext/412220316/drv_wifi_connection_profile.o
 .text.DRV_WIFI_HiddenSsidGet
                0x00000000       0x2c build/default/production/_ext/412220316/drv_wifi_connection_profile.o
 .text.DRV_WIFI_AdhocModeGet
                0x00000000       0x2c build/default/production/_ext/412220316/drv_wifi_connection_profile.o
 .text          0x00000000        0x0 build/default/production/_ext/412220316/drv_wifi_context_loader.o
 .data          0x00000000        0x0 build/default/production/_ext/412220316/drv_wifi_context_loader.o
 .bss           0x00000000        0x0 build/default/production/_ext/412220316/drv_wifi_context_loader.o
 .reginfo       0x00000000       0x18 build/default/production/_ext/412220316/drv_wifi_context_loader.o
 .text          0x00000000        0x0 build/default/production/_ext/412220316/drv_wifi_debug_output.o
 .bss           0x00000000        0x0 build/default/production/_ext/412220316/drv_wifi_debug_output.o
 .reginfo       0x00000000       0x18 build/default/production/_ext/412220316/drv_wifi_debug_output.o
 .text          0x00000000        0x0 build/default/production/_ext/412220316/drv_wifi_eint.o
 .data          0x00000000        0x0 build/default/production/_ext/412220316/drv_wifi_eint.o
 .bss           0x00000000        0x0 build/default/production/_ext/412220316/drv_wifi_eint.o
 .reginfo       0x00000000       0x18 build/default/production/_ext/412220316/drv_wifi_eint.o
 .text          0x00000000        0x0 build/default/production/_ext/412220316/drv_wifi_events.o
 .data          0x00000000        0x0 build/default/production/_ext/412220316/drv_wifi_events.o
 .reginfo       0x00000000       0x18 build/default/production/_ext/412220316/drv_wifi_events.o
 .text.TrafficEventsGet
                0x00000000       0x1c build/default/production/_ext/412220316/drv_wifi_events.o
 .text          0x00000000        0x0 build/default/production/_ext/412220316/drv_wifi_event_handler.o
 .data          0x00000000        0x0 build/default/production/_ext/412220316/drv_wifi_event_handler.o
 .bss           0x00000000        0x0 build/default/production/_ext/412220316/drv_wifi_event_handler.o
 .reginfo       0x00000000       0x18 build/default/production/_ext/412220316/drv_wifi_event_handler.o
 .text.ClientCacheUpdated
                0x00000000       0xb0 build/default/production/_ext/412220316/drv_wifi_event_handler.o
 .text.DRV_WIFI_SoftApEventInfoGet
                0x00000000        0x8 build/default/production/_ext/412220316/drv_wifi_event_handler.o
 .text          0x00000000        0x0 build/default/production/_ext/412220316/drv_wifi_init.o
 .data          0x00000000        0x0 build/default/production/_ext/412220316/drv_wifi_init.o
 .bss           0x00000000        0x0 build/default/production/_ext/412220316/drv_wifi_init.o
 .reginfo       0x00000000       0x18 build/default/production/_ext/412220316/drv_wifi_init.o
 .text          0x00000000        0x0 build/default/production/_ext/412220316/drv_wifi_iwpriv.o
 .data          0x00000000        0x0 build/default/production/_ext/412220316/drv_wifi_iwpriv.o
 .bss           0x00000000        0x0 build/default/production/_ext/412220316/drv_wifi_iwpriv.o
 .reginfo       0x00000000       0x18 build/default/production/_ext/412220316/drv_wifi_iwpriv.o
 .rodata        0x00000000      0x108 build/default/production/_ext/412220316/drv_wifi_iwpriv.o
 .text.iwpriv_get
                0x00000000      0x304 build/default/production/_ext/412220316/drv_wifi_iwpriv.o
 .text.iwpriv_set
                0x00000000      0x20c build/default/production/_ext/412220316/drv_wifi_iwpriv.o
 .text.iwpriv_execute
                0x00000000      0x178 build/default/production/_ext/412220316/drv_wifi_iwpriv.o
 .text          0x00000000        0x0 build/default/production/_ext/412220316/drv_wifi_mac.o
 .data          0x00000000        0x0 build/default/production/_ext/412220316/drv_wifi_mac.o
 .reginfo       0x00000000       0x18 build/default/production/_ext/412220316/drv_wifi_mac.o
 .text.DRV_WIFI_RSSI_Cache_FromRxDataRead
                0x00000000       0xac build/default/production/_ext/412220316/drv_wifi_mac.o
 .text.DRV_WIFI_RSSI_Get_FromRxDataRead
                0x00000000       0x98 build/default/production/_ext/412220316/drv_wifi_mac.o
 .text.isDataTxTaskInactive
                0x00000000        0xc build/default/production/_ext/412220316/drv_wifi_mac.o
 .text          0x00000000        0x0 build/default/production/_ext/412220316/drv_wifi_main.o
 .reginfo       0x00000000       0x18 build/default/production/_ext/412220316/drv_wifi_main.o
 .text.isMacInitialized
                0x00000000        0xc build/default/production/_ext/412220316/drv_wifi_main.o
 .text          0x00000000        0x0 build/default/production/_ext/412220316/drv_wifi_mgmt_msg.o
 .data          0x00000000        0x0 build/default/production/_ext/412220316/drv_wifi_mgmt_msg.o
 .bss           0x00000000        0x0 build/default/production/_ext/412220316/drv_wifi_mgmt_msg.o
 .reginfo       0x00000000       0x18 build/default/production/_ext/412220316/drv_wifi_mgmt_msg.o
 .text          0x00000000        0x0 build/default/production/_ext/412220316/drv_wifi_param_msg.o
 .data          0x00000000        0x0 build/default/production/_ext/412220316/drv_wifi_param_msg.o
 .bss           0x00000000        0x0 build/default/production/_ext/412220316/drv_wifi_param_msg.o
 .reginfo       0x00000000       0x18 build/default/production/_ext/412220316/drv_wifi_param_msg.o
 .text.DRV_WIFI_LinkDownThresholdSet
                0x00000000       0x28 build/default/production/_ext/412220316/drv_wifi_param_msg.o
 .text.DRV_WIFI_TxModeSet
                0x00000000       0x28 build/default/production/_ext/412220316/drv_wifi_param_msg.o
 .text.DRV_WIFI_MacStatsGet
                0x00000000       0x50 build/default/production/_ext/412220316/drv_wifi_param_msg.o
 .text          0x00000000        0x0 build/default/production/_ext/412220316/drv_wifi_pbkdf2.o
 .data          0x00000000        0x0 build/default/production/_ext/412220316/drv_wifi_pbkdf2.o
 .reginfo       0x00000000       0x18 build/default/production/_ext/412220316/drv_wifi_pbkdf2.o
 .text.sha1_prf
                0x00000000      0x148 build/default/production/_ext/412220316/drv_wifi_pbkdf2.o
 .text.sha1_t_prf
                0x00000000      0x174 build/default/production/_ext/412220316/drv_wifi_pbkdf2.o
 .text.sha1_transform
                0x00000000       0x1c build/default/production/_ext/412220316/drv_wifi_pbkdf2.o
 .text          0x00000000        0x0 build/default/production/_ext/412220316/drv_wifi_power_save.o
 .data          0x00000000        0x0 build/default/production/_ext/412220316/drv_wifi_power_save.o
 .bss           0x00000000        0x0 build/default/production/_ext/412220316/drv_wifi_power_save.o
 .reginfo       0x00000000       0x18 build/default/production/_ext/412220316/drv_wifi_power_save.o
 .text.SetSleepNeeded
                0x00000000        0xc build/default/production/_ext/412220316/drv_wifi_power_save.o
 .text.SetPowerSaveMode
                0x00000000        0x8 build/default/production/_ext/412220316/drv_wifi_power_save.o
 .text.isPsPollEnabled
                0x00000000       0x14 build/default/production/_ext/412220316/drv_wifi_power_save.o
 .text.isPsPollActive
                0x00000000        0x8 build/default/production/_ext/412220316/drv_wifi_power_save.o
 .text          0x00000000        0x0 build/default/production/_ext/412220316/drv_wifi_raw.o
 .data          0x00000000        0x0 build/default/production/_ext/412220316/drv_wifi_raw.o
 .reginfo       0x00000000       0x18 build/default/production/_ext/412220316/drv_wifi_raw.o
 .text.RawGetIndex
                0x00000000       0x24 build/default/production/_ext/412220316/drv_wifi_raw.o
 .text          0x00000000        0x0 build/default/production/_ext/412220316/drv_wifi_scan.o
 .data          0x00000000        0x0 build/default/production/_ext/412220316/drv_wifi_scan.o
 .bss           0x00000000        0x0 build/default/production/_ext/412220316/drv_wifi_scan.o
 .reginfo       0x00000000       0x18 build/default/production/_ext/412220316/drv_wifi_scan.o
 .text          0x00000000        0x0 build/default/production/_ext/412220316/drv_wifi_scan_helper.o
 .data          0x00000000        0x0 build/default/production/_ext/412220316/drv_wifi_scan_helper.o
 .bss           0x00000000        0x0 build/default/production/_ext/412220316/drv_wifi_scan_helper.o
 .reginfo       0x00000000       0x18 build/default/production/_ext/412220316/drv_wifi_scan_helper.o
 .text._DRV_WIFI_ScanResultsBufferSize_Get
                0x00000000        0x8 build/default/production/_ext/412220316/drv_wifi_scan_helper.o
 .text.DRV_WIFI_PreScanStart
                0x00000000       0x64 build/default/production/_ext/412220316/drv_wifi_scan_helper.o
 .text.DRV_WIFI_ScanResultGetHelper
                0x00000000       0x30 build/default/production/_ext/412220316/drv_wifi_scan_helper.o
 .rodata        0x00000000       0xb0 build/default/production/_ext/412220316/drv_wifi_scan_helper.o
 .text.DRV_WIFI_ScanResultsDisplayManager
                0x00000000      0x2a0 build/default/production/_ext/412220316/drv_wifi_scan_helper.o
 .text.DRV_WIFI_ScanResultsSaveManager
                0x00000000       0xc8 build/default/production/_ext/412220316/drv_wifi_scan_helper.o
 COMMON         0x00000000      0xb54 build/default/production/_ext/412220316/drv_wifi_scan_helper.o
 .text          0x00000000        0x0 build/default/production/_ext/412220316/drv_wifi_softap_client_cache.o
 .data          0x00000000        0x0 build/default/production/_ext/412220316/drv_wifi_softap_client_cache.o
 .reginfo       0x00000000       0x18 build/default/production/_ext/412220316/drv_wifi_softap_client_cache.o
 .text.LookUpMac
                0x00000000       0x74 build/default/production/_ext/412220316/drv_wifi_softap_client_cache.o
 .text.DRV_WIFI_SoftAPClientCache_Refresh
                0x00000000      0x17c build/default/production/_ext/412220316/drv_wifi_softap_client_cache.o
 .text.DRV_WIFI_SoftAPClientCache_LookUpClient
                0x00000000       0x24 build/default/production/_ext/412220316/drv_wifi_softap_client_cache.o
 .rodata        0x00000000       0x50 build/default/production/_ext/412220316/drv_wifi_softap_client_cache.o
 .text.DRV_WIFI_SoftAPClientCache_Print
                0x00000000       0x84 build/default/production/_ext/412220316/drv_wifi_softap_client_cache.o
 .text          0x00000000        0x0 build/default/production/_ext/412220316/drv_wifi_spi.o
 .data          0x00000000        0x0 build/default/production/_ext/412220316/drv_wifi_spi.o
 .bss           0x00000000        0x0 build/default/production/_ext/412220316/drv_wifi_spi.o
 .reginfo       0x00000000       0x18 build/default/production/_ext/412220316/drv_wifi_spi.o
 .text.DRV_WIFI_SpiTx
                0x00000000       0x78 build/default/production/_ext/412220316/drv_wifi_spi.o
 .text.DRV_WIFI_SpiRx
                0x00000000       0xcc build/default/production/_ext/412220316/drv_wifi_spi.o
 .text          0x00000000        0x0 build/default/production/_ext/412220316/drv_wifi_tx_power.o
 .data          0x00000000        0x0 build/default/production/_ext/412220316/drv_wifi_tx_power.o
 .bss           0x00000000        0x0 build/default/production/_ext/412220316/drv_wifi_tx_power.o
 .reginfo       0x00000000       0x18 build/default/production/_ext/412220316/drv_wifi_tx_power.o
 .text.DRV_WIFI_TxPowerMaxGet
                0x00000000       0x38 build/default/production/_ext/412220316/drv_wifi_tx_power.o
 .text.DRV_WIFI_TxPowerFactoryMaxGet
                0x00000000       0x38 build/default/production/_ext/412220316/drv_wifi_tx_power.o
 .rodata        0x00000000       0x68 build/default/production/_ext/412220316/drv_wifi_tx_power.o
 .text.DRV_WIFI_TxPowerMaxSet
                0x00000000       0x64 build/default/production/_ext/412220316/drv_wifi_tx_power.o
 .text          0x00000000        0x0 build/default/production/_ext/412220316/drv_wifi_rtos_wrapper.o
 .data          0x00000000        0x0 build/default/production/_ext/412220316/drv_wifi_rtos_wrapper.o
 .bss           0x00000000        0x0 build/default/production/_ext/412220316/drv_wifi_rtos_wrapper.o
 .reginfo       0x00000000       0x18 build/default/production/_ext/412220316/drv_wifi_rtos_wrapper.o
 .text.DRV_WIFI_MutexDeInit
                0x00000000       0x1c build/default/production/_ext/412220316/drv_wifi_rtos_wrapper.o
 .text.DRV_WIFI_AllTaskDestroy
                0x00000000       0x68 build/default/production/_ext/412220316/drv_wifi_rtos_wrapper.o
 .text          0x00000000        0x0 build/default/production/_ext/2004362140/osal_freertos.o
 .data          0x00000000        0x0 build/default/production/_ext/2004362140/osal_freertos.o
 .bss           0x00000000        0x0 build/default/production/_ext/2004362140/osal_freertos.o
 .reginfo       0x00000000       0x18 build/default/production/_ext/2004362140/osal_freertos.o
 .text.OSAL_SEM_GetCount
                0x00000000       0x2c build/default/production/_ext/2004362140/osal_freertos.o
 .text.OSAL_MUTEX_Delete
                0x00000000       0x3c build/default/production/_ext/2004362140/osal_freertos.o
 .rodata        0x00000000        0xc build/default/production/_ext/2004362140/osal_freertos.o
 .text.OSAL_Name
                0x00000000        0xc build/default/production/_ext/2004362140/osal_freertos.o
 .text.OSAL_Initialize
                0x00000000        0x8 build/default/production/_ext/2004362140/osal_freertos.o
 .text          0x00000000        0x0 build/default/production/_ext/1052224704/sys_command.o
 .data          0x00000000        0x0 build/default/production/_ext/1052224704/sys_command.o
 .reginfo       0x00000000       0x18 build/default/production/_ext/1052224704/sys_command.o
 .text.SYS_CMD_RegisterCallback
                0x00000000       0x5c build/default/production/_ext/1052224704/sys_command.o
 .text.SYS_CMD_READY_TO_WRITE
                0x00000000       0x88 build/default/production/_ext/1052224704/sys_command.o
 .text.SYS_CMD_READY_TO_READ
                0x00000000       0xf8 build/default/production/_ext/1052224704/sys_command.o
 .text          0x00000000        0x0 build/default/production/_ext/595512524/sys_console.o
 .data          0x00000000        0x0 build/default/production/_ext/595512524/sys_console.o
 .reginfo       0x00000000       0x18 build/default/production/_ext/595512524/sys_console.o
 .text.SYS_CONSOLE_Deinitialize
                0x00000000       0x44 build/default/production/_ext/595512524/sys_console.o
 .text.SYS_CONSOLE_Reinitialize
                0x00000000       0x64 build/default/production/_ext/595512524/sys_console.o
 .text.SYS_CONSOLE_RegisterCallback
                0x00000000       0x48 build/default/production/_ext/595512524/sys_console.o
 .text.SYS_CONSOLE_Flush
                0x00000000       0x48 build/default/production/_ext/595512524/sys_console.o
 .text          0x00000000        0x0 build/default/production/_ext/595512524/sys_console_uart.o
 .reginfo       0x00000000       0x18 build/default/production/_ext/595512524/sys_console_uart.o
 .text          0x00000000        0x0 build/default/production/_ext/1855423469/sys_dma.o
 .data          0x00000000        0x0 build/default/production/_ext/1855423469/sys_dma.o
 .bss           0x00000000        0x0 build/default/production/_ext/1855423469/sys_dma.o
 .reginfo       0x00000000       0x18 build/default/production/_ext/1855423469/sys_dma.o
 .text.SYS_DMA_ChannelRelease
                0x00000000      0x16c build/default/production/_ext/1855423469/sys_dma.o
 .text.SYS_DMA_ChannelSetupMatchAbortMode
                0x00000000       0x5c build/default/production/_ext/1855423469/sys_dma.o
 .text.SYS_DMA_ChannelCRCSet
                0x00000000       0xd4 build/default/production/_ext/1855423469/sys_dma.o
 .text.SYS_DMA_ChannelCRCGet
                0x00000000       0x14 build/default/production/_ext/1855423469/sys_dma.o
 .text.SYS_DMA_ChannelEnable
                0x00000000       0x38 build/default/production/_ext/1855423469/sys_dma.o
 .text.SYS_DMA_ChannelDisable
                0x00000000       0x38 build/default/production/_ext/1855423469/sys_dma.o
 .text.SYS_DMA_ChannelTransferSet
                0x00000000      0x154 build/default/production/_ext/1855423469/sys_dma.o
 .text.SYS_DMA_ChannelSourceTransferredSizeGet
                0x00000000       0x34 build/default/production/_ext/1855423469/sys_dma.o
 .text.SYS_DMA_ChannelDestinationTransferredSizeGet
                0x00000000       0x34 build/default/production/_ext/1855423469/sys_dma.o
 .text.SYS_DMA_Tasks
                0x00000000        0x8 build/default/production/_ext/1855423469/sys_dma.o
 .text.SYS_DMA_TasksError
                0x00000000       0xe0 build/default/production/_ext/1855423469/sys_dma.o
 .text.SYS_DMA_TasksErrorISR
                0x00000000       0xac build/default/production/_ext/1855423469/sys_dma.o
 .text.SYS_DMA_ChannelErrorGet
                0x00000000        0x8 build/default/production/_ext/1855423469/sys_dma.o
 .text.SYS_DMA_ChannelForceStart
                0x00000000       0x38 build/default/production/_ext/1855423469/sys_dma.o
 .text.SYS_DMA_ChannelForceAbort
                0x00000000       0x38 build/default/production/_ext/1855423469/sys_dma.o
 .text.SYS_DMA_ChannelAbortEventSet
                0x00000000       0x70 build/default/production/_ext/1855423469/sys_dma.o
 .text.SYS_DMA_ChannelIsBusy
                0x00000000       0x30 build/default/production/_ext/1855423469/sys_dma.o
 .text.SYS_DMA_Suspend
                0x00000000       0x14 build/default/production/_ext/1855423469/sys_dma.o
 .text.SYS_DMA_Resume
                0x00000000       0x14 build/default/production/_ext/1855423469/sys_dma.o
 .text.SYS_DMA_IsBusy
                0x00000000       0x10 build/default/production/_ext/1855423469/sys_dma.o
 .text          0x00000000        0x0 build/default/production/_ext/2044150628/sys_int_pic32.o
 .data          0x00000000        0x0 build/default/production/_ext/2044150628/sys_int_pic32.o
 .bss           0x00000000        0x0 build/default/production/_ext/2044150628/sys_int_pic32.o
 .reginfo       0x00000000       0x18 build/default/production/_ext/2044150628/sys_int_pic32.o
 .text.SYS_INT_StatusGetAndDisable
                0x00000000       0x1c build/default/production/_ext/2044150628/sys_int_pic32.o
 .text.SYS_INT_StatusRestore
                0x00000000       0x1c build/default/production/_ext/2044150628/sys_int_pic32.o
 .text.SYS_INT_Disable
                0x00000000       0x20 build/default/production/_ext/2044150628/sys_int_pic32.o
 .text          0x00000000        0x0 build/default/production/_ext/1304044280/sys_random.o
 .data          0x00000000        0x0 build/default/production/_ext/1304044280/sys_random.o
 .reginfo       0x00000000       0x18 build/default/production/_ext/1304044280/sys_random.o
 .text.SYS_RANDOM_Deinitialize
                0x00000000        0xc build/default/production/_ext/1304044280/sys_random.o
 .text.SYS_RANDOM_PseudoSeedSet
                0x00000000       0x1c build/default/production/_ext/1304044280/sys_random.o
 COMMON         0x00000000      0x108 build/default/production/_ext/1304044280/sys_random.o
 .text          0x00000000        0x0 build/default/production/_ext/398504132/sys_reset.o
 .data          0x00000000        0x0 build/default/production/_ext/398504132/sys_reset.o
 .bss           0x00000000        0x0 build/default/production/_ext/398504132/sys_reset.o
 .reginfo       0x00000000       0x18 build/default/production/_ext/398504132/sys_reset.o
 .text.SYS_RESET_ReasonGet
                0x00000000       0x10 build/default/production/_ext/398504132/sys_reset.o
 .text.SYS_RESET_ReasonClear
                0x00000000       0x10 build/default/production/_ext/398504132/sys_reset.o
 .text.SYS_RESET_NMIDelayCountSet
                0x00000000       0x40 build/default/production/_ext/398504132/sys_reset.o
 .text          0x00000000        0x0 build/default/production/_ext/1108686962/sys_tmr.o
 .data          0x00000000        0x0 build/default/production/_ext/1108686962/sys_tmr.o
 .reginfo       0x00000000       0x18 build/default/production/_ext/1108686962/sys_tmr.o
 .text.SYS_TMR_Deinitialize
                0x00000000       0xb0 build/default/production/_ext/1108686962/sys_tmr.o
 .text.SYS_TMR_Status
                0x00000000       0x20 build/default/production/_ext/1108686962/sys_tmr.o
 .text.SYS_TMR_ObjectCreate
                0x00000000       0x1c build/default/production/_ext/1108686962/sys_tmr.o
 .text.SYS_TMR_ObjectReload
                0x00000000       0xa0 build/default/production/_ext/1108686962/sys_tmr.o
 .text.SYS_TMR_ObjectCountGet
                0x00000000       0xc8 build/default/production/_ext/1108686962/sys_tmr.o
 .text.SYS_TMR_DelayMS
                0x00000000       0x24 build/default/production/_ext/1108686962/sys_tmr.o
 .text.SYS_TMR_DelayStatusGet
                0x00000000       0x20 build/default/production/_ext/1108686962/sys_tmr.o
 .text          0x00000000        0x0 build/default/production/_ext/126554269/ipv4.o
 .data          0x00000000        0x0 build/default/production/_ext/126554269/ipv4.o
 .reginfo       0x00000000       0x18 build/default/production/_ext/126554269/ipv4.o
 .text.TCPIP_IPV4_PacketFilterSet
                0x00000000       0x44 build/default/production/_ext/126554269/ipv4.o
 .text.TCPIP_IPV4_PacketFilterClear
                0x00000000       0x48 build/default/production/_ext/126554269/ipv4.o
 .text.TCPIP_IPV4_PacketAlloc
                0x00000000       0xc4 build/default/production/_ext/126554269/ipv4.o
 .text.TCPIP_IPV4_PacketOptionFieldSet
                0x00000000       0x40 build/default/production/_ext/126554269/ipv4.o
 .text.TCPIP_IPV4_PacketOptionListGet
                0x00000000       0x90 build/default/production/_ext/126554269/ipv4.o
 .text.TCPIP_IPV4_PacketOptionGet
                0x00000000       0xd8 build/default/production/_ext/126554269/ipv4.o
 .text          0x00000000        0x0 build/default/production/_ext/126554269/tcp.o
 .data          0x00000000        0x0 build/default/production/_ext/126554269/tcp.o
 .bss           0x00000000        0x0 build/default/production/_ext/126554269/tcp.o
 .reginfo       0x00000000       0x18 build/default/production/_ext/126554269/tcp.o
 .text.TCPIP_TCP_SocketTraceSet
                0x00000000        0x8 build/default/production/_ext/126554269/tcp.o
 .text.TCPIP_TCP_ConnectionSetToMSS
                0x00000000       0x10 build/default/production/_ext/126554269/tcp.o
 .text.TCPIP_TCP_ClientOpen
                0x00000000       0x40 build/default/production/_ext/126554269/tcp.o
 .text.TCPIP_TCP_WasReset
                0x00000000       0x48 build/default/production/_ext/126554269/tcp.o
 .text.TCPIP_TCP_Disconnect
                0x00000000       0x3c build/default/production/_ext/126554269/tcp.o
 .text.TCPIP_TCP_Abort
                0x00000000       0x38 build/default/production/_ext/126554269/tcp.o
 .text.TCPIP_TCP_Connect
                0x00000000       0x60 build/default/production/_ext/126554269/tcp.o
 .text.TCPIP_TCP_Close
                0x00000000       0x78 build/default/production/_ext/126554269/tcp.o
 .text.TCPIP_TCP_SocketsNumberGet
                0x00000000        0x8 build/default/production/_ext/126554269/tcp.o
 .text.TCPIP_TCP_Flush
                0x00000000       0x4c build/default/production/_ext/126554269/tcp.o
 .text.TCPIP_TCP_PutIsReady
                0x00000000       0x40 build/default/production/_ext/126554269/tcp.o
 .text.TCPIP_TCP_Put
                0x00000000       0x24 build/default/production/_ext/126554269/tcp.o
 .text.TCPIP_TCP_StringPut
                0x00000000       0x48 build/default/production/_ext/126554269/tcp.o
 .text.TCPIP_TCP_FifoTxFullGet
                0x00000000       0x64 build/default/production/_ext/126554269/tcp.o
 .text.TCPIP_TCP_SocketInfoGet
                0x00000000       0xc0 build/default/production/_ext/126554269/tcp.o
 .text.TCPIP_TCP_FifoTxFreeGet
                0x00000000       0x50 build/default/production/_ext/126554269/tcp.o
 .text.TCPIP_TCP_Discard
                0x00000000       0x60 build/default/production/_ext/126554269/tcp.o
 .text.TCPIP_TCP_Get
                0x00000000       0x1c build/default/production/_ext/126554269/tcp.o
 .text.TCPIP_TCP_FifoRxFreeGet
                0x00000000       0x4c build/default/production/_ext/126554269/tcp.o
 .text.TCPIP_TCP_ArrayPeek
                0x00000000       0xe4 build/default/production/_ext/126554269/tcp.o
 .text.TCPIP_TCP_Peek
                0x00000000       0x28 build/default/production/_ext/126554269/tcp.o
 .text.TCPIP_TCP_ArrayFind
                0x00000000      0x398 build/default/production/_ext/126554269/tcp.o
 .text.TCPIP_TCP_Find
                0x00000000       0x38 build/default/production/_ext/126554269/tcp.o
 .text.TCPIP_TCP_FifoSizeAdjust
                0x00000000      0x4c4 build/default/production/_ext/126554269/tcp.o
 .text.TCPIP_TCP_SocketNetSet
                0x00000000       0x48 build/default/production/_ext/126554269/tcp.o
 .text.TCPIP_TCP_SocketNetGet
                0x00000000       0x28 build/default/production/_ext/126554269/tcp.o
 .text.TCPIP_TCP_Bind
                0x00000000      0x158 build/default/production/_ext/126554269/tcp.o
 .text.TCPIP_TCP_OptionsSet
                0x00000000      0x194 build/default/production/_ext/126554269/tcp.o
 .text.TCPIP_TCP_OptionsGet
                0x00000000      0x158 build/default/production/_ext/126554269/tcp.o
 .text.TCPIP_TCP_DestinationIPAddressSet
                0x00000000       0x98 build/default/production/_ext/126554269/tcp.o
 .text.TCPIP_TCP_RemoteBind
                0x00000000       0xac build/default/production/_ext/126554269/tcp.o
 .text.TCPIP_TCP_SourceIPAddressSet
                0x00000000       0x78 build/default/production/_ext/126554269/tcp.o
 .text.TCPIP_TCP_SignalHandlerRegister
                0x00000000       0x64 build/default/production/_ext/126554269/tcp.o
 .text.TCPIP_TCP_SignalHandlerDeregister
                0x00000000       0x48 build/default/production/_ext/126554269/tcp.o
 .text.TCPIP_TCP_IsReady
                0x00000000        0x8 build/default/production/_ext/126554269/tcp.o
 .text          0x00000000        0x0 build/default/production/_ext/126554269/udp.o
 .data          0x00000000        0x0 build/default/production/_ext/126554269/udp.o
 .bss           0x00000000        0x0 build/default/production/_ext/126554269/udp.o
 .reginfo       0x00000000       0x18 build/default/production/_ext/126554269/udp.o
 .text.TCPIP_UDP_IsConnected
                0x00000000       0x5c build/default/production/_ext/126554269/udp.o
 .text.TCPIP_UDP_Disconnect
                0x00000000       0xe4 build/default/production/_ext/126554269/udp.o
 .text.TCPIP_UDP_StringPut
                0x00000000       0x60 build/default/production/_ext/126554269/udp.o
 .text.TCPIP_UDP_TxCountGet
                0x00000000       0x54 build/default/production/_ext/126554269/udp.o
 .text.TCPIP_UDP_RxOffsetSet
                0x00000000       0x84 build/default/production/_ext/126554269/udp.o
 .text.TCPIP_UDP_SocketNetGet
                0x00000000       0x28 build/default/production/_ext/126554269/udp.o
 .text.TCPIP_UDP_DestinationPortSet
                0x00000000       0x48 build/default/production/_ext/126554269/udp.o
 .text.TCPIP_UDP_SetSplitPayload
                0x00000000       0xa8 build/default/production/_ext/126554269/udp.o
 .text.TCPIP_UDP_SignalHandlerDeregister
                0x00000000       0x48 build/default/production/_ext/126554269/udp.o
 .text.TCPIP_UDP_SocketsNumberGet
                0x00000000        0x8 build/default/production/_ext/126554269/udp.o
 .text          0x00000000        0x0 build/default/production/_ext/126554269/tcpip_heap_alloc.o
 .data          0x00000000        0x0 build/default/production/_ext/126554269/tcpip_heap_alloc.o
 .bss           0x00000000        0x0 build/default/production/_ext/126554269/tcpip_heap_alloc.o
 .reginfo       0x00000000       0x18 build/default/production/_ext/126554269/tcpip_heap_alloc.o
 .text._TCPIP_HEAP_PointerMapCached
                0x00000000       0x20 build/default/production/_ext/126554269/tcpip_heap_alloc.o
 .text          0x00000000        0x0 build/default/production/_ext/126554269/tcpip_heap_internal.o
 .data          0x00000000        0x0 build/default/production/_ext/126554269/tcpip_heap_internal.o
 .bss           0x00000000        0x0 build/default/production/_ext/126554269/tcpip_heap_internal.o
 .reginfo       0x00000000       0x18 build/default/production/_ext/126554269/tcpip_heap_internal.o
 .text          0x00000000        0x0 build/default/production/_ext/126554269/arp.o
 .data          0x00000000        0x0 build/default/production/_ext/126554269/arp.o
 .reginfo       0x00000000       0x18 build/default/production/_ext/126554269/arp.o
 .text.TCPIP_ARP_Resolve
                0x00000000       0x78 build/default/production/_ext/126554269/arp.o
 .text.TCPIP_ARP_EntrySet
                0x00000000      0x174 build/default/production/_ext/126554269/arp.o
 .text.TCPIP_ARP_EntryRemoveAll
                0x00000000       0xe8 build/default/production/_ext/126554269/arp.o
 .text.TCPIP_ARP_CacheThresholdSet
                0x00000000       0xa8 build/default/production/_ext/126554269/arp.o
 .text          0x00000000        0x0 build/default/production/_ext/126554269/dhcp.o
 .data          0x00000000        0x0 build/default/production/_ext/126554269/dhcp.o
 .reginfo       0x00000000       0x18 build/default/production/_ext/126554269/dhcp.o
 .text.TCPIP_DHCP_IsBound
                0x00000000       0x78 build/default/production/_ext/126554269/dhcp.o
 .text.TCPIP_DHCP_IsServerDetected
                0x00000000       0x78 build/default/production/_ext/126554269/dhcp.o
 .text.TCPIP_DHCP_RequestTimeoutSet
                0x00000000       0xa4 build/default/production/_ext/126554269/dhcp.o
 .text.TCPIP_DHCP_HostNameCallbackRegister
                0x00000000       0xa0 build/default/production/_ext/126554269/dhcp.o
 .text          0x00000000        0x0 build/default/production/_ext/126554269/dns.o
 .data          0x00000000        0x0 build/default/production/_ext/126554269/dns.o
 .reginfo       0x00000000       0x18 build/default/production/_ext/126554269/dns.o
 .text.TCPIP_DNS_Send_Query
                0x00000000       0x1c build/default/production/_ext/126554269/dns.o
 .text.TCPIP_DNS_IsNameResolved
                0x00000000       0x1c build/default/production/_ext/126554269/dns.o
 .text.TCPIP_DNS_IsEnabled
                0x00000000       0x24 build/default/production/_ext/126554269/dns.o
 .text          0x00000000        0x0 build/default/production/_ext/126554269/icmp.o
 .data          0x00000000        0x0 build/default/production/_ext/126554269/icmp.o
 .bss           0x00000000        0x0 build/default/production/_ext/126554269/icmp.o
 .reginfo       0x00000000       0x18 build/default/production/_ext/126554269/icmp.o
 .text          0x00000000        0x0 build/default/production/_ext/126554269/nbns.o
 .data          0x00000000        0x0 build/default/production/_ext/126554269/nbns.o
 .bss           0x00000000        0x0 build/default/production/_ext/126554269/nbns.o
 .reginfo       0x00000000       0x18 build/default/production/_ext/126554269/nbns.o
 .text          0x00000000        0x0 build/default/production/_ext/126554269/zero_conf_helper.o
 .data          0x00000000        0x0 build/default/production/_ext/126554269/zero_conf_helper.o
 .bss           0x00000000        0x0 build/default/production/_ext/126554269/zero_conf_helper.o
 .reginfo       0x00000000       0x18 build/default/production/_ext/126554269/zero_conf_helper.o
 .text          0x00000000        0x0 build/default/production/_ext/126554269/zero_conf_link_local.o
 .data          0x00000000        0x0 build/default/production/_ext/126554269/zero_conf_link_local.o
 .bss           0x00000000        0x0 build/default/production/_ext/126554269/zero_conf_link_local.o
 .reginfo       0x00000000       0x18 build/default/production/_ext/126554269/zero_conf_link_local.o
 .text.TCPIP_ZCLL_ARPAction
                0x00000000       0x24 build/default/production/_ext/126554269/zero_conf_link_local.o
 .text          0x00000000        0x0 build/default/production/_ext/126554269/tcpip_announce.o
 .data          0x00000000        0x0 build/default/production/_ext/126554269/tcpip_announce.o
 .bss           0x00000000        0x0 build/default/production/_ext/126554269/tcpip_announce.o
 .reginfo       0x00000000       0x18 build/default/production/_ext/126554269/tcpip_announce.o
 .text          0x00000000        0x0 build/default/production/_ext/126554269/tcpip_commands.o
 .data          0x00000000        0x0 build/default/production/_ext/126554269/tcpip_commands.o
 .reginfo       0x00000000       0x18 build/default/production/_ext/126554269/tcpip_commands.o
 .text          0x00000000        0x0 build/default/production/_ext/1551925347/helpers.o
 .data          0x00000000        0x0 build/default/production/_ext/1551925347/helpers.o
 .bss           0x00000000        0x0 build/default/production/_ext/1551925347/helpers.o
 .reginfo       0x00000000       0x18 build/default/production/_ext/1551925347/helpers.o
 .text.uitoa    0x00000000       0x90 build/default/production/_ext/1551925347/helpers.o
 .text.strncpy_m
                0x00000000       0xd8 build/default/production/_ext/1551925347/helpers.o
 .text          0x00000000        0x0 build/default/production/_ext/126554269/hash_fnv.o
 .data          0x00000000        0x0 build/default/production/_ext/126554269/hash_fnv.o
 .bss           0x00000000        0x0 build/default/production/_ext/126554269/hash_fnv.o
 .reginfo       0x00000000       0x18 build/default/production/_ext/126554269/hash_fnv.o
 .text.fnv_32a_hash
                0x00000000       0x5c build/default/production/_ext/126554269/hash_fnv.o
 .text          0x00000000        0x0 build/default/production/_ext/126554269/oahash.o
 .data          0x00000000        0x0 build/default/production/_ext/126554269/oahash.o
 .bss           0x00000000        0x0 build/default/production/_ext/126554269/oahash.o
 .reginfo       0x00000000       0x18 build/default/production/_ext/126554269/oahash.o
 .text          0x00000000        0x0 build/default/production/_ext/126554269/tcpip_helpers.o
 .data          0x00000000       0x28 build/default/production/_ext/126554269/tcpip_helpers.o
 .bss           0x00000000        0x0 build/default/production/_ext/126554269/tcpip_helpers.o
 .reginfo       0x00000000       0x18 build/default/production/_ext/126554269/tcpip_helpers.o
 .text._TCPIP_Helper_SecurePortEntry
                0x00000000       0x54 build/default/production/_ext/126554269/tcpip_helpers.o
 .text.TCPIP_Helper_IsPrivateAddress
                0x00000000       0x3c build/default/production/_ext/126554269/tcpip_helpers.o
 .text.TCPIP_Helper_Base64Decode
                0x00000000      0x1a4 build/default/production/_ext/126554269/tcpip_helpers.o
 .text.TCPIP_Helper_Base64Encode
                0x00000000      0x188 build/default/production/_ext/126554269/tcpip_helpers.o
 .text.TCPIP_Helper_FindCommonPrefix
                0x00000000       0xa0 build/default/production/_ext/126554269/tcpip_helpers.o
 .text.TCPIP_Helper_SingleListHeadAdd
                0x00000000       0x28 build/default/production/_ext/126554269/tcpip_helpers.o
 .text.TCPIP_Helper_SingleListMidAdd
                0x00000000       0x1c build/default/production/_ext/126554269/tcpip_helpers.o
 .text.TCPIP_Helper_SingleListNextRemove
                0x00000000       0x58 build/default/production/_ext/126554269/tcpip_helpers.o
 .text.TCPIP_Helper_SingleListFind
                0x00000000       0x48 build/default/production/_ext/126554269/tcpip_helpers.o
 .text.TCPIP_Helper_ProtectedSingleListHeadAdd
                0x00000000       0x60 build/default/production/_ext/126554269/tcpip_helpers.o
 .text.TCPIP_Helper_ProtectedSingleListMidAdd
                0x00000000       0x78 build/default/production/_ext/126554269/tcpip_helpers.o
 .text.TCPIP_Helper_ProtectedSingleListNextRemove
                0x00000000       0x70 build/default/production/_ext/126554269/tcpip_helpers.o
 .text.TCPIP_Helper_ProtectedSingleListAppend
                0x00000000       0x60 build/default/production/_ext/126554269/tcpip_helpers.o
 .text.TCPIP_Helper_DoubleListInitialize
                0x00000000       0x10 build/default/production/_ext/126554269/tcpip_helpers.o
 .text.TCPIP_Helper_DoubleListHeadAdd
                0x00000000       0x40 build/default/production/_ext/126554269/tcpip_helpers.o
 .text.TCPIP_Helper_DoubleListTailAdd
                0x00000000       0x44 build/default/production/_ext/126554269/tcpip_helpers.o
 .text.TCPIP_Helper_DoubleListMidAdd
                0x00000000       0x28 build/default/production/_ext/126554269/tcpip_helpers.o
 .text.TCPIP_Helper_DoubleListHeadRemove
                0x00000000       0x40 build/default/production/_ext/126554269/tcpip_helpers.o
 .text.TCPIP_Helper_DoubleListTailRemove
                0x00000000       0x40 build/default/production/_ext/126554269/tcpip_helpers.o
 .text.TCPIP_Helper_DoubleListMidRemove
                0x00000000       0x28 build/default/production/_ext/126554269/tcpip_helpers.o
 .text.TCPIP_Helper_DoubleListNodeRemove
                0x00000000       0x50 build/default/production/_ext/126554269/tcpip_helpers.o
 .text.TCPIP_Helper_DoubleListFind
                0x00000000       0x48 build/default/production/_ext/126554269/tcpip_helpers.o
 .text.TCPIP_Helper_ProtectedDoubleListInitialize
                0x00000000       0x4c build/default/production/_ext/126554269/tcpip_helpers.o
 .text.TCPIP_Helper_ProtectedDoubleListDeinitialize
                0x00000000       0x68 build/default/production/_ext/126554269/tcpip_helpers.o
 .text.TCPIP_Helper_ProtectedDoubleListHeadAdd
                0x00000000       0x60 build/default/production/_ext/126554269/tcpip_helpers.o
 .text.TCPIP_Helper_ProtectedDoubleListTailAdd
                0x00000000       0x60 build/default/production/_ext/126554269/tcpip_helpers.o
 .text.TCPIP_Helper_ProtectedDoubleListMidAdd
                0x00000000       0x70 build/default/production/_ext/126554269/tcpip_helpers.o
 .text.TCPIP_Helper_ProtectedDoubleListHeadRemove
                0x00000000       0x60 build/default/production/_ext/126554269/tcpip_helpers.o
 .text.TCPIP_Helper_ProtectedDoubleListTailRemove
                0x00000000       0x60 build/default/production/_ext/126554269/tcpip_helpers.o
 .text.TCPIP_Helper_ProtectedDoubleListMidRemove
                0x00000000       0x60 build/default/production/_ext/126554269/tcpip_helpers.o
 .text.TCPIP_Helper_ProtectedDoubleListNodeRemove
                0x00000000       0x60 build/default/production/_ext/126554269/tcpip_helpers.o
 .text.TCPIP_Helper_ProtectedDoubleListRemoveAll
                0x00000000       0x58 build/default/production/_ext/126554269/tcpip_helpers.o
 .text.TCPIP_Helper_ProtectedDoubleListLock
                0x00000000       0x2c build/default/production/_ext/126554269/tcpip_helpers.o
 .text.TCPIP_Helper_ProtectedDoubleListUnlock
                0x00000000       0x2c build/default/production/_ext/126554269/tcpip_helpers.o
 .text.TCPIP_Helper_TCPSecurePortGet
                0x00000000       0x2c build/default/production/_ext/126554269/tcpip_helpers.o
 .text.TCPIP_Helper_UDPSecurePortGet
                0x00000000       0x2c build/default/production/_ext/126554269/tcpip_helpers.o
 .text.TCPIP_Helper_SecurePortGetByIndex
                0x00000000       0x60 build/default/production/_ext/126554269/tcpip_helpers.o
 .text.TCPIP_Helper_SecurePortSet
                0x00000000       0xc0 build/default/production/_ext/126554269/tcpip_helpers.o
 .data          0x00000000        0x0 build/default/production/_ext/126554269/tcpip_helper_c32.o
 .bss           0x00000000        0x0 build/default/production/_ext/126554269/tcpip_helper_c32.o
 .reginfo       0x00000000       0x18 build/default/production/_ext/126554269/tcpip_helper_c32.o
 .text          0x00000000        0x0 build/default/production/_ext/126554269/tcpip_manager.o
 .data          0x00000000        0x0 build/default/production/_ext/126554269/tcpip_manager.o
 .reginfo       0x00000000       0x18 build/default/production/_ext/126554269/tcpip_manager.o
 .text.TCPIP_STACK_NetMulticastGet
                0x00000000        0x8 build/default/production/_ext/126554269/tcpip_manager.o
 .text.TCPIP_STACK_NetMulticastSet
                0x00000000        0x8 build/default/production/_ext/126554269/tcpip_manager.o
 .text.TCPIP_STACK_MacToNet
                0x00000000       0x4c build/default/production/_ext/126554269/tcpip_manager.o
 .text.TCPIP_STACK_MacToNetIndex
                0x00000000       0x54 build/default/production/_ext/126554269/tcpip_manager.o
 .text.TCPIP_STACK_MACObjectGet
                0x00000000       0x18 build/default/production/_ext/126554269/tcpip_manager.o
 .text.TCPIP_STACK_NetAddressDnsSecond
                0x00000000       0x28 build/default/production/_ext/126554269/tcpip_manager.o
 .text.TCPIP_STACK_NetAddressDnsSecondSet
                0x00000000       0x30 build/default/production/_ext/126554269/tcpip_manager.o
 .text.TCPIP_STACK_SetLocalMasksType
                0x00000000       0x38 build/default/production/_ext/126554269/tcpip_manager.o
 .text.TCPIP_STACK_SetLocalMasks
                0x00000000       0x30 build/default/production/_ext/126554269/tcpip_manager.o
 .text.TCPIP_STACK_NetMACIdGet
                0x00000000       0x28 build/default/production/_ext/126554269/tcpip_manager.o
 .text.TCPIP_STACK_ModuleConfigGet
                0x00000000       0x74 build/default/production/_ext/126554269/tcpip_manager.o
 .text.TCPIP_STACK_EventsPendingGet
                0x00000000       0x4c build/default/production/_ext/126554269/tcpip_manager.o
 .text.TCPIP_STACK_NetStaticIPv6AddressGet
                0x00000000        0x8 build/default/production/_ext/126554269/tcpip_manager.o
 .text.TCPIP_STACK_NetDefaultIPv6GatewayGet
                0x00000000        0x8 build/default/production/_ext/126554269/tcpip_manager.o
 .text.TCPIP_STACK_AddressIsOfNetUp
                0x00000000       0x54 build/default/production/_ext/126554269/tcpip_manager.o
 .text.TCPIP_STACK_NetMACId
                0x00000000       0x18 build/default/production/_ext/126554269/tcpip_manager.o
 .text.TCPIP_STACK_NetToMAC
                0x00000000       0x18 build/default/production/_ext/126554269/tcpip_manager.o
 .text.TCPIP_STACK_VersionGet
                0x00000000        0xc build/default/production/_ext/126554269/tcpip_manager.o
 .text.TCPIP_STACK_VersionStrGet
                0x00000000        0xc build/default/production/_ext/126554269/tcpip_manager.o
 .text.TCPIP_MODULE_SignalFunctionRegister
                0x00000000       0x84 build/default/production/_ext/126554269/tcpip_manager.o
 .text.TCPIP_MODULE_SignalFunctionDeregister
                0x00000000       0x1c build/default/production/_ext/126554269/tcpip_manager.o
 .text.TCPIP_MODULE_SignalGet
                0x00000000       0x50 build/default/production/_ext/126554269/tcpip_manager.o
 .text.TCPIP_STACK_HEAP_Size
                0x00000000       0x34 build/default/production/_ext/126554269/tcpip_manager.o
 .text.TCPIP_STACK_HEAP_MaxSize
                0x00000000       0x34 build/default/production/_ext/126554269/tcpip_manager.o
 .text.TCPIP_STACK_HEAP_FreeSize
                0x00000000       0x34 build/default/production/_ext/126554269/tcpip_manager.o
 .text.TCPIP_STACK_HEAP_LastError
                0x00000000       0x34 build/default/production/_ext/126554269/tcpip_manager.o
 .text._TCPIPStackHeapConfig
                0x00000000        0xc build/default/production/_ext/126554269/tcpip_manager.o
 .text          0x00000000        0x0 build/default/production/_ext/126554269/tcpip_notify.o
 .data          0x00000000        0x0 build/default/production/_ext/126554269/tcpip_notify.o
 .bss           0x00000000        0x0 build/default/production/_ext/126554269/tcpip_notify.o
 .reginfo       0x00000000       0x18 build/default/production/_ext/126554269/tcpip_notify.o
 .text          0x00000000        0x0 build/default/production/_ext/126554269/tcpip_packet.o
 .data          0x00000000        0x0 build/default/production/_ext/126554269/tcpip_packet.o
 .bss           0x00000000        0x0 build/default/production/_ext/126554269/tcpip_packet.o
 .reginfo       0x00000000       0x18 build/default/production/_ext/126554269/tcpip_packet.o
 .text.TCPIP_PKT_SegmentAlloc
                0x00000000       0xb0 build/default/production/_ext/126554269/tcpip_packet.o
 .text.TCPIP_PKT_SegmentAppend
                0x00000000       0x30 build/default/production/_ext/126554269/tcpip_packet.o
 .text.TCPIP_PKT_SegmentFree
                0x00000000       0x48 build/default/production/_ext/126554269/tcpip_packet.o
 .text          0x00000000        0x0 build/default/production/_ext/1808430591/croutine.o
 .data          0x00000000        0x0 build/default/production/_ext/1808430591/croutine.o
 .bss           0x00000000        0x0 build/default/production/_ext/1808430591/croutine.o
 .reginfo       0x00000000       0x18 build/default/production/_ext/1808430591/croutine.o
 .text          0x00000000        0x0 build/default/production/_ext/1808430591/list.o
 .data          0x00000000        0x0 build/default/production/_ext/1808430591/list.o
 .bss           0x00000000        0x0 build/default/production/_ext/1808430591/list.o
 .reginfo       0x00000000       0x18 build/default/production/_ext/1808430591/list.o
 .text          0x00000000        0x0 build/default/production/_ext/1808430591/queue.o
 .data          0x00000000        0x0 build/default/production/_ext/1808430591/queue.o
 .bss           0x00000000        0x0 build/default/production/_ext/1808430591/queue.o
 .reginfo       0x00000000       0x18 build/default/production/_ext/1808430591/queue.o
 .text.xQueueGenericSendFromISR
                0x00000000       0xf0 build/default/production/_ext/1808430591/queue.o
 .text.xQueueReceiveFromISR
                0x00000000       0xe0 build/default/production/_ext/1808430591/queue.o
 .text.xQueuePeekFromISR
                0x00000000       0x74 build/default/production/_ext/1808430591/queue.o
 .text.uxQueueMessagesWaiting
                0x00000000       0x34 build/default/production/_ext/1808430591/queue.o
 .text.uxQueueSpacesAvailable
                0x00000000       0x38 build/default/production/_ext/1808430591/queue.o
 .text.uxQueueMessagesWaitingFromISR
                0x00000000        0xc build/default/production/_ext/1808430591/queue.o
 .text.xQueueIsQueueEmptyFromISR
                0x00000000        0xc build/default/production/_ext/1808430591/queue.o
 .text.xQueueIsQueueFullFromISR
                0x00000000       0x14 build/default/production/_ext/1808430591/queue.o
 .text          0x00000000        0x0 build/default/production/_ext/1808430591/tasks.o
 .data          0x00000000        0x0 build/default/production/_ext/1808430591/tasks.o
 .reginfo       0x00000000       0x18 build/default/production/_ext/1808430591/tasks.o
 .text.prvTaskIsTaskSuspended
                0x00000000       0x38 build/default/production/_ext/1808430591/tasks.o
 .text.uxTaskPriorityGetFromISR
                0x00000000       0x3c build/default/production/_ext/1808430591/tasks.o
 .text.xTaskResumeFromISR
                0x00000000       0xd8 build/default/production/_ext/1808430591/tasks.o
 .text.vTaskEndScheduler
                0x00000000       0x34 build/default/production/_ext/1808430591/tasks.o
 .text.xTaskGetTickCount
                0x00000000        0xc build/default/production/_ext/1808430591/tasks.o
 .text.xTaskGetTickCountFromISR
                0x00000000        0xc build/default/production/_ext/1808430591/tasks.o
 .text.uxTaskGetNumberOfTasks
                0x00000000        0xc build/default/production/_ext/1808430591/tasks.o
 .text.pcTaskGetName
                0x00000000       0x10 build/default/production/_ext/1808430591/tasks.o
 .text.vTaskPlaceOnUnorderedEventList
                0x00000000       0x48 build/default/production/_ext/1808430591/tasks.o
 .text.xTaskRemoveFromUnorderedEventList
                0x00000000       0x9c build/default/production/_ext/1808430591/tasks.o
 .text.xTaskGetCurrentTaskHandle
                0x00000000        0xc build/default/production/_ext/1808430591/tasks.o
 .text.uxTaskPriorityGet
                0x00000000       0x38 build/default/production/_ext/1808430591/tasks.o
 .text.vTaskPrioritySet
                0x00000000      0x15c build/default/production/_ext/1808430591/tasks.o
 .text.vTaskSuspend
                0x00000000      0x12c build/default/production/_ext/1808430591/tasks.o
 .text.vTaskResume
                0x00000000       0xc0 build/default/production/_ext/1808430591/tasks.o
 .text.vTaskDelayUntil
                0x00000000       0xa8 build/default/production/_ext/1808430591/tasks.o
 .text.uxTaskResetEventItemValue
                0x00000000       0x24 build/default/production/_ext/1808430591/tasks.o
 .text.ulTaskNotifyTake
                0x00000000       0xc4 build/default/production/_ext/1808430591/tasks.o
 .text.xTaskNotifyWait
                0x00000000      0x108 build/default/production/_ext/1808430591/tasks.o
 .text.xTaskGenericNotify
                0x00000000      0x170 build/default/production/_ext/1808430591/tasks.o
 .text.xTaskGenericNotifyFromISR
                0x00000000      0x1a8 build/default/production/_ext/1808430591/tasks.o
 .text.vTaskNotifyGiveFromISR
                0x00000000      0x104 build/default/production/_ext/1808430591/tasks.o
 .text.xTaskNotifyStateClear
                0x00000000       0x60 build/default/production/_ext/1808430591/tasks.o
 .text          0x00000000        0x0 build/default/production/_ext/1808430591/timers.o
 .data          0x00000000        0x0 build/default/production/_ext/1808430591/timers.o
 .bss           0x00000000        0x0 build/default/production/_ext/1808430591/timers.o
 .reginfo       0x00000000       0x18 build/default/production/_ext/1808430591/timers.o
 .text          0x00000000        0x0 build/default/production/_ext/1808430591/event_groups.o
 .data          0x00000000        0x0 build/default/production/_ext/1808430591/event_groups.o
 .bss           0x00000000        0x0 build/default/production/_ext/1808430591/event_groups.o
 .reginfo       0x00000000       0x18 build/default/production/_ext/1808430591/event_groups.o
 .text.xEventGroupCreate
                0x00000000       0x3c build/default/production/_ext/1808430591/event_groups.o
 .text.xEventGroupWaitBits
                0x00000000      0x148 build/default/production/_ext/1808430591/event_groups.o
 .text.xEventGroupClearBits
                0x00000000       0x50 build/default/production/_ext/1808430591/event_groups.o
 .text.xEventGroupGetBitsFromISR
                0x00000000       0x34 build/default/production/_ext/1808430591/event_groups.o
 .text.xEventGroupSetBits
                0x00000000       0xfc build/default/production/_ext/1808430591/event_groups.o
 .text.xEventGroupSync
                0x00000000      0x110 build/default/production/_ext/1808430591/event_groups.o
 .text.vEventGroupDelete
                0x00000000       0x58 build/default/production/_ext/1808430591/event_groups.o
 .text.vEventGroupSetBitsCallback
                0x00000000       0x1c build/default/production/_ext/1808430591/event_groups.o
 .text.vEventGroupClearBitsCallback
                0x00000000       0x1c build/default/production/_ext/1808430591/event_groups.o
 .text          0x00000000        0x0 build/default/production/_ext/508667646/heap_2.o
 .data          0x00000000        0x0 build/default/production/_ext/508667646/heap_2.o
 .reginfo       0x00000000       0x18 build/default/production/_ext/508667646/heap_2.o
 .text.xPortGetFreeHeapSize
                0x00000000        0x8 build/default/production/_ext/508667646/heap_2.o
 .text.vPortInitialiseBlocks
                0x00000000        0x8 build/default/production/_ext/508667646/heap_2.o
 .text          0x00000000        0x0 build/default/production/_ext/417601773/port.o
 .data          0x00000000        0x0 build/default/production/_ext/417601773/port.o
 .reginfo       0x00000000       0x18 build/default/production/_ext/417601773/port.o
 .text.vPortEndScheduler
                0x00000000        0x8 build/default/production/_ext/417601773/port.o
 .data          0x00000000        0x0 build/default/production/_ext/417601773/port_asm.o
 .bss           0x00000000        0x0 build/default/production/_ext/417601773/port_asm.o
 .reginfo       0x00000000       0x18 build/default/production/_ext/417601773/port_asm.o
 .text          0x00000000        0x0 build/default/production/_ext/1360937237/wnetcom.o
 .reginfo       0x00000000       0x18 build/default/production/_ext/1360937237/wnetcom.o
 .text          0x00000000        0x0 build/default/production/_ext/977502197/drv_spi_tasks.o
 .data          0x00000000        0x0 build/default/production/_ext/977502197/drv_spi_tasks.o
 .bss           0x00000000        0x0 build/default/production/_ext/977502197/drv_spi_tasks.o
 .reginfo       0x00000000       0x18 build/default/production/_ext/977502197/drv_spi_tasks.o
 .text          0x00000000        0x0 build/default/production/_ext/977502197/drv_spi_api.o
 .data          0x00000000        0x0 build/default/production/_ext/977502197/drv_spi_api.o
 .bss           0x00000000        0x0 build/default/production/_ext/977502197/drv_spi_api.o
 .reginfo       0x00000000       0x18 build/default/production/_ext/977502197/drv_spi_api.o
 .text          0x00000000        0x0 build/default/production/_ext/977502197/drv_spi_master_ebm_tasks.o
 .data          0x00000000        0x0 build/default/production/_ext/977502197/drv_spi_master_ebm_tasks.o
 .bss           0x00000000        0x0 build/default/production/_ext/977502197/drv_spi_master_ebm_tasks.o
 .reginfo       0x00000000       0x18 build/default/production/_ext/977502197/drv_spi_master_ebm_tasks.o
 .text          0x00000000        0x0 build/default/production/_ext/977502197/drv_spi_master_dma_tasks.o
 .data          0x00000000        0x0 build/default/production/_ext/977502197/drv_spi_master_dma_tasks.o
 .bss           0x00000000        0x0 build/default/production/_ext/977502197/drv_spi_master_dma_tasks.o
 .reginfo       0x00000000       0x18 build/default/production/_ext/977502197/drv_spi_master_dma_tasks.o
 .text          0x00000000        0x0 build/default/production/_ext/639803181/sys_clk.o
 .data          0x00000000        0x0 build/default/production/_ext/639803181/sys_clk.o
 .bss           0x00000000        0x0 build/default/production/_ext/639803181/sys_clk.o
 .reginfo       0x00000000       0x18 build/default/production/_ext/639803181/sys_clk.o
 .text.SYS_CLK_ClockFailureCallbackRegister
                0x00000000        0xc build/default/production/_ext/639803181/sys_clk.o
 .text.SYS_CLK_SystemFrequencySet
                0x00000000       0x40 build/default/production/_ext/639803181/sys_clk.o
 .text.SYS_CLK_PeripheralFrequencySet
                0x00000000       0x84 build/default/production/_ext/639803181/sys_clk.o
 .text.SYS_CLK_ReferenceFrequencySet
                0x00000000       0x84 build/default/production/_ext/639803181/sys_clk.o
 .text.SYS_CLK_TaskError
                0x00000000       0x38 build/default/production/_ext/639803181/sys_clk.o
 .text.SYS_CLK_ReferenceClockSetup
                0x00000000       0x1c build/default/production/_ext/639803181/sys_clk.o
 .text.SYS_CLK_FRCTune
                0x00000000       0x18 build/default/production/_ext/639803181/sys_clk.o
 .text.SYS_CLK_SecondaryOscillatorDisable
                0x00000000       0x48 build/default/production/_ext/639803181/sys_clk.o
 .text.SYS_CLK_SecondaryOscillatorIsEnabled
                0x00000000       0x10 build/default/production/_ext/639803181/sys_clk.o
 .text          0x00000000        0x0 build/default/production/_ext/639803181/sys_clk_pic32mz.o
 .data          0x00000000        0x0 build/default/production/_ext/639803181/sys_clk_pic32mz.o
 .bss           0x00000000        0x0 build/default/production/_ext/639803181/sys_clk_pic32mz.o
 .reginfo       0x00000000       0x18 build/default/production/_ext/639803181/sys_clk_pic32mz.o
 .text._SYS_CLK_GetOscPeripheralBus
                0x00000000        0x8 build/default/production/_ext/639803181/sys_clk_pic32mz.o
 .text._SYS_CLK_PLLInputDividerRead
                0x00000000       0x14 build/default/production/_ext/639803181/sys_clk_pic32mz.o
 .text._SYS_CLK_PLLMultiplierRead
                0x00000000       0x14 build/default/production/_ext/639803181/sys_clk_pic32mz.o
 .text._SYS_CLK_PLLOutputDividerRead
                0x00000000       0x34 build/default/production/_ext/639803181/sys_clk_pic32mz.o
 .text._SYS_CLK_SystemClockRead
                0x00000000      0x1e8 build/default/production/_ext/639803181/sys_clk_pic32mz.o
 .text._SYS_CLK_PeripheralFrequencySet
                0x00000000      0x188 build/default/production/_ext/639803181/sys_clk_pic32mz.o
 .text.SYS_CLK_ClosestFactorsGet
                0x00000000       0xa0 build/default/production/_ext/639803181/sys_clk_pic32mz.o
 .text.SYS_CLK_FRCClosestDivisorGet
                0x00000000       0x84 build/default/production/_ext/639803181/sys_clk_pic32mz.o
 .text.SYS_CLK_FrequencyErrorCheck
                0x00000000       0x18 build/default/production/_ext/639803181/sys_clk_pic32mz.o
 .text.SYS_CLK_SystemClockSourceSwitch
                0x00000000      0x190 build/default/production/_ext/639803181/sys_clk_pic32mz.o
 .text._SYS_CLK_SystemClockSet
                0x00000000      0x18c build/default/production/_ext/639803181/sys_clk_pic32mz.o
 .text._SYS_CLK_ReferenceFrequencySet
                0x00000000      0x458 build/default/production/_ext/639803181/sys_clk_pic32mz.o
 .text._SYS_CLK_ReferenceClockSetup
                0x00000000       0x90 build/default/production/_ext/639803181/sys_clk_pic32mz.o
 .rodata        0x00000000       0x14 build/default/production/_ext/639803181/sys_clk_pic32mz.o
 .text          0x00000000        0x0 build/default/production/_ext/340578644/sys_devcon.o
 .data          0x00000000        0x0 build/default/production/_ext/340578644/sys_devcon.o
 .bss           0x00000000        0x0 build/default/production/_ext/340578644/sys_devcon.o
 .reginfo       0x00000000       0x18 build/default/production/_ext/340578644/sys_devcon.o
 .text.SYS_DEVCON_Reinitialize
                0x00000000       0x10 build/default/production/_ext/340578644/sys_devcon.o
 .text.SYS_DEVCON_Deinitialize
                0x00000000        0x8 build/default/production/_ext/340578644/sys_devcon.o
 .text.SYS_DEVCON_Status
                0x00000000        0x8 build/default/production/_ext/340578644/sys_devcon.o
 .text.SYS_DEVCON_Tasks
                0x00000000        0x8 build/default/production/_ext/340578644/sys_devcon.o
 .text.SYS_DEVCON_JTAGEnable
                0x00000000       0x18 build/default/production/_ext/340578644/sys_devcon.o
 .text.SYS_DEVCON_JTAGDisable
                0x00000000       0x18 build/default/production/_ext/340578644/sys_devcon.o
 .text.SYS_DEVCON_TraceEnable
                0x00000000       0x1c build/default/production/_ext/340578644/sys_devcon.o
 .text.SYS_DEVCON_TraceDisable
                0x00000000       0x18 build/default/production/_ext/340578644/sys_devcon.o
 .text.SYS_DEVCON_PowerModeEnter
                0x00000000       0x44 build/default/production/_ext/340578644/sys_devcon.o
 .text          0x00000000        0x0 build/default/production/_ext/340578644/sys_devcon_pic32mz.o
 .data          0x00000000        0x0 build/default/production/_ext/340578644/sys_devcon_pic32mz.o
 .bss           0x00000000        0x0 build/default/production/_ext/340578644/sys_devcon_pic32mz.o
 .reginfo       0x00000000       0x18 build/default/production/_ext/340578644/sys_devcon_pic32mz.o
 .text.SYS_DEVCON_CacheInit
                0x00000000       0x24 build/default/production/_ext/340578644/sys_devcon_pic32mz.o
 .text.SYS_DEVCON_CacheFlush
                0x00000000       0x24 build/default/production/_ext/340578644/sys_devcon_pic32mz.o
 .text.SYS_DEVCON_DataCacheFlush
                0x00000000       0x24 build/default/production/_ext/340578644/sys_devcon_pic32mz.o
 .text.SYS_DEVCON_InstructionCacheFlush
                0x00000000       0x24 build/default/production/_ext/340578644/sys_devcon_pic32mz.o
 .text.SYS_DEVCON_CacheClean
                0x00000000       0x24 build/default/production/_ext/340578644/sys_devcon_pic32mz.o
 .text.SYS_DEVCON_DataCacheInvalidate
                0x00000000       0x24 build/default/production/_ext/340578644/sys_devcon_pic32mz.o
 .text.SYS_DEVCON_InstructionCacheInvalidate
                0x00000000       0x24 build/default/production/_ext/340578644/sys_devcon_pic32mz.o
 .text.SYS_DEVCON_InstructionCacheLock
                0x00000000       0x24 build/default/production/_ext/340578644/sys_devcon_pic32mz.o
 .text.SYS_DEVCON_DataCacheLock
                0x00000000       0x24 build/default/production/_ext/340578644/sys_devcon_pic32mz.o
 .text.SYS_DEVCON_CacheSync
                0x00000000       0x24 build/default/production/_ext/340578644/sys_devcon_pic32mz.o
 .text.SYS_DEVCON_CacheCoherencySet
                0x00000000       0x28 build/default/production/_ext/340578644/sys_devcon_pic32mz.o
 .text.SYS_DEVCON_CacheCoherencyGet
                0x00000000       0x1c build/default/production/_ext/340578644/sys_devcon_pic32mz.o
 .text.SYS_DEVCON_DataCacheAssociativityGet
                0x00000000       0x24 build/default/production/_ext/340578644/sys_devcon_pic32mz.o
 .text.SYS_DEVCON_InstructionCacheAssociativityGet
                0x00000000       0x24 build/default/production/_ext/340578644/sys_devcon_pic32mz.o
 .text.SYS_DEVCON_DataCacheLineSizeGet
                0x00000000       0x24 build/default/production/_ext/340578644/sys_devcon_pic32mz.o
 .text.SYS_DEVCON_InstructionCacheLineSizeGet
                0x00000000       0x24 build/default/production/_ext/340578644/sys_devcon_pic32mz.o
 .text.SYS_DEVCON_DataCacheLinesPerWayGet
                0x00000000       0x24 build/default/production/_ext/340578644/sys_devcon_pic32mz.o
 .text.SYS_DEVCON_InstructionCacheLinesPerWayGet
                0x00000000       0x24 build/default/production/_ext/340578644/sys_devcon_pic32mz.o
 .text.SYS_DEVCON_DataCacheSizeGet
                0x00000000       0x24 build/default/production/_ext/340578644/sys_devcon_pic32mz.o
 .text.SYS_DEVCON_InstructionCacheSizeGet
                0x00000000       0x24 build/default/production/_ext/340578644/sys_devcon_pic32mz.o
 .data          0x00000000        0x0 build/default/production/_ext/340578644/sys_devcon_cache_pic32mz.o
 .bss           0x00000000        0x0 build/default/production/_ext/340578644/sys_devcon_cache_pic32mz.o
 .reginfo       0x00000000       0x18 build/default/production/_ext/340578644/sys_devcon_cache_pic32mz.o
 .text          0x00000000        0x0 build/default/production/_ext/822048611/sys_ports_static.o
 .data          0x00000000        0x0 build/default/production/_ext/822048611/sys_ports_static.o
 .bss           0x00000000        0x0 build/default/production/_ext/822048611/sys_ports_static.o
 .reginfo       0x00000000       0x18 build/default/production/_ext/822048611/sys_ports_static.o
 .text.SYS_PORTS_Read
                0x00000000       0x24 build/default/production/_ext/822048611/sys_ports_static.o
 .text.SYS_PORTS_Write
                0x00000000       0x28 build/default/production/_ext/822048611/sys_ports_static.o
 .text.SYS_PORTS_Set
                0x00000000       0x2c build/default/production/_ext/822048611/sys_ports_static.o
 .text.SYS_PORTS_Clear
                0x00000000       0x28 build/default/production/_ext/822048611/sys_ports_static.o
 .text.SYS_PORTS_DirectionSelect
                0x00000000       0x54 build/default/production/_ext/822048611/sys_ports_static.o
 .text.SYS_PORTS_DirectionGet
                0x00000000       0x24 build/default/production/_ext/822048611/sys_ports_static.o
 .text.SYS_PORTS_Toggle
                0x00000000       0x28 build/default/production/_ext/822048611/sys_ports_static.o
 .text.SYS_PORTS_OpenDrainEnable
                0x00000000       0x28 build/default/production/_ext/822048611/sys_ports_static.o
 .text.SYS_PORTS_OpenDrainDisable
                0x00000000       0x28 build/default/production/_ext/822048611/sys_ports_static.o
 .text.SYS_PORTS_ChangeNotificationGlobalEnable
                0x00000000        0x8 build/default/production/_ext/822048611/sys_ports_static.o
 .text.SYS_PORTS_ChangeNotificationGlobalDisable
                0x00000000        0x8 build/default/production/_ext/822048611/sys_ports_static.o
 .text.SYS_PORTS_GlobalChangeNotificationDisable
                0x00000000        0x8 build/default/production/_ext/822048611/sys_ports_static.o
 .text.SYS_PORTS_ChangeNotificationEnable
                0x00000000        0x8 build/default/production/_ext/822048611/sys_ports_static.o
 .text.SYS_PORTS_ChangeNotificationDisable
                0x00000000        0x8 build/default/production/_ext/822048611/sys_ports_static.o
 .text.SYS_PORTS_ChangeNotificationInIdleModeEnable
                0x00000000        0x8 build/default/production/_ext/822048611/sys_ports_static.o
 .text.SYS_PORTS_ChangeNotificationInIdleModeDisable
                0x00000000        0x8 build/default/production/_ext/822048611/sys_ports_static.o
 .text.SYS_PORTS_ChangeNotificationPullUpEnable
                0x00000000        0x8 build/default/production/_ext/822048611/sys_ports_static.o
 .text.SYS_PORTS_ChangeNotificationPullUpDisable
                0x00000000        0x8 build/default/production/_ext/822048611/sys_ports_static.o
 .text.SYS_PORTS_PinModeSelect
                0x00000000       0x64 build/default/production/_ext/822048611/sys_ports_static.o
 .text.SYS_PORTS_PinToggle
                0x00000000       0x30 build/default/production/_ext/822048611/sys_ports_static.o
 .text.SYS_PORTS_PinDirectionSelect
                0x00000000       0x60 build/default/production/_ext/822048611/sys_ports_static.o
 .text.SYS_PORTS_PinOpenDrainEnable
                0x00000000       0x30 build/default/production/_ext/822048611/sys_ports_static.o
 .text.SYS_PORTS_PinOpenDrainDisable
                0x00000000       0x30 build/default/production/_ext/822048611/sys_ports_static.o
 .text.SYS_PORTS_RemapInput
                0x00000000       0x5c build/default/production/_ext/822048611/sys_ports_static.o
 .text.SYS_PORTS_RemapOutput
                0x00000000       0x68 build/default/production/_ext/822048611/sys_ports_static.o
 .text          0x00000000        0x0 build/default/production/_ext/1688732426/system_init.o
 .bss           0x00000000        0x0 build/default/production/_ext/1688732426/system_init.o
 .reginfo       0x00000000       0x18 build/default/production/_ext/1688732426/system_init.o
 .text          0x00000000        0x0 build/default/production/_ext/1688732426/system_interrupt.o
 .data          0x00000000        0x0 build/default/production/_ext/1688732426/system_interrupt.o
 .bss           0x00000000        0x0 build/default/production/_ext/1688732426/system_interrupt.o
 .reginfo       0x00000000       0x18 build/default/production/_ext/1688732426/system_interrupt.o
 .text          0x00000000        0x0 build/default/production/_ext/1688732426/system_exceptions.o
 .data          0x00000000        0x0 build/default/production/_ext/1688732426/system_exceptions.o
 .bss           0x00000000        0x0 build/default/production/_ext/1688732426/system_exceptions.o
 .reginfo       0x00000000       0x18 build/default/production/_ext/1688732426/system_exceptions.o
 .text          0x00000000        0x0 build/default/production/_ext/1360937237/main.o
 .data          0x00000000        0x0 build/default/production/_ext/1360937237/main.o
 .bss           0x00000000        0x0 build/default/production/_ext/1360937237/main.o
 .reginfo       0x00000000       0x18 build/default/production/_ext/1360937237/main.o
 .text          0x00000000        0x0 build/default/production/_ext/1688732426/system_tasks.o
 .data          0x00000000        0x0 build/default/production/_ext/1688732426/system_tasks.o
 .bss           0x00000000        0x0 build/default/production/_ext/1688732426/system_tasks.o
 .reginfo       0x00000000       0x18 build/default/production/_ext/1688732426/system_tasks.o
 .text          0x00000000        0x0 build/default/production/_ext/1688732426/system_interrupt_a.o
 .data          0x00000000        0x0 build/default/production/_ext/1688732426/system_interrupt_a.o
 .bss           0x00000000        0x0 build/default/production/_ext/1688732426/system_interrupt_a.o
 .reginfo       0x00000000       0x18 build/default/production/_ext/1688732426/system_interrupt_a.o
 .text          0x00000000        0x0 build/default/production/_ext/1688732426/rtos_hooks.o
 .data          0x00000000        0x0 build/default/production/_ext/1688732426/rtos_hooks.o
 .bss           0x00000000        0x0 build/default/production/_ext/1688732426/rtos_hooks.o
 .reginfo       0x00000000       0x18 build/default/production/_ext/1688732426/rtos_hooks.o
 .text          0x00000000        0x0 C:\Users\KIKI\AppData\Local\Temp\ccW6W84J.o
 .data          0x00000000        0x0 C:\Users\KIKI\AppData\Local\Temp\ccW6W84J.o
 .bss           0x00000000        0x0 C:\Users\KIKI\AppData\Local\Temp\ccW6W84J.o
 .reginfo       0x00000000       0x18 C:\Users\KIKI\AppData\Local\Temp\ccW6W84J.o
 .text          0x00000000        0x0 C:\Users\KIKI\AppData\Local\Temp\ccpylwu5.o
 .data          0x00000000        0x0 C:\Users\KIKI\AppData\Local\Temp\ccpylwu5.o
 .bss           0x00000000        0x0 C:\Users\KIKI\AppData\Local\Temp\ccpylwu5.o
 .reginfo       0x00000000       0x18 C:\Users\KIKI\AppData\Local\Temp\ccpylwu5.o
 .text          0x00000000        0x0 C:\Users\KIKI\AppData\Local\Temp\ccivBgIW.o
 .data          0x00000000        0x0 C:\Users\KIKI\AppData\Local\Temp\ccivBgIW.o
 .bss           0x00000000        0x0 C:\Users\KIKI\AppData\Local\Temp\ccivBgIW.o
 .reginfo       0x00000000       0x18 C:\Users\KIKI\AppData\Local\Temp\ccivBgIW.o
 .discard       0x00000000        0x4 C:\Users\KIKI\AppData\Local\Temp\ccivBgIW.o
 .text          0x00000000        0x0 d:/program files (x86)/microchip/xc32/v2.30/bin/bin/../../lib/gcc/pic32mx/4.8.3/../../../../pic32mx/lib/./proc/32MZ2048EFG100\default_isr_vectors.o
 .data          0x00000000        0x0 d:/program files (x86)/microchip/xc32/v2.30/bin/bin/../../lib/gcc/pic32mx/4.8.3/../../../../pic32mx/lib/./proc/32MZ2048EFG100\default_isr_vectors.o
 .bss           0x00000000        0x0 d:/program files (x86)/microchip/xc32/v2.30/bin/bin/../../lib/gcc/pic32mx/4.8.3/../../../../pic32mx/lib/./proc/32MZ2048EFG100\default_isr_vectors.o
 .reginfo       0x00000000       0x18 d:/program files (x86)/microchip/xc32/v2.30/bin/bin/../../lib/gcc/pic32mx/4.8.3/../../../../pic32mx/lib/./proc/32MZ2048EFG100\default_isr_vectors.o
 .discard       0x00000000        0x4 d:/program files (x86)/microchip/xc32/v2.30/bin/bin/../../lib/gcc/pic32mx/4.8.3/../../../../pic32mx/lib/./proc/32MZ2048EFG100\default_isr_vectors.o
 .data          0x00000000        0x0 d:/program files (x86)/microchip/xc32/v2.30/bin/bin/../../lib/gcc/pic32mx/4.8.3/../../../../pic32mx/lib/fpu64\pic32_software_reset.o
 .bss           0x00000000        0x0 d:/program files (x86)/microchip/xc32/v2.30/bin/bin/../../lib/gcc/pic32mx/4.8.3/../../../../pic32mx/lib/fpu64\pic32_software_reset.o
 .reginfo       0x00000000       0x18 d:/program files (x86)/microchip/xc32/v2.30/bin/bin/../../lib/gcc/pic32mx/4.8.3/../../../../pic32mx/lib/fpu64\pic32_software_reset.o
 .text          0x00000000        0x0 d:/program files (x86)/microchip/xc32/v2.30/bin/bin/../../lib/gcc/pic32mx/4.8.3/../../../../pic32mx/lib/./proc/32MZ2048EFG100\processor.o
 .data          0x00000000        0x0 d:/program files (x86)/microchip/xc32/v2.30/bin/bin/../../lib/gcc/pic32mx/4.8.3/../../../../pic32mx/lib/./proc/32MZ2048EFG100\processor.o
 .bss           0x00000000        0x0 d:/program files (x86)/microchip/xc32/v2.30/bin/bin/../../lib/gcc/pic32mx/4.8.3/../../../../pic32mx/lib/./proc/32MZ2048EFG100\processor.o
 .reginfo       0x00000000       0x18 d:/program files (x86)/microchip/xc32/v2.30/bin/bin/../../lib/gcc/pic32mx/4.8.3/../../../../pic32mx/lib/./proc/32MZ2048EFG100\processor.o
 .text          0x00000000        0x0 d:/program files (x86)/microchip/xc32/v2.30/bin/bin/../../lib/gcc/pic32mx/4.8.3/../../../../pic32mx/lib/./proc/32MZ2048EFG100\vector_offset_init.o
 .data          0x00000000        0x0 d:/program files (x86)/microchip/xc32/v2.30/bin/bin/../../lib/gcc/pic32mx/4.8.3/../../../../pic32mx/lib/./proc/32MZ2048EFG100\vector_offset_init.o
 .bss           0x00000000        0x0 d:/program files (x86)/microchip/xc32/v2.30/bin/bin/../../lib/gcc/pic32mx/4.8.3/../../../../pic32mx/lib/./proc/32MZ2048EFG100\vector_offset_init.o
 .reginfo       0x00000000       0x18 d:/program files (x86)/microchip/xc32/v2.30/bin/bin/../../lib/gcc/pic32mx/4.8.3/../../../../pic32mx/lib/./proc/32MZ2048EFG100\vector_offset_init.o
 .data          0x00000000        0x0 d:/program files (x86)/microchip/xc32/v2.30/bin/bin/../../lib/gcc/pic32mx/4.8.3/fpu64\libgcc.a(_udivdi3.o)
 .bss           0x00000000        0x0 d:/program files (x86)/microchip/xc32/v2.30/bin/bin/../../lib/gcc/pic32mx/4.8.3/fpu64\libgcc.a(_udivdi3.o)
 .reginfo       0x00000000       0x18 d:/program files (x86)/microchip/xc32/v2.30/bin/bin/../../lib/gcc/pic32mx/4.8.3/fpu64\libgcc.a(_udivdi3.o)
 .data          0x00000000        0x0 d:/program files (x86)/microchip/xc32/v2.30/bin/bin/../../lib/gcc/pic32mx/4.8.3/../../../../pic32mx/lib/fpu64\libpic32.a(memcmp.o)
 .bss           0x00000000        0x0 d:/program files (x86)/microchip/xc32/v2.30/bin/bin/../../lib/gcc/pic32mx/4.8.3/../../../../pic32mx/lib/fpu64\libpic32.a(memcmp.o)
 .reginfo       0x00000000       0x18 d:/program files (x86)/microchip/xc32/v2.30/bin/bin/../../lib/gcc/pic32mx/4.8.3/../../../../pic32mx/lib/fpu64\libpic32.a(memcmp.o)
 .data          0x00000000        0x0 d:/program files (x86)/microchip/xc32/v2.30/bin/bin/../../lib/gcc/pic32mx/4.8.3/../../../../pic32mx/lib/fpu64\libpic32.a(memcpy.o)
 .bss           0x00000000        0x0 d:/program files (x86)/microchip/xc32/v2.30/bin/bin/../../lib/gcc/pic32mx/4.8.3/../../../../pic32mx/lib/fpu64\libpic32.a(memcpy.o)
 .reginfo       0x00000000       0x18 d:/program files (x86)/microchip/xc32/v2.30/bin/bin/../../lib/gcc/pic32mx/4.8.3/../../../../pic32mx/lib/fpu64\libpic32.a(memcpy.o)
 .data          0x00000000        0x0 d:/program files (x86)/microchip/xc32/v2.30/bin/bin/../../lib/gcc/pic32mx/4.8.3/../../../../pic32mx/lib/fpu64\libpic32.a(memset.o)
 .bss           0x00000000        0x0 d:/program files (x86)/microchip/xc32/v2.30/bin/bin/../../lib/gcc/pic32mx/4.8.3/../../../../pic32mx/lib/fpu64\libpic32.a(memset.o)
 .reginfo       0x00000000       0x18 d:/program files (x86)/microchip/xc32/v2.30/bin/bin/../../lib/gcc/pic32mx/4.8.3/../../../../pic32mx/lib/fpu64\libpic32.a(memset.o)
 .data          0x00000000        0x0 d:/program files (x86)/microchip/xc32/v2.30/bin/bin/../../lib/gcc/pic32mx/4.8.3/../../../../pic32mx/lib/fpu64\libpic32.a(strcmp.o)
 .bss           0x00000000        0x0 d:/program files (x86)/microchip/xc32/v2.30/bin/bin/../../lib/gcc/pic32mx/4.8.3/../../../../pic32mx/lib/fpu64\libpic32.a(strcmp.o)
 .reginfo       0x00000000       0x18 d:/program files (x86)/microchip/xc32/v2.30/bin/bin/../../lib/gcc/pic32mx/4.8.3/../../../../pic32mx/lib/fpu64\libpic32.a(strcmp.o)
 .data          0x00000000        0x0 d:/program files (x86)/microchip/xc32/v2.30/bin/bin/../../lib/gcc/pic32mx/4.8.3/../../../../pic32mx/lib/fpu64\libpic32.a(strcpy.o)
 .bss           0x00000000        0x0 d:/program files (x86)/microchip/xc32/v2.30/bin/bin/../../lib/gcc/pic32mx/4.8.3/../../../../pic32mx/lib/fpu64\libpic32.a(strcpy.o)
 .reginfo       0x00000000       0x18 d:/program files (x86)/microchip/xc32/v2.30/bin/bin/../../lib/gcc/pic32mx/4.8.3/../../../../pic32mx/lib/fpu64\libpic32.a(strcpy.o)
 .data          0x00000000        0x0 d:/program files (x86)/microchip/xc32/v2.30/bin/bin/../../lib/gcc/pic32mx/4.8.3/../../../../pic32mx/lib/fpu64\libpic32.a(strlen.o)
 .bss           0x00000000        0x0 d:/program files (x86)/microchip/xc32/v2.30/bin/bin/../../lib/gcc/pic32mx/4.8.3/../../../../pic32mx/lib/fpu64\libpic32.a(strlen.o)
 .reginfo       0x00000000       0x18 d:/program files (x86)/microchip/xc32/v2.30/bin/bin/../../lib/gcc/pic32mx/4.8.3/../../../../pic32mx/lib/fpu64\libpic32.a(strlen.o)
 .text          0x00000000        0x0 d:/program files (x86)/microchip/xc32/v2.30/bin/bin/../../lib/gcc/pic32mx/4.8.3/../../../../pic32mx/lib/fpu64\libpic32.a(default-bootstrap-exception-handler.o)
 .data          0x00000000        0x0 d:/program files (x86)/microchip/xc32/v2.30/bin/bin/../../lib/gcc/pic32mx/4.8.3/../../../../pic32mx/lib/fpu64\libpic32.a(default-bootstrap-exception-handler.o)
 .bss           0x00000000        0x0 d:/program files (x86)/microchip/xc32/v2.30/bin/bin/../../lib/gcc/pic32mx/4.8.3/../../../../pic32mx/lib/fpu64\libpic32.a(default-bootstrap-exception-handler.o)
 .reginfo       0x00000000       0x18 d:/program files (x86)/microchip/xc32/v2.30/bin/bin/../../lib/gcc/pic32mx/4.8.3/../../../../pic32mx/lib/fpu64\libpic32.a(default-bootstrap-exception-handler.o)
 .text          0x00000000        0x0 d:/program files (x86)/microchip/xc32/v2.30/bin/bin/../../lib/gcc/pic32mx/4.8.3/../../../../pic32mx/lib/fpu64\libpic32.a(default-on-reset.o)
 .data          0x00000000        0x0 d:/program files (x86)/microchip/xc32/v2.30/bin/bin/../../lib/gcc/pic32mx/4.8.3/../../../../pic32mx/lib/fpu64\libpic32.a(default-on-reset.o)
 .bss           0x00000000        0x0 d:/program files (x86)/microchip/xc32/v2.30/bin/bin/../../lib/gcc/pic32mx/4.8.3/../../../../pic32mx/lib/fpu64\libpic32.a(default-on-reset.o)
 .reginfo       0x00000000       0x18 d:/program files (x86)/microchip/xc32/v2.30/bin/bin/../../lib/gcc/pic32mx/4.8.3/../../../../pic32mx/lib/fpu64\libpic32.a(default-on-reset.o)
 .text          0x00000000        0x0 d:/program files (x86)/microchip/xc32/v2.30/bin/bin/../../lib/gcc/pic32mx/4.8.3/../../../../pic32mx/lib/fpu64\libpic32.a(default-on-bootstrap.o)
 .data          0x00000000        0x0 d:/program files (x86)/microchip/xc32/v2.30/bin/bin/../../lib/gcc/pic32mx/4.8.3/../../../../pic32mx/lib/fpu64\libpic32.a(default-on-bootstrap.o)
 .bss           0x00000000        0x0 d:/program files (x86)/microchip/xc32/v2.30/bin/bin/../../lib/gcc/pic32mx/4.8.3/../../../../pic32mx/lib/fpu64\libpic32.a(default-on-bootstrap.o)
 .reginfo       0x00000000       0x18 d:/program files (x86)/microchip/xc32/v2.30/bin/bin/../../lib/gcc/pic32mx/4.8.3/../../../../pic32mx/lib/fpu64\libpic32.a(default-on-bootstrap.o)
 .data          0x00000000        0x0 d:/program files (x86)/microchip/xc32/v2.30/bin/bin/../../lib/gcc/pic32mx/4.8.3/../../../../pic32mx/lib/fpu64\libpic32.a(default-nmi-handler.o)
 .bss           0x00000000        0x0 d:/program files (x86)/microchip/xc32/v2.30/bin/bin/../../lib/gcc/pic32mx/4.8.3/../../../../pic32mx/lib/fpu64\libpic32.a(default-nmi-handler.o)
 .reginfo       0x00000000       0x18 d:/program files (x86)/microchip/xc32/v2.30/bin/bin/../../lib/gcc/pic32mx/4.8.3/../../../../pic32mx/lib/fpu64\libpic32.a(default-nmi-handler.o)
 .data          0x00000000        0x0 d:/program files (x86)/microchip/xc32/v2.30/bin/bin/../../lib/gcc/pic32mx/4.8.3/../../../../pic32mx/lib/fpu64\libpic32.a(pic32_data_init.o)
 .bss           0x00000000        0x0 d:/program files (x86)/microchip/xc32/v2.30/bin/bin/../../lib/gcc/pic32mx/4.8.3/../../../../pic32mx/lib/fpu64\libpic32.a(pic32_data_init.o)
 .reginfo       0x00000000       0x18 d:/program files (x86)/microchip/xc32/v2.30/bin/bin/../../lib/gcc/pic32mx/4.8.3/../../../../pic32mx/lib/fpu64\libpic32.a(pic32_data_init.o)
 .text          0x00000000        0x0 d:/program files (x86)/microchip/xc32/v2.30/bin/bin/../../lib/gcc/pic32mx/4.8.3/../../../../pic32mx/lib/fpu64\libpic32.a(pic32_init_cache.o)
 .data          0x00000000        0x0 d:/program files (x86)/microchip/xc32/v2.30/bin/bin/../../lib/gcc/pic32mx/4.8.3/../../../../pic32mx/lib/fpu64\libpic32.a(pic32_init_cache.o)
 .bss           0x00000000        0x0 d:/program files (x86)/microchip/xc32/v2.30/bin/bin/../../lib/gcc/pic32mx/4.8.3/../../../../pic32mx/lib/fpu64\libpic32.a(pic32_init_cache.o)
 .reginfo       0x00000000       0x18 d:/program files (x86)/microchip/xc32/v2.30/bin/bin/../../lib/gcc/pic32mx/4.8.3/../../../../pic32mx/lib/fpu64\libpic32.a(pic32_init_cache.o)
 .cache_init.pic32_size_cache
                0x00000000       0x58 d:/program files (x86)/microchip/xc32/v2.30/bin/bin/../../lib/gcc/pic32mx/4.8.3/../../../../pic32mx/lib/fpu64\libpic32.a(pic32_init_cache.o)
 .text          0x00000000        0x0 d:/program files (x86)/microchip/xc32/v2.30/bin/bin/../../lib/gcc/pic32mx/4.8.3/../../../../pic32mx/lib/fpu64\libpic32.a(pic32_init_tlb_ebi_sqi.o)
 .data          0x00000000        0x0 d:/program files (x86)/microchip/xc32/v2.30/bin/bin/../../lib/gcc/pic32mx/4.8.3/../../../../pic32mx/lib/fpu64\libpic32.a(pic32_init_tlb_ebi_sqi.o)
 .bss           0x00000000        0x0 d:/program files (x86)/microchip/xc32/v2.30/bin/bin/../../lib/gcc/pic32mx/4.8.3/../../../../pic32mx/lib/fpu64\libpic32.a(pic32_init_tlb_ebi_sqi.o)
 .reginfo       0x00000000       0x18 d:/program files (x86)/microchip/xc32/v2.30/bin/bin/../../lib/gcc/pic32mx/4.8.3/../../../../pic32mx/lib/fpu64\libpic32.a(pic32_init_tlb_ebi_sqi.o)
 .text          0x00000000        0x0 d:/program files (x86)/microchip/xc32/v2.30/bin/bin/../../lib/gcc/pic32mx/4.8.3/../../../../pic32mx/lib/fpu64\libpic32.a(general-exception.o)
 .data          0x00000000        0x0 d:/program files (x86)/microchip/xc32/v2.30/bin/bin/../../lib/gcc/pic32mx/4.8.3/../../../../pic32mx/lib/fpu64\libpic32.a(general-exception.o)
 .bss           0x00000000        0x0 d:/program files (x86)/microchip/xc32/v2.30/bin/bin/../../lib/gcc/pic32mx/4.8.3/../../../../pic32mx/lib/fpu64\libpic32.a(general-exception.o)
 .reginfo       0x00000000       0x18 d:/program files (x86)/microchip/xc32/v2.30/bin/bin/../../lib/gcc/pic32mx/4.8.3/../../../../pic32mx/lib/fpu64\libpic32.a(general-exception.o)
 .text          0x00000000        0x0 d:/program files (x86)/microchip/xc32/v2.30/bin/bin/../../lib/gcc/pic32mx/4.8.3/../../../../pic32mx/lib/fpu64\libpic32.a(cache-err-exception.o)
 .data          0x00000000        0x0 d:/program files (x86)/microchip/xc32/v2.30/bin/bin/../../lib/gcc/pic32mx/4.8.3/../../../../pic32mx/lib/fpu64\libpic32.a(cache-err-exception.o)
 .bss           0x00000000        0x0 d:/program files (x86)/microchip/xc32/v2.30/bin/bin/../../lib/gcc/pic32mx/4.8.3/../../../../pic32mx/lib/fpu64\libpic32.a(cache-err-exception.o)
 .reginfo       0x00000000       0x18 d:/program files (x86)/microchip/xc32/v2.30/bin/bin/../../lib/gcc/pic32mx/4.8.3/../../../../pic32mx/lib/fpu64\libpic32.a(cache-err-exception.o)
 .text          0x00000000        0x0 d:/program files (x86)/microchip/xc32/v2.30/bin/bin/../../lib/gcc/pic32mx/4.8.3/../../../../pic32mx/lib/fpu64\libpic32.a(simple-tlb-refill-exception.o)
 .data          0x00000000        0x0 d:/program files (x86)/microchip/xc32/v2.30/bin/bin/../../lib/gcc/pic32mx/4.8.3/../../../../pic32mx/lib/fpu64\libpic32.a(simple-tlb-refill-exception.o)
 .bss           0x00000000        0x0 d:/program files (x86)/microchip/xc32/v2.30/bin/bin/../../lib/gcc/pic32mx/4.8.3/../../../../pic32mx/lib/fpu64\libpic32.a(simple-tlb-refill-exception.o)
 .reginfo       0x00000000       0x18 d:/program files (x86)/microchip/xc32/v2.30/bin/bin/../../lib/gcc/pic32mx/4.8.3/../../../../pic32mx/lib/fpu64\libpic32.a(simple-tlb-refill-exception.o)
 .text          0x00000000        0x0 d:/program files (x86)/microchip/xc32/v2.30/bin/bin/../../lib/gcc/pic32mx/4.8.3/../../../../pic32mx/lib/fpu64\libpic32.a(defaultinterrupt.o)
 .data          0x00000000        0x0 d:/program files (x86)/microchip/xc32/v2.30/bin/bin/../../lib/gcc/pic32mx/4.8.3/../../../../pic32mx/lib/fpu64\libpic32.a(defaultinterrupt.o)
 .bss           0x00000000        0x0 d:/program files (x86)/microchip/xc32/v2.30/bin/bin/../../lib/gcc/pic32mx/4.8.3/../../../../pic32mx/lib/fpu64\libpic32.a(defaultinterrupt.o)
 .reginfo       0x00000000       0x18 d:/program files (x86)/microchip/xc32/v2.30/bin/bin/../../lib/gcc/pic32mx/4.8.3/../../../../pic32mx/lib/fpu64\libpic32.a(defaultinterrupt.o)
 .text          0x00000000        0x0 d:/program files (x86)/microchip/xc32/v2.30/bin/bin/../../lib/gcc/pic32mx/4.8.3/../../../../pic32mx/lib/fpu64\libpic32.a(default-cache-err-exception-handler.o)
 .data          0x00000000        0x0 d:/program files (x86)/microchip/xc32/v2.30/bin/bin/../../lib/gcc/pic32mx/4.8.3/../../../../pic32mx/lib/fpu64\libpic32.a(default-cache-err-exception-handler.o)
 .bss           0x00000000        0x0 d:/program files (x86)/microchip/xc32/v2.30/bin/bin/../../lib/gcc/pic32mx/4.8.3/../../../../pic32mx/lib/fpu64\libpic32.a(default-cache-err-exception-handler.o)
 .reginfo       0x00000000       0x18 d:/program files (x86)/microchip/xc32/v2.30/bin/bin/../../lib/gcc/pic32mx/4.8.3/../../../../pic32mx/lib/fpu64\libpic32.a(default-cache-err-exception-handler.o)
 .text          0x00000000        0x0 d:/program files (x86)/microchip/xc32/v2.30/bin/bin/../../lib/gcc/pic32mx/4.8.3/../../../../pic32mx/lib/fpu64\libpic32.a(default-simple-tlb-refill-exception-handler.o)
 .data          0x00000000        0x0 d:/program files (x86)/microchip/xc32/v2.30/bin/bin/../../lib/gcc/pic32mx/4.8.3/../../../../pic32mx/lib/fpu64\libpic32.a(default-simple-tlb-refill-exception-handler.o)
 .bss           0x00000000        0x0 d:/program files (x86)/microchip/xc32/v2.30/bin/bin/../../lib/gcc/pic32mx/4.8.3/../../../../pic32mx/lib/fpu64\libpic32.a(default-simple-tlb-refill-exception-handler.o)
 .reginfo       0x00000000       0x18 d:/program files (x86)/microchip/xc32/v2.30/bin/bin/../../lib/gcc/pic32mx/4.8.3/../../../../pic32mx/lib/fpu64\libpic32.a(default-simple-tlb-refill-exception-handler.o)
 .text          0x00000000        0x0 d:/program files (x86)/microchip/xc32/v2.30/bin/bin/../../lib/gcc/pic32mx/4.8.3/../../../../pic32mx/lib/fpu64\libc.a(atoi.o)
 .data          0x00000000        0x0 d:/program files (x86)/microchip/xc32/v2.30/bin/bin/../../lib/gcc/pic32mx/4.8.3/../../../../pic32mx/lib/fpu64\libc.a(atoi.o)
 .bss           0x00000000        0x0 d:/program files (x86)/microchip/xc32/v2.30/bin/bin/../../lib/gcc/pic32mx/4.8.3/../../../../pic32mx/lib/fpu64\libc.a(atoi.o)
 .reginfo       0x00000000       0x18 d:/program files (x86)/microchip/xc32/v2.30/bin/bin/../../lib/gcc/pic32mx/4.8.3/../../../../pic32mx/lib/fpu64\libc.a(atoi.o)
 .text          0x00000000        0x0 d:/program files (x86)/microchip/xc32/v2.30/bin/bin/../../lib/gcc/pic32mx/4.8.3/../../../../pic32mx/lib/fpu64\libc.a(calloc.o)
 .data          0x00000000        0x0 d:/program files (x86)/microchip/xc32/v2.30/bin/bin/../../lib/gcc/pic32mx/4.8.3/../../../../pic32mx/lib/fpu64\libc.a(calloc.o)
 .bss           0x00000000        0x0 d:/program files (x86)/microchip/xc32/v2.30/bin/bin/../../lib/gcc/pic32mx/4.8.3/../../../../pic32mx/lib/fpu64\libc.a(calloc.o)
 .reginfo       0x00000000       0x18 d:/program files (x86)/microchip/xc32/v2.30/bin/bin/../../lib/gcc/pic32mx/4.8.3/../../../../pic32mx/lib/fpu64\libc.a(calloc.o)
 .text          0x00000000        0x0 d:/program files (x86)/microchip/xc32/v2.30/bin/bin/../../lib/gcc/pic32mx/4.8.3/../../../../pic32mx/lib/fpu64\libc.a(ctype.o)
 .data          0x00000000        0x0 d:/program files (x86)/microchip/xc32/v2.30/bin/bin/../../lib/gcc/pic32mx/4.8.3/../../../../pic32mx/lib/fpu64\libc.a(ctype.o)
 .bss           0x00000000        0x0 d:/program files (x86)/microchip/xc32/v2.30/bin/bin/../../lib/gcc/pic32mx/4.8.3/../../../../pic32mx/lib/fpu64\libc.a(ctype.o)
 .reginfo       0x00000000       0x18 d:/program files (x86)/microchip/xc32/v2.30/bin/bin/../../lib/gcc/pic32mx/4.8.3/../../../../pic32mx/lib/fpu64\libc.a(ctype.o)
 .text          0x00000000        0x0 d:/program files (x86)/microchip/xc32/v2.30/bin/bin/../../lib/gcc/pic32mx/4.8.3/../../../../pic32mx/lib/fpu64\libc.a(ctypef.o)
 .data          0x00000000        0x0 d:/program files (x86)/microchip/xc32/v2.30/bin/bin/../../lib/gcc/pic32mx/4.8.3/../../../../pic32mx/lib/fpu64\libc.a(ctypef.o)
 .bss           0x00000000        0x0 d:/program files (x86)/microchip/xc32/v2.30/bin/bin/../../lib/gcc/pic32mx/4.8.3/../../../../pic32mx/lib/fpu64\libc.a(ctypef.o)
 .reginfo       0x00000000       0x18 d:/program files (x86)/microchip/xc32/v2.30/bin/bin/../../lib/gcc/pic32mx/4.8.3/../../../../pic32mx/lib/fpu64\libc.a(ctypef.o)
 .text.isalnum  0x00000000       0x18 d:/program files (x86)/microchip/xc32/v2.30/bin/bin/../../lib/gcc/pic32mx/4.8.3/../../../../pic32mx/lib/fpu64\libc.a(ctypef.o)
 .text.isalpha  0x00000000       0x18 d:/program files (x86)/microchip/xc32/v2.30/bin/bin/../../lib/gcc/pic32mx/4.8.3/../../../../pic32mx/lib/fpu64\libc.a(ctypef.o)
 .text.isascii  0x00000000        0x8 d:/program files (x86)/microchip/xc32/v2.30/bin/bin/../../lib/gcc/pic32mx/4.8.3/../../../../pic32mx/lib/fpu64\libc.a(ctypef.o)
 .text.iscntrl  0x00000000       0x18 d:/program files (x86)/microchip/xc32/v2.30/bin/bin/../../lib/gcc/pic32mx/4.8.3/../../../../pic32mx/lib/fpu64\libc.a(ctypef.o)
 .text.isdigit  0x00000000       0x18 d:/program files (x86)/microchip/xc32/v2.30/bin/bin/../../lib/gcc/pic32mx/4.8.3/../../../../pic32mx/lib/fpu64\libc.a(ctypef.o)
 .text.isgraph  0x00000000       0x18 d:/program files (x86)/microchip/xc32/v2.30/bin/bin/../../lib/gcc/pic32mx/4.8.3/../../../../pic32mx/lib/fpu64\libc.a(ctypef.o)
 .text.islower  0x00000000       0x18 d:/program files (x86)/microchip/xc32/v2.30/bin/bin/../../lib/gcc/pic32mx/4.8.3/../../../../pic32mx/lib/fpu64\libc.a(ctypef.o)
 .text.isprint  0x00000000       0x18 d:/program files (x86)/microchip/xc32/v2.30/bin/bin/../../lib/gcc/pic32mx/4.8.3/../../../../pic32mx/lib/fpu64\libc.a(ctypef.o)
 .text.ispunct  0x00000000       0x18 d:/program files (x86)/microchip/xc32/v2.30/bin/bin/../../lib/gcc/pic32mx/4.8.3/../../../../pic32mx/lib/fpu64\libc.a(ctypef.o)
 .text.isspace  0x00000000       0x18 d:/program files (x86)/microchip/xc32/v2.30/bin/bin/../../lib/gcc/pic32mx/4.8.3/../../../../pic32mx/lib/fpu64\libc.a(ctypef.o)
 .text.isupper  0x00000000       0x18 d:/program files (x86)/microchip/xc32/v2.30/bin/bin/../../lib/gcc/pic32mx/4.8.3/../../../../pic32mx/lib/fpu64\libc.a(ctypef.o)
 .text.isxdigit
                0x00000000       0x18 d:/program files (x86)/microchip/xc32/v2.30/bin/bin/../../lib/gcc/pic32mx/4.8.3/../../../../pic32mx/lib/fpu64\libc.a(ctypef.o)
 .text.toascii  0x00000000        0x8 d:/program files (x86)/microchip/xc32/v2.30/bin/bin/../../lib/gcc/pic32mx/4.8.3/../../../../pic32mx/lib/fpu64\libc.a(ctypef.o)
 .text._tolower
                0x00000000        0x8 d:/program files (x86)/microchip/xc32/v2.30/bin/bin/../../lib/gcc/pic32mx/4.8.3/../../../../pic32mx/lib/fpu64\libc.a(ctypef.o)
 .text._toupper
                0x00000000        0x8 d:/program files (x86)/microchip/xc32/v2.30/bin/bin/../../lib/gcc/pic32mx/4.8.3/../../../../pic32mx/lib/fpu64\libc.a(ctypef.o)
 .text          0x00000000        0x0 d:/program files (x86)/microchip/xc32/v2.30/bin/bin/../../lib/gcc/pic32mx/4.8.3/../../../../pic32mx/lib/fpu64\libc.a(malloc.o)
 .data          0x00000000        0x0 d:/program files (x86)/microchip/xc32/v2.30/bin/bin/../../lib/gcc/pic32mx/4.8.3/../../../../pic32mx/lib/fpu64\libc.a(malloc.o)
 .reginfo       0x00000000       0x18 d:/program files (x86)/microchip/xc32/v2.30/bin/bin/../../lib/gcc/pic32mx/4.8.3/../../../../pic32mx/lib/fpu64\libc.a(malloc.o)
 .text.realloc  0x00000000      0x148 d:/program files (x86)/microchip/xc32/v2.30/bin/bin/../../lib/gcc/pic32mx/4.8.3/../../../../pic32mx/lib/fpu64\libc.a(malloc.o)
 .text          0x00000000        0x0 d:/program files (x86)/microchip/xc32/v2.30/bin/bin/../../lib/gcc/pic32mx/4.8.3/../../../../pic32mx/lib/fpu64\libc.a(rand.o)
 .data          0x00000000        0x0 d:/program files (x86)/microchip/xc32/v2.30/bin/bin/../../lib/gcc/pic32mx/4.8.3/../../../../pic32mx/lib/fpu64\libc.a(rand.o)
 .reginfo       0x00000000       0x18 d:/program files (x86)/microchip/xc32/v2.30/bin/bin/../../lib/gcc/pic32mx/4.8.3/../../../../pic32mx/lib/fpu64\libc.a(rand.o)
 .text          0x00000000        0x0 d:/program files (x86)/microchip/xc32/v2.30/bin/bin/../../lib/gcc/pic32mx/4.8.3/../../../../pic32mx/lib/fpu64\libc.a(strchr.o)
 .data          0x00000000        0x0 d:/program files (x86)/microchip/xc32/v2.30/bin/bin/../../lib/gcc/pic32mx/4.8.3/../../../../pic32mx/lib/fpu64\libc.a(strchr.o)
 .bss           0x00000000        0x0 d:/program files (x86)/microchip/xc32/v2.30/bin/bin/../../lib/gcc/pic32mx/4.8.3/../../../../pic32mx/lib/fpu64\libc.a(strchr.o)
 .reginfo       0x00000000       0x18 d:/program files (x86)/microchip/xc32/v2.30/bin/bin/../../lib/gcc/pic32mx/4.8.3/../../../../pic32mx/lib/fpu64\libc.a(strchr.o)
 .text          0x00000000        0x0 d:/program files (x86)/microchip/xc32/v2.30/bin/bin/../../lib/gcc/pic32mx/4.8.3/../../../../pic32mx/lib/fpu64\libc.a(strncmp.o)
 .data          0x00000000        0x0 d:/program files (x86)/microchip/xc32/v2.30/bin/bin/../../lib/gcc/pic32mx/4.8.3/../../../../pic32mx/lib/fpu64\libc.a(strncmp.o)
 .bss           0x00000000        0x0 d:/program files (x86)/microchip/xc32/v2.30/bin/bin/../../lib/gcc/pic32mx/4.8.3/../../../../pic32mx/lib/fpu64\libc.a(strncmp.o)
 .reginfo       0x00000000       0x18 d:/program files (x86)/microchip/xc32/v2.30/bin/bin/../../lib/gcc/pic32mx/4.8.3/../../../../pic32mx/lib/fpu64\libc.a(strncmp.o)
 .text          0x00000000        0x0 d:/program files (x86)/microchip/xc32/v2.30/bin/bin/../../lib/gcc/pic32mx/4.8.3/../../../../pic32mx/lib/fpu64\libc.a(strncpy.o)
 .data          0x00000000        0x0 d:/program files (x86)/microchip/xc32/v2.30/bin/bin/../../lib/gcc/pic32mx/4.8.3/../../../../pic32mx/lib/fpu64\libc.a(strncpy.o)
 .bss           0x00000000        0x0 d:/program files (x86)/microchip/xc32/v2.30/bin/bin/../../lib/gcc/pic32mx/4.8.3/../../../../pic32mx/lib/fpu64\libc.a(strncpy.o)
 .reginfo       0x00000000       0x18 d:/program files (x86)/microchip/xc32/v2.30/bin/bin/../../lib/gcc/pic32mx/4.8.3/../../../../pic32mx/lib/fpu64\libc.a(strncpy.o)
 .text          0x00000000        0x0 d:/program files (x86)/microchip/xc32/v2.30/bin/bin/../../lib/gcc/pic32mx/4.8.3/../../../../pic32mx/lib/fpu64\libc.a(strtol.o)
 .data          0x00000000        0x0 d:/program files (x86)/microchip/xc32/v2.30/bin/bin/../../lib/gcc/pic32mx/4.8.3/../../../../pic32mx/lib/fpu64\libc.a(strtol.o)
 .bss           0x00000000        0x0 d:/program files (x86)/microchip/xc32/v2.30/bin/bin/../../lib/gcc/pic32mx/4.8.3/../../../../pic32mx/lib/fpu64\libc.a(strtol.o)
 .reginfo       0x00000000       0x18 d:/program files (x86)/microchip/xc32/v2.30/bin/bin/../../lib/gcc/pic32mx/4.8.3/../../../../pic32mx/lib/fpu64\libc.a(strtol.o)
 .text          0x00000000        0x0 d:/program files (x86)/microchip/xc32/v2.30/bin/bin/../../lib/gcc/pic32mx/4.8.3/../../../../pic32mx/lib/fpu64\libc.a(sprintf_cdnopuxX.eo)
 .data          0x00000000        0x0 d:/program files (x86)/microchip/xc32/v2.30/bin/bin/../../lib/gcc/pic32mx/4.8.3/../../../../pic32mx/lib/fpu64\libc.a(sprintf_cdnopuxX.eo)
 .bss           0x00000000        0x0 d:/program files (x86)/microchip/xc32/v2.30/bin/bin/../../lib/gcc/pic32mx/4.8.3/../../../../pic32mx/lib/fpu64\libc.a(sprintf_cdnopuxX.eo)
 .reginfo       0x00000000       0x18 d:/program files (x86)/microchip/xc32/v2.30/bin/bin/../../lib/gcc/pic32mx/4.8.3/../../../../pic32mx/lib/fpu64\libc.a(sprintf_cdnopuxX.eo)
 .text          0x00000000        0x0 d:/program files (x86)/microchip/xc32/v2.30/bin/bin/../../lib/gcc/pic32mx/4.8.3/../../../../pic32mx/lib/fpu64\libc.a(sscanf_cdnopuxX.eo)
 .data          0x00000000        0x0 d:/program files (x86)/microchip/xc32/v2.30/bin/bin/../../lib/gcc/pic32mx/4.8.3/../../../../pic32mx/lib/fpu64\libc.a(sscanf_cdnopuxX.eo)
 .bss           0x00000000        0x0 d:/program files (x86)/microchip/xc32/v2.30/bin/bin/../../lib/gcc/pic32mx/4.8.3/../../../../pic32mx/lib/fpu64\libc.a(sscanf_cdnopuxX.eo)
 .reginfo       0x00000000       0x18 d:/program files (x86)/microchip/xc32/v2.30/bin/bin/../../lib/gcc/pic32mx/4.8.3/../../../../pic32mx/lib/fpu64\libc.a(sscanf_cdnopuxX.eo)
 .text          0x00000000        0x0 d:/program files (x86)/microchip/xc32/v2.30/bin/bin/../../lib/gcc/pic32mx/4.8.3/../../../../pic32mx/lib/fpu64\libc.a(vsnprintf.o)
 .data          0x00000000        0x0 d:/program files (x86)/microchip/xc32/v2.30/bin/bin/../../lib/gcc/pic32mx/4.8.3/../../../../pic32mx/lib/fpu64\libc.a(vsnprintf.o)
 .bss           0x00000000        0x0 d:/program files (x86)/microchip/xc32/v2.30/bin/bin/../../lib/gcc/pic32mx/4.8.3/../../../../pic32mx/lib/fpu64\libc.a(vsnprintf.o)
 .reginfo       0x00000000       0x18 d:/program files (x86)/microchip/xc32/v2.30/bin/bin/../../lib/gcc/pic32mx/4.8.3/../../../../pic32mx/lib/fpu64\libc.a(vsnprintf.o)
 .text          0x00000000        0x0 d:/program files (x86)/microchip/xc32/v2.30/bin/bin/../../lib/gcc/pic32mx/4.8.3/../../../../pic32mx/lib/fpu64\libc.a(errno.o)
 .data          0x00000000        0x0 d:/program files (x86)/microchip/xc32/v2.30/bin/bin/../../lib/gcc/pic32mx/4.8.3/../../../../pic32mx/lib/fpu64\libc.a(errno.o)
 .bss           0x00000000        0x0 d:/program files (x86)/microchip/xc32/v2.30/bin/bin/../../lib/gcc/pic32mx/4.8.3/../../../../pic32mx/lib/fpu64\libc.a(errno.o)
 .reginfo       0x00000000       0x18 d:/program files (x86)/microchip/xc32/v2.30/bin/bin/../../lib/gcc/pic32mx/4.8.3/../../../../pic32mx/lib/fpu64\libc.a(errno.o)
 .text          0x00000000        0x0 d:/program files (x86)/microchip/xc32/v2.30/bin/bin/../../lib/gcc/pic32mx/4.8.3/../../../../pic32mx/lib/fpu64\libc.a(doprnt_cdnopuxX.eo)
 .data          0x00000000        0x0 d:/program files (x86)/microchip/xc32/v2.30/bin/bin/../../lib/gcc/pic32mx/4.8.3/../../../../pic32mx/lib/fpu64\libc.a(doprnt_cdnopuxX.eo)
 .bss           0x00000000        0x0 d:/program files (x86)/microchip/xc32/v2.30/bin/bin/../../lib/gcc/pic32mx/4.8.3/../../../../pic32mx/lib/fpu64\libc.a(doprnt_cdnopuxX.eo)
 .reginfo       0x00000000       0x18 d:/program files (x86)/microchip/xc32/v2.30/bin/bin/../../lib/gcc/pic32mx/4.8.3/../../../../pic32mx/lib/fpu64\libc.a(doprnt_cdnopuxX.eo)
 .text          0x00000000        0x0 d:/program files (x86)/microchip/xc32/v2.30/bin/bin/../../lib/gcc/pic32mx/4.8.3/../../../../pic32mx/lib/fpu64\libc.a(doprnt.o)
 .data          0x00000000        0x0 d:/program files (x86)/microchip/xc32/v2.30/bin/bin/../../lib/gcc/pic32mx/4.8.3/../../../../pic32mx/lib/fpu64\libc.a(doprnt.o)
 .bss           0x00000000        0x0 d:/program files (x86)/microchip/xc32/v2.30/bin/bin/../../lib/gcc/pic32mx/4.8.3/../../../../pic32mx/lib/fpu64\libc.a(doprnt.o)
 .reginfo       0x00000000       0x18 d:/program files (x86)/microchip/xc32/v2.30/bin/bin/../../lib/gcc/pic32mx/4.8.3/../../../../pic32mx/lib/fpu64\libc.a(doprnt.o)
 .text          0x00000000        0x0 d:/program files (x86)/microchip/xc32/v2.30/bin/bin/../../lib/gcc/pic32mx/4.8.3/../../../../pic32mx/lib/fpu64\libc.a(doscan_cdnopuxX.eo)
 .data          0x00000000        0x0 d:/program files (x86)/microchip/xc32/v2.30/bin/bin/../../lib/gcc/pic32mx/4.8.3/../../../../pic32mx/lib/fpu64\libc.a(doscan_cdnopuxX.eo)
 .reginfo       0x00000000       0x18 d:/program files (x86)/microchip/xc32/v2.30/bin/bin/../../lib/gcc/pic32mx/4.8.3/../../../../pic32mx/lib/fpu64\libc.a(doscan_cdnopuxX.eo)
 .text          0x00000000        0x0 d:/program files (x86)/microchip/xc32/v2.30/bin/bin/../../lib/gcc/pic32mx/4.8.3/../../../../pic32mx/lib/fpu64\libc.a(fgetc.o)
 .data          0x00000000        0x0 d:/program files (x86)/microchip/xc32/v2.30/bin/bin/../../lib/gcc/pic32mx/4.8.3/../../../../pic32mx/lib/fpu64\libc.a(fgetc.o)
 .bss           0x00000000        0x0 d:/program files (x86)/microchip/xc32/v2.30/bin/bin/../../lib/gcc/pic32mx/4.8.3/../../../../pic32mx/lib/fpu64\libc.a(fgetc.o)
 .reginfo       0x00000000       0x18 d:/program files (x86)/microchip/xc32/v2.30/bin/bin/../../lib/gcc/pic32mx/4.8.3/../../../../pic32mx/lib/fpu64\libc.a(fgetc.o)
 .text          0x00000000        0x0 d:/program files (x86)/microchip/xc32/v2.30/bin/bin/../../lib/gcc/pic32mx/4.8.3/../../../../pic32mx/lib/fpu64\libc.a(_fputc_simple.o)
 .data          0x00000000        0x0 d:/program files (x86)/microchip/xc32/v2.30/bin/bin/../../lib/gcc/pic32mx/4.8.3/../../../../pic32mx/lib/fpu64\libc.a(_fputc_simple.o)
 .bss           0x00000000        0x0 d:/program files (x86)/microchip/xc32/v2.30/bin/bin/../../lib/gcc/pic32mx/4.8.3/../../../../pic32mx/lib/fpu64\libc.a(_fputc_simple.o)
 .reginfo       0x00000000       0x18 d:/program files (x86)/microchip/xc32/v2.30/bin/bin/../../lib/gcc/pic32mx/4.8.3/../../../../pic32mx/lib/fpu64\libc.a(_fputc_simple.o)
 .text          0x00000000        0x0 d:/program files (x86)/microchip/xc32/v2.30/bin/bin/../../lib/gcc/pic32mx/4.8.3/../../../../pic32mx/lib/fpu64\libc.a(ldpowers.o)
 .data          0x00000000        0x0 d:/program files (x86)/microchip/xc32/v2.30/bin/bin/../../lib/gcc/pic32mx/4.8.3/../../../../pic32mx/lib/fpu64\libc.a(ldpowers.o)
 .bss           0x00000000        0x0 d:/program files (x86)/microchip/xc32/v2.30/bin/bin/../../lib/gcc/pic32mx/4.8.3/../../../../pic32mx/lib/fpu64\libc.a(ldpowers.o)
 .reginfo       0x00000000       0x18 d:/program files (x86)/microchip/xc32/v2.30/bin/bin/../../lib/gcc/pic32mx/4.8.3/../../../../pic32mx/lib/fpu64\libc.a(ldpowers.o)
 .text          0x00000000        0x0 d:/program files (x86)/microchip/xc32/v2.30/bin/bin/../../lib/gcc/pic32mx/4.8.3/../../../../pic32mx/lib/fpu64\libc.a(ungetc.o)
 .data          0x00000000        0x0 d:/program files (x86)/microchip/xc32/v2.30/bin/bin/../../lib/gcc/pic32mx/4.8.3/../../../../pic32mx/lib/fpu64\libc.a(ungetc.o)
 .bss           0x00000000        0x0 d:/program files (x86)/microchip/xc32/v2.30/bin/bin/../../lib/gcc/pic32mx/4.8.3/../../../../pic32mx/lib/fpu64\libc.a(ungetc.o)
 .reginfo       0x00000000       0x18 d:/program files (x86)/microchip/xc32/v2.30/bin/bin/../../lib/gcc/pic32mx/4.8.3/../../../../pic32mx/lib/fpu64\libc.a(ungetc.o)
 .text          0x00000000        0x0 d:/program files (x86)/microchip/xc32/v2.30/bin/bin/../../lib/gcc/pic32mx/4.8.3/../../../../pic32mx/lib/fpu64\libc.a(_iob.o)
 .reginfo       0x00000000       0x18 d:/program files (x86)/microchip/xc32/v2.30/bin/bin/../../lib/gcc/pic32mx/4.8.3/../../../../pic32mx/lib/fpu64\libc.a(_iob.o)
 .text          0x00000000        0x0 d:/program files (x86)/microchip/xc32/v2.30/bin/bin/../../lib/gcc/pic32mx/4.8.3/../../../../pic32mx/lib/fpu64\libc.a(filbuf.o)
 .data          0x00000000        0x0 d:/program files (x86)/microchip/xc32/v2.30/bin/bin/../../lib/gcc/pic32mx/4.8.3/../../../../pic32mx/lib/fpu64\libc.a(filbuf.o)
 .bss           0x00000000        0x0 d:/program files (x86)/microchip/xc32/v2.30/bin/bin/../../lib/gcc/pic32mx/4.8.3/../../../../pic32mx/lib/fpu64\libc.a(filbuf.o)
 .reginfo       0x00000000       0x18 d:/program files (x86)/microchip/xc32/v2.30/bin/bin/../../lib/gcc/pic32mx/4.8.3/../../../../pic32mx/lib/fpu64\libc.a(filbuf.o)
 .text          0x00000000        0x0 d:/program files (x86)/microchip/xc32/v2.30/bin/bin/../../lib/gcc/pic32mx/4.8.3/../../../../pic32mx/lib/fpu64\libc.a(_flsbuf_simple.o)
 .data          0x00000000        0x0 d:/program files (x86)/microchip/xc32/v2.30/bin/bin/../../lib/gcc/pic32mx/4.8.3/../../../../pic32mx/lib/fpu64\libc.a(_flsbuf_simple.o)
 .bss           0x00000000        0x0 d:/program files (x86)/microchip/xc32/v2.30/bin/bin/../../lib/gcc/pic32mx/4.8.3/../../../../pic32mx/lib/fpu64\libc.a(_flsbuf_simple.o)
 .reginfo       0x00000000       0x18 d:/program files (x86)/microchip/xc32/v2.30/bin/bin/../../lib/gcc/pic32mx/4.8.3/../../../../pic32mx/lib/fpu64\libc.a(_flsbuf_simple.o)
 .text          0x00000000        0x0 d:/program files (x86)/microchip/xc32/v2.30/bin/bin/../../lib/gcc/pic32mx/4.8.3/../../../../pic32mx/lib/fpu64\libc.a(fflush.o)
 .data          0x00000000        0x0 d:/program files (x86)/microchip/xc32/v2.30/bin/bin/../../lib/gcc/pic32mx/4.8.3/../../../../pic32mx/lib/fpu64\libc.a(fflush.o)
 .bss           0x00000000        0x0 d:/program files (x86)/microchip/xc32/v2.30/bin/bin/../../lib/gcc/pic32mx/4.8.3/../../../../pic32mx/lib/fpu64\libc.a(fflush.o)
 .reginfo       0x00000000       0x18 d:/program files (x86)/microchip/xc32/v2.30/bin/bin/../../lib/gcc/pic32mx/4.8.3/../../../../pic32mx/lib/fpu64\libc.a(fflush.o)
 .text          0x00000000        0x0 d:/program files (x86)/microchip/xc32/v2.30/bin/bin/../../lib/gcc/pic32mx/4.8.3/../../../../pic32mx/lib/fpu64\libmfd.a(s_frexp.o)
 .data          0x00000000        0x0 d:/program files (x86)/microchip/xc32/v2.30/bin/bin/../../lib/gcc/pic32mx/4.8.3/../../../../pic32mx/lib/fpu64\libmfd.a(s_frexp.o)
 .bss           0x00000000        0x0 d:/program files (x86)/microchip/xc32/v2.30/bin/bin/../../lib/gcc/pic32mx/4.8.3/../../../../pic32mx/lib/fpu64\libmfd.a(s_frexp.o)
 .reginfo       0x00000000       0x18 d:/program files (x86)/microchip/xc32/v2.30/bin/bin/../../lib/gcc/pic32mx/4.8.3/../../../../pic32mx/lib/fpu64\libmfd.a(s_frexp.o)
 .data          0x00000000        0x0 d:/program files (x86)/microchip/xc32/v2.30/bin/bin/../../lib/gcc/pic32mx/4.8.3/fpu64\libgcc.a(_cmpdi2.o)
 .bss           0x00000000        0x0 d:/program files (x86)/microchip/xc32/v2.30/bin/bin/../../lib/gcc/pic32mx/4.8.3/fpu64\libgcc.a(_cmpdi2.o)
 .reginfo       0x00000000       0x18 d:/program files (x86)/microchip/xc32/v2.30/bin/bin/../../lib/gcc/pic32mx/4.8.3/fpu64\libgcc.a(_cmpdi2.o)
 .data          0x00000000        0x0 d:/program files (x86)/microchip/xc32/v2.30/bin/bin/../../lib/gcc/pic32mx/4.8.3/fpu64\libgcc.a(_umoddi3.o)
 .bss           0x00000000        0x0 d:/program files (x86)/microchip/xc32/v2.30/bin/bin/../../lib/gcc/pic32mx/4.8.3/fpu64\libgcc.a(_umoddi3.o)
 .reginfo       0x00000000       0x18 d:/program files (x86)/microchip/xc32/v2.30/bin/bin/../../lib/gcc/pic32mx/4.8.3/fpu64\libgcc.a(_umoddi3.o)
 .text          0x00000000        0x0 d:/program files (x86)/microchip/xc32/v2.30/bin/bin/../../lib/gcc/pic32mx/4.8.3/../../../../pic32mx/lib/fpu64\libpic32.a(sbrk.o)
 .data          0x00000000        0x0 d:/program files (x86)/microchip/xc32/v2.30/bin/bin/../../lib/gcc/pic32mx/4.8.3/../../../../pic32mx/lib/fpu64\libpic32.a(sbrk.o)
 .reginfo       0x00000000       0x18 d:/program files (x86)/microchip/xc32/v2.30/bin/bin/../../lib/gcc/pic32mx/4.8.3/../../../../pic32mx/lib/fpu64\libpic32.a(sbrk.o)
 .text.getpagesize
                0x00000000        0x8 d:/program files (x86)/microchip/xc32/v2.30/bin/bin/../../lib/gcc/pic32mx/4.8.3/../../../../pic32mx/lib/fpu64\libpic32.a(sbrk.o)
 .text          0x00000000        0x0 d:/program files (x86)/microchip/xc32/v2.30/bin/bin/../../lib/gcc/pic32mx/4.8.3/../../../../pic32mx/lib/fpu64\libpic32.a(read.o)
 .data          0x00000000        0x0 d:/program files (x86)/microchip/xc32/v2.30/bin/bin/../../lib/gcc/pic32mx/4.8.3/../../../../pic32mx/lib/fpu64\libpic32.a(read.o)
 .bss           0x00000000        0x0 d:/program files (x86)/microchip/xc32/v2.30/bin/bin/../../lib/gcc/pic32mx/4.8.3/../../../../pic32mx/lib/fpu64\libpic32.a(read.o)
 .reginfo       0x00000000       0x18 d:/program files (x86)/microchip/xc32/v2.30/bin/bin/../../lib/gcc/pic32mx/4.8.3/../../../../pic32mx/lib/fpu64\libpic32.a(read.o)
 .text          0x00000000        0x0 d:/program files (x86)/microchip/xc32/v2.30/bin/bin/../../lib/gcc/pic32mx/4.8.3/../../../../pic32mx/lib/fpu64\libpic32.a(write.o)
 .data          0x00000000        0x0 d:/program files (x86)/microchip/xc32/v2.30/bin/bin/../../lib/gcc/pic32mx/4.8.3/../../../../pic32mx/lib/fpu64\libpic32.a(write.o)
 .bss           0x00000000        0x0 d:/program files (x86)/microchip/xc32/v2.30/bin/bin/../../lib/gcc/pic32mx/4.8.3/../../../../pic32mx/lib/fpu64\libpic32.a(write.o)
 .reginfo       0x00000000       0x18 d:/program files (x86)/microchip/xc32/v2.30/bin/bin/../../lib/gcc/pic32mx/4.8.3/../../../../pic32mx/lib/fpu64\libpic32.a(write.o)
 .text          0x00000000        0x0 d:/program files (x86)/microchip/xc32/v2.30/bin/bin/../../lib/gcc/pic32mx/4.8.3/../../../../pic32mx/lib/fpu64\libpic32.a(xc32_uart.o)
 .data          0x00000000        0x0 d:/program files (x86)/microchip/xc32/v2.30/bin/bin/../../lib/gcc/pic32mx/4.8.3/../../../../pic32mx/lib/fpu64\libpic32.a(xc32_uart.o)
 .bss           0x00000000        0x0 d:/program files (x86)/microchip/xc32/v2.30/bin/bin/../../lib/gcc/pic32mx/4.8.3/../../../../pic32mx/lib/fpu64\libpic32.a(xc32_uart.o)
 .reginfo       0x00000000       0x18 d:/program files (x86)/microchip/xc32/v2.30/bin/bin/../../lib/gcc/pic32mx/4.8.3/../../../../pic32mx/lib/fpu64\libpic32.a(xc32_uart.o)
 .text          0x00000000        0x0 d:/program files (x86)/microchip/xc32/v2.30/bin/bin/../../lib/gcc/pic32mx/4.8.3/../../../../pic32mx/lib/fpu64\libpic32.a(_mon_putc.o)
 .data          0x00000000        0x0 d:/program files (x86)/microchip/xc32/v2.30/bin/bin/../../lib/gcc/pic32mx/4.8.3/../../../../pic32mx/lib/fpu64\libpic32.a(_mon_putc.o)
 .bss           0x00000000        0x0 d:/program files (x86)/microchip/xc32/v2.30/bin/bin/../../lib/gcc/pic32mx/4.8.3/../../../../pic32mx/lib/fpu64\libpic32.a(_mon_putc.o)
 .reginfo       0x00000000       0x18 d:/program files (x86)/microchip/xc32/v2.30/bin/bin/../../lib/gcc/pic32mx/4.8.3/../../../../pic32mx/lib/fpu64\libpic32.a(_mon_putc.o)

Memory Configuration

Name             Origin             Length             Attributes
kseg0_program_mem 0x9d000000         0x00200000         xr
kseg0_boot_mem   0x9fc004b0         0x00000000
kseg1_boot_mem   0xbfc00000         0x00000480
kseg1_boot_mem_4B0 0xbfc004b0         0x0000fa50
config_BFC0FF40  0xbfc0ff40         0x00000004
config_BFC0FF44  0xbfc0ff44         0x00000004
config_BFC0FF48  0xbfc0ff48         0x00000004
config_BFC0FF4C  0xbfc0ff4c         0x00000004
config_BFC0FF50  0xbfc0ff50         0x00000004
config_BFC0FF54  0xbfc0ff54         0x00000004
config_BFC0FF58  0xbfc0ff58         0x00000004
config_BFC0FF5C  0xbfc0ff5c         0x00000004
config_BFC0FF60  0xbfc0ff60         0x00000004
config_BFC0FF64  0xbfc0ff64         0x00000004
config_BFC0FF68  0xbfc0ff68         0x00000004
config_BFC0FF6C  0xbfc0ff6c         0x00000004
config_BFC0FF70  0xbfc0ff70         0x00000004
config_BFC0FF74  0xbfc0ff74         0x00000004
config_BFC0FF78  0xbfc0ff78         0x00000004
config_BFC0FF7C  0xbfc0ff7c         0x00000004
config_BFC0FFC0  0xbfc0ffc0         0x00000004
config_BFC0FFC4  0xbfc0ffc4         0x00000004
config_BFC0FFC8  0xbfc0ffc8         0x00000004
config_BFC0FFCC  0xbfc0ffcc         0x00000004
config_BFC0FFD0  0xbfc0ffd0         0x00000004
config_BFC0FFD4  0xbfc0ffd4         0x00000004
config_BFC0FFD8  0xbfc0ffd8         0x00000004
config_BFC0FFDC  0xbfc0ffdc         0x00000004
config_BFC0FFE0  0xbfc0ffe0         0x00000004
config_BFC0FFE4  0xbfc0ffe4         0x00000004
config_BFC0FFE8  0xbfc0ffe8         0x00000004
config_BFC0FFEC  0xbfc0ffec         0x00000004
config_BFC0FFF0  0xbfc0fff0         0x00000004
config_BFC0FFF4  0xbfc0fff4         0x00000004
config_BFC0FFF8  0xbfc0fff8         0x00000004
config_BFC0FFFC  0xbfc0fffc         0x00000004
lowerbootaliaslastpage 0xbfc10000         0x00004000
upperbootalias   0xbfc20000         0x0000ff00
config_BFC2FF40  0xbfc2ff40         0x00000004
config_BFC2FF44  0xbfc2ff44         0x00000004
config_BFC2FF48  0xbfc2ff48         0x00000004
config_BFC2FF4C  0xbfc2ff4c         0x00000004
config_BFC2FF50  0xbfc2ff50         0x00000004
config_BFC2FF54  0xbfc2ff54         0x00000004
config_BFC2FF58  0xbfc2ff58         0x00000004
config_BFC2FF5C  0xbfc2ff5c         0x00000004
config_BFC2FF60  0xbfc2ff60         0x00000004
config_BFC2FF64  0xbfc2ff64         0x00000004
config_BFC2FF68  0xbfc2ff68         0x00000004
config_BFC2FF6C  0xbfc2ff6c         0x00000004
config_BFC2FF70  0xbfc2ff70         0x00000004
config_BFC2FF74  0xbfc2ff74         0x00000004
config_BFC2FF78  0xbfc2ff78         0x00000004
config_BFC2FF7C  0xbfc2ff7c         0x00000004
config_BFC2FFC0  0xbfc2ffc0         0x00000004
config_BFC2FFC4  0xbfc2ffc4         0x00000004
config_BFC2FFC8  0xbfc2ffc8         0x00000004
config_BFC2FFCC  0xbfc2ffcc         0x00000004
config_BFC2FFD0  0xbfc2ffd0         0x00000004
config_BFC2FFD4  0xbfc2ffd4         0x00000004
config_BFC2FFD8  0xbfc2ffd8         0x00000004
config_BFC2FFDC  0xbfc2ffdc         0x00000004
config_BFC2FFE0  0xbfc2ffe0         0x00000004
config_BFC2FFE4  0xbfc2ffe4         0x00000004
config_BFC2FFE8  0xbfc2ffe8         0x00000004
config_BFC2FFEC  0xbfc2ffec         0x00000004
config_BFC2FFF0  0xbfc2fff0         0x00000004
config_BFC2FFF4  0xbfc2fff4         0x00000004
config_BFC2FFF8  0xbfc2fff8         0x00000004
config_BFC2FFFC  0xbfc2fffc         0x00000004
upperbootaliaslastpage 0xbfc30000         0x00004000
boot1            0xbfc40000         0x0000ff00
config_BFC4FF40  0xbfc4ff40         0x00000004
config_BFC4FF44  0xbfc4ff44         0x00000004
config_BFC4FF48  0xbfc4ff48         0x00000004
config_BFC4FF4C  0xbfc4ff4c         0x00000004
config_BFC4FF50  0xbfc4ff50         0x00000004
config_BFC4FF54  0xbfc4ff54         0x00000004
config_BFC4FF58  0xbfc4ff58         0x00000004
config_BFC4FF5C  0xbfc4ff5c         0x00000004
config_BFC4FF60  0xbfc4ff60         0x00000004
config_BFC4FF64  0xbfc4ff64         0x00000004
config_BFC4FF68  0xbfc4ff68         0x00000004
config_BFC4FF6C  0xbfc4ff6c         0x00000004
config_BFC4FF70  0xbfc4ff70         0x00000004
config_BFC4FF74  0xbfc4ff74         0x00000004
config_BFC4FF78  0xbfc4ff78         0x00000004
config_BFC4FF7C  0xbfc4ff7c         0x00000004
config_BFC4FFC0  0xbfc4ffc0         0x00000004
config_BFC4FFC4  0xbfc4ffc4         0x00000004
config_BFC4FFC8  0xbfc4ffc8         0x00000004
config_BFC4FFCC  0xbfc4ffcc         0x00000004
config_BFC4FFD0  0xbfc4ffd0         0x00000004
config_BFC4FFD4  0xbfc4ffd4         0x00000004
config_BFC4FFD8  0xbfc4ffd8         0x00000004
config_BFC4FFDC  0xbfc4ffdc         0x00000004
config_BFC4FFE0  0xbfc4ffe0         0x00000004
config_BFC4FFE4  0xbfc4ffe4         0x00000004
config_BFC4FFE8  0xbfc4ffe8         0x00000004
config_BFC4FFEC  0xbfc4ffec         0x00000004
config_BFC4FFF0  0xbfc4fff0         0x00000004
config_BFC4FFF4  0xbfc4fff4         0x00000004
config_BFC4FFF8  0xbfc4fff8         0x00000004
config_BFC4FFFC  0xbfc4fffc         0x00000004
boot1lastpage    0xbfc50000         0x00004000
config_BFC54000  0xbfc54000         0x00000004
config_BFC54004  0xbfc54004         0x00000004
config_BFC54008  0xbfc54008         0x00000004
config_BFC5400C  0xbfc5400c         0x00000004
config_BFC54010  0xbfc54010         0x00000004
config_BFC5401C  0xbfc5401c         0x00000004
config_BFC54020  0xbfc54020         0x00000004
config_BFC54024  0xbfc54024         0x00000004
boot2            0xbfc60000         0x0000ff00
config_BFC6FF40  0xbfc6ff40         0x00000004
config_BFC6FF44  0xbfc6ff44         0x00000004
config_BFC6FF48  0xbfc6ff48         0x00000004
config_BFC6FF4C  0xbfc6ff4c         0x00000004
config_BFC6FF50  0xbfc6ff50         0x00000004
config_BFC6FF54  0xbfc6ff54         0x00000004
config_BFC6FF58  0xbfc6ff58         0x00000004
config_BFC6FF5C  0xbfc6ff5c         0x00000004
config_BFC6FF60  0xbfc6ff60         0x00000004
config_BFC6FF64  0xbfc6ff64         0x00000004
config_BFC6FF68  0xbfc6ff68         0x00000004
config_BFC6FF6C  0xbfc6ff6c         0x00000004
config_BFC6FF70  0xbfc6ff70         0x00000004
config_BFC6FF74  0xbfc6ff74         0x00000004
config_BFC6FF78  0xbfc6ff78         0x00000004
config_BFC6FF7C  0xbfc6ff7c         0x00000004
config_BFC6FFC0  0xbfc6ffc0         0x00000004
config_BFC6FFC4  0xbfc6ffc4         0x00000004
config_BFC6FFC8  0xbfc6ffc8         0x00000004
config_BFC6FFCC  0xbfc6ffcc         0x00000004
config_BFC6FFD0  0xbfc6ffd0         0x00000004
config_BFC6FFD4  0xbfc6ffd4         0x00000004
config_BFC6FFD8  0xbfc6ffd8         0x00000004
config_BFC6FFDC  0xbfc6ffdc         0x00000004
config_BFC6FFE0  0xbfc6ffe0         0x00000004
config_BFC6FFE4  0xbfc6ffe4         0x00000004
config_BFC6FFE8  0xbfc6ffe8         0x00000004
config_BFC6FFEC  0xbfc6ffec         0x00000004
config_BFC6FFF0  0xbfc6fff0         0x00000004
config_BFC6FFF4  0xbfc6fff4         0x00000004
config_BFC6FFF8  0xbfc6fff8         0x00000004
config_BFC6FFFC  0xbfc6fffc         0x00000004
boot2lastpage    0xbfc70000         0x00004000
kseg0_data_mem   0x80000000         0x00080000         w !x
sfrs             0xbf800000         0x00100000
configsfrs_BFC0FF40 0xbfc0ff40         0x00000040
configsfrs_BFC0FFC0 0xbfc0ffc0         0x00000040
configsfrs_BFC2FF40 0xbfc2ff40         0x00000040
configsfrs_BFC2FFC0 0xbfc2ffc0         0x00000040
configsfrs_BFC4FF40 0xbfc4ff40         0x00000040
configsfrs_BFC4FFC0 0xbfc4ffc0         0x00000040
configsfrs_BFC54000 0xbfc54000         0x00000020
configsfrs_BFC6FF40 0xbfc6ff40         0x00000040
configsfrs_BFC6FFC0 0xbfc6ffc0         0x00000040
kseg2_ebi_data_mem 0xc0000000         0x04000000
kseg2_sqi_data_mem 0xd0000000         0x04000000
kseg3_ebi_data_mem 0xe0000000         0x04000000
kseg3_sqi_data_mem 0xf0000000         0x04000000
*default*        0x00000000         0xffffffff

Linker script and memory map

LOAD d:/program files (x86)/microchip/xc32/v2.30/bin/bin/../../lib/gcc/pic32mx/4.8.3/../../../../pic32mx/lib/fpu64\debug-exception-return.o
LOAD build/default/production/_ext/110609098/drv_spi.o
LOAD build/default/production/_ext/1908449382/drv_spi_sys_queue_fifo.o
LOAD build/default/production/_ext/494209719/drv_tmr.o
LOAD build/default/production/_ext/115751837/drv_usart.o
LOAD build/default/production/_ext/115751837/drv_usart_buffer_queue.o
LOAD build/default/production/_ext/115751837/drv_usart_read_write.o
LOAD build/default/production/_ext/412220316/drv_wifi_com.o
LOAD build/default/production/_ext/412220316/drv_wifi_commands.o
LOAD build/default/production/_ext/412220316/drv_wifi_config_data.o
LOAD build/default/production/_ext/412220316/drv_wifi_connection_algorithm.o
LOAD build/default/production/_ext/412220316/drv_wifi_connection_manager.o
LOAD build/default/production/_ext/412220316/drv_wifi_connection_profile.o
LOAD build/default/production/_ext/412220316/drv_wifi_context_loader.o
LOAD build/default/production/_ext/412220316/drv_wifi_debug_output.o
LOAD build/default/production/_ext/412220316/drv_wifi_eint.o
LOAD build/default/production/_ext/412220316/drv_wifi_events.o
LOAD build/default/production/_ext/412220316/drv_wifi_event_handler.o
LOAD build/default/production/_ext/412220316/drv_wifi_init.o
LOAD build/default/production/_ext/412220316/drv_wifi_iwpriv.o
LOAD build/default/production/_ext/412220316/drv_wifi_mac.o
LOAD build/default/production/_ext/412220316/drv_wifi_main.o
LOAD build/default/production/_ext/412220316/drv_wifi_mgmt_msg.o
LOAD build/default/production/_ext/412220316/drv_wifi_param_msg.o
LOAD build/default/production/_ext/412220316/drv_wifi_pbkdf2.o
LOAD build/default/production/_ext/412220316/drv_wifi_power_save.o
LOAD build/default/production/_ext/412220316/drv_wifi_raw.o
LOAD build/default/production/_ext/412220316/drv_wifi_scan.o
LOAD build/default/production/_ext/412220316/drv_wifi_scan_helper.o
LOAD build/default/production/_ext/412220316/drv_wifi_softap_client_cache.o
LOAD build/default/production/_ext/412220316/drv_wifi_spi.o
LOAD build/default/production/_ext/412220316/drv_wifi_tx_power.o
LOAD build/default/production/_ext/412220316/drv_wifi_rtos_wrapper.o
LOAD build/default/production/_ext/2004362140/osal_freertos.o
LOAD build/default/production/_ext/1052224704/sys_command.o
LOAD build/default/production/_ext/595512524/sys_console.o
LOAD build/default/production/_ext/595512524/sys_console_uart.o
LOAD build/default/production/_ext/1855423469/sys_dma.o
LOAD build/default/production/_ext/2044150628/sys_int_pic32.o
LOAD build/default/production/_ext/1304044280/sys_random.o
LOAD build/default/production/_ext/398504132/sys_reset.o
LOAD build/default/production/_ext/1108686962/sys_tmr.o
LOAD build/default/production/_ext/126554269/ipv4.o
LOAD build/default/production/_ext/126554269/tcp.o
LOAD build/default/production/_ext/126554269/udp.o
LOAD build/default/production/_ext/126554269/tcpip_heap_alloc.o
LOAD build/default/production/_ext/126554269/tcpip_heap_internal.o
LOAD build/default/production/_ext/126554269/arp.o
LOAD build/default/production/_ext/126554269/dhcp.o
LOAD build/default/production/_ext/126554269/dns.o
LOAD build/default/production/_ext/126554269/icmp.o
LOAD build/default/production/_ext/126554269/nbns.o
LOAD build/default/production/_ext/126554269/zero_conf_helper.o
LOAD build/default/production/_ext/126554269/zero_conf_link_local.o
LOAD build/default/production/_ext/126554269/tcpip_announce.o
LOAD build/default/production/_ext/126554269/tcpip_commands.o
LOAD build/default/production/_ext/1551925347/helpers.o
LOAD build/default/production/_ext/126554269/hash_fnv.o
LOAD build/default/production/_ext/126554269/oahash.o
LOAD build/default/production/_ext/126554269/tcpip_helpers.o
LOAD build/default/production/_ext/126554269/tcpip_helper_c32.o
LOAD build/default/production/_ext/126554269/tcpip_manager.o
LOAD build/default/production/_ext/126554269/tcpip_notify.o
LOAD build/default/production/_ext/126554269/tcpip_packet.o
LOAD build/default/production/_ext/1808430591/croutine.o
LOAD build/default/production/_ext/1808430591/list.o
LOAD build/default/production/_ext/1808430591/queue.o
LOAD build/default/production/_ext/1808430591/tasks.o
LOAD build/default/production/_ext/1808430591/timers.o
LOAD build/default/production/_ext/1808430591/event_groups.o
LOAD build/default/production/_ext/508667646/heap_2.o
LOAD build/default/production/_ext/417601773/port.o
LOAD build/default/production/_ext/417601773/port_asm.o
LOAD build/default/production/_ext/1360937237/wnetcom.o
LOAD build/default/production/_ext/977502197/drv_spi_tasks.o
LOAD build/default/production/_ext/977502197/drv_spi_api.o
LOAD build/default/production/_ext/977502197/drv_spi_master_ebm_tasks.o
LOAD build/default/production/_ext/977502197/drv_spi_master_dma_tasks.o
LOAD build/default/production/_ext/639803181/sys_clk.o
LOAD build/default/production/_ext/639803181/sys_clk_pic32mz.o
LOAD build/default/production/_ext/340578644/sys_devcon.o
LOAD build/default/production/_ext/340578644/sys_devcon_pic32mz.o
LOAD build/default/production/_ext/340578644/sys_devcon_cache_pic32mz.o
LOAD build/default/production/_ext/822048611/sys_ports_static.o
LOAD build/default/production/_ext/1688732426/system_init.o
LOAD build/default/production/_ext/1688732426/system_interrupt.o
LOAD build/default/production/_ext/1688732426/system_exceptions.o
LOAD build/default/production/_ext/1360937237/main.o
LOAD build/default/production/_ext/1688732426/system_tasks.o
LOAD build/default/production/_ext/1688732426/system_interrupt_a.o
LOAD build/default/production/_ext/1688732426/rtos_hooks.o
LOAD ..\..\..\..\..\..\microchip\harmony\v2_02_00b\bin\framework\peripheral\PIC32MZ2048EFG100_peripherals.a
                0x00000001                __MPLAB_BUILD = 0x1
                0x0000afa0                _min_heap_size = 0xafa0
LOAD C:\Users\KIKI\AppData\Local\Temp\ccW6W84J.o
LOAD C:\Users\KIKI\AppData\Local\Temp\ccpylwu5.o
LOAD C:\Users\KIKI\AppData\Local\Temp\ccivBgIW.o
LOAD d:/program files (x86)/microchip/xc32/v2.30/bin/bin/../../lib/gcc/pic32mx/4.8.3/../../../../pic32mx/lib/./proc/32MZ2048EFG100\default_isr_vectors.o
LOAD d:/program files (x86)/microchip/xc32/v2.30/bin/bin/../../lib/gcc/pic32mx/4.8.3/../../../../pic32mx/lib/fpu64\pic32_software_reset.o
                0x00000400                PROVIDE (_min_stack_size, 0x400)
START GROUP
LOAD d:/program files (x86)/microchip/xc32/v2.30/bin/bin/../../lib/gcc/pic32mx/4.8.3/../../../../pic32mx/lib/./proc/32MZ2048EFG100\processor.o
END GROUP
START GROUP
LOAD d:/program files (x86)/microchip/xc32/v2.30/bin/bin/../../lib/gcc/pic32mx/4.8.3/../../../../pic32mx/lib/./proc/32MZ2048EFG100\vector_offset_init.o
END GROUP
                0x00000001                PROVIDE (_vector_spacing, 0x1)
                0x9d000000                PROVIDE (_ebase_address, 0x9d000000)
                0xbfc00000                _RESET_ADDR = 0xbfc00000
                0xbfc00380                _BEV_EXCPT_ADDR = 0xbfc00380
                0xbfc00480                _DBG_EXCPT_ADDR = 0xbfc00480
                0x9d000000                _SIMPLE_TLB_REFILL_EXCPT_ADDR = (_ebase_address + 0x0)
                0x9d000100                _CACHE_ERR_EXCPT_ADDR = (_ebase_address + 0x100)
                0x9d000180                _GEN_EXCPT_ADDR = (_ebase_address + 0x180)

.config_BFC0FF40
 *(.config_BFC0FF40)

.config_BFC0FF44
 *(.config_BFC0FF44)

.config_BFC0FF48
 *(.config_BFC0FF48)

.config_BFC0FF4C
 *(.config_BFC0FF4C)

.config_BFC0FF50
 *(.config_BFC0FF50)

.config_BFC0FF54
 *(.config_BFC0FF54)

.config_BFC0FF58
 *(.config_BFC0FF58)

.config_BFC0FF5C
 *(.config_BFC0FF5C)

.config_BFC0FF60
 *(.config_BFC0FF60)

.config_BFC0FF64
 *(.config_BFC0FF64)

.config_BFC0FF68
 *(.config_BFC0FF68)

.config_BFC0FF6C
 *(.config_BFC0FF6C)

.config_BFC0FF70
 *(.config_BFC0FF70)

.config_BFC0FF74
 *(.config_BFC0FF74)

.config_BFC0FF78
 *(.config_BFC0FF78)

.config_BFC0FF7C
 *(.config_BFC0FF7C)

.config_BFC0FFC0
                0xbfc0ffc0        0x4
 *(.config_BFC0FFC0)
 .config_BFC0FFC0
                0xbfc0ffc0        0x4 build/default/production/_ext/1688732426/system_init.o

.config_BFC0FFC4
                0xbfc0ffc4        0x4
 *(.config_BFC0FFC4)
 .config_BFC0FFC4
                0xbfc0ffc4        0x4 build/default/production/_ext/1688732426/system_init.o

.config_BFC0FFC8
                0xbfc0ffc8        0x4
 *(.config_BFC0FFC8)
 .config_BFC0FFC8
                0xbfc0ffc8        0x4 build/default/production/_ext/1688732426/system_init.o

.config_BFC0FFCC
                0xbfc0ffcc        0x4
 *(.config_BFC0FFCC)
 .config_BFC0FFCC
                0xbfc0ffcc        0x4 build/default/production/_ext/1688732426/system_init.o

.config_BFC0FFD0
 *(.config_BFC0FFD0)

.config_BFC0FFD4
 *(.config_BFC0FFD4)

.config_BFC0FFD8
 *(.config_BFC0FFD8)

.config_BFC0FFDC
                0xbfc0ffdc        0x4
 *(.config_BFC0FFDC)
 .config_BFC0FFDC
                0xbfc0ffdc        0x4 build/default/production/_ext/1688732426/system_init.o

.config_BFC0FFE0
 *(.config_BFC0FFE0)

.config_BFC0FFE4
 *(.config_BFC0FFE4)

.config_BFC0FFE8
 *(.config_BFC0FFE8)

.config_BFC0FFEC
 *(.config_BFC0FFEC)

.config_BFC0FFF0
                0xbfc0fff0        0x4
 *(.config_BFC0FFF0)
 .config_BFC0FFF0
                0xbfc0fff0        0x4 build/default/production/_ext/1688732426/system_init.o

.config_BFC0FFF4
 *(.config_BFC0FFF4)

.config_BFC0FFF8
 *(.config_BFC0FFF8)

.config_BFC0FFFC
 *(.config_BFC0FFFC)

.config_BFC2FF40
 *(.config_BFC2FF40)

.config_BFC2FF44
 *(.config_BFC2FF44)

.config_BFC2FF48
 *(.config_BFC2FF48)

.config_BFC2FF4C
 *(.config_BFC2FF4C)

.config_BFC2FF50
 *(.config_BFC2FF50)

.config_BFC2FF54
 *(.config_BFC2FF54)

.config_BFC2FF58
 *(.config_BFC2FF58)

.config_BFC2FF5C
 *(.config_BFC2FF5C)

.config_BFC2FF60
 *(.config_BFC2FF60)

.config_BFC2FF64
 *(.config_BFC2FF64)

.config_BFC2FF68
 *(.config_BFC2FF68)

.config_BFC2FF6C
 *(.config_BFC2FF6C)

.config_BFC2FF70
 *(.config_BFC2FF70)

.config_BFC2FF74
 *(.config_BFC2FF74)

.config_BFC2FF78
 *(.config_BFC2FF78)

.config_BFC2FF7C
 *(.config_BFC2FF7C)

.config_BFC2FFC0
 *(.config_BFC2FFC0)

.config_BFC2FFC4
 *(.config_BFC2FFC4)

.config_BFC2FFC8
 *(.config_BFC2FFC8)

.config_BFC2FFCC
 *(.config_BFC2FFCC)

.config_BFC2FFD0
 *(.config_BFC2FFD0)

.config_BFC2FFD4
 *(.config_BFC2FFD4)

.config_BFC2FFD8
 *(.config_BFC2FFD8)

.config_BFC2FFDC
 *(.config_BFC2FFDC)

.config_BFC2FFE0
 *(.config_BFC2FFE0)

.config_BFC2FFE4
 *(.config_BFC2FFE4)

.config_BFC2FFE8
 *(.config_BFC2FFE8)

.config_BFC2FFEC
 *(.config_BFC2FFEC)

.config_BFC2FFF0
 *(.config_BFC2FFF0)

.config_BFC2FFF4
 *(.config_BFC2FFF4)

.config_BFC2FFF8
 *(.config_BFC2FFF8)

.config_BFC2FFFC
 *(.config_BFC2FFFC)

.config_BFC4FF40
 *(.config_BFC4FF40)

.config_BFC4FF44
 *(.config_BFC4FF44)

.config_BFC4FF48
 *(.config_BFC4FF48)

.config_BFC4FF4C
 *(.config_BFC4FF4C)

.config_BFC4FF50
 *(.config_BFC4FF50)

.config_BFC4FF54
 *(.config_BFC4FF54)

.config_BFC4FF58
 *(.config_BFC4FF58)

.config_BFC4FF5C
 *(.config_BFC4FF5C)

.config_BFC4FF60
 *(.config_BFC4FF60)

.config_BFC4FF64
 *(.config_BFC4FF64)

.config_BFC4FF68
 *(.config_BFC4FF68)

.config_BFC4FF6C
 *(.config_BFC4FF6C)

.config_BFC4FF70
 *(.config_BFC4FF70)

.config_BFC4FF74
 *(.config_BFC4FF74)

.config_BFC4FF78
 *(.config_BFC4FF78)

.config_BFC4FF7C
 *(.config_BFC4FF7C)

.config_BFC4FFC0
 *(.config_BFC4FFC0)

.config_BFC4FFC4
 *(.config_BFC4FFC4)

.config_BFC4FFC8
 *(.config_BFC4FFC8)

.config_BFC4FFCC
 *(.config_BFC4FFCC)

.config_BFC4FFD0
 *(.config_BFC4FFD0)

.config_BFC4FFD4
 *(.config_BFC4FFD4)

.config_BFC4FFD8
 *(.config_BFC4FFD8)

.config_BFC4FFDC
 *(.config_BFC4FFDC)

.config_BFC4FFE0
 *(.config_BFC4FFE0)

.config_BFC4FFE4
 *(.config_BFC4FFE4)

.config_BFC4FFE8
 *(.config_BFC4FFE8)

.config_BFC4FFEC
 *(.config_BFC4FFEC)

.config_BFC4FFF0
 *(.config_BFC4FFF0)

.config_BFC4FFF4
 *(.config_BFC4FFF4)

.config_BFC4FFF8
 *(.config_BFC4FFF8)

.config_BFC4FFFC
 *(.config_BFC4FFFC)

.config_BFC54000
 *(.config_BFC54000)

.config_BFC54004
 *(.config_BFC54004)

.config_BFC54008
 *(.config_BFC54008)

.config_BFC5400C
 *(.config_BFC5400C)

.config_BFC54010
 *(.config_BFC54010)

.config_BFC5401C
 *(.config_BFC5401C)

.config_BFC54020
 *(.config_BFC54020)

.config_BFC54024
 *(.config_BFC54024)

.config_BFC6FF40
 *(.config_BFC6FF40)

.config_BFC6FF44
 *(.config_BFC6FF44)

.config_BFC6FF48
 *(.config_BFC6FF48)

.config_BFC6FF4C
 *(.config_BFC6FF4C)

.config_BFC6FF50
 *(.config_BFC6FF50)

.config_BFC6FF54
 *(.config_BFC6FF54)

.config_BFC6FF58
 *(.config_BFC6FF58)

.config_BFC6FF5C
 *(.config_BFC6FF5C)

.config_BFC6FF60
 *(.config_BFC6FF60)

.config_BFC6FF64
 *(.config_BFC6FF64)

.config_BFC6FF68
 *(.config_BFC6FF68)

.config_BFC6FF6C
 *(.config_BFC6FF6C)

.config_BFC6FF70
 *(.config_BFC6FF70)

.config_BFC6FF74
 *(.config_BFC6FF74)

.config_BFC6FF78
 *(.config_BFC6FF78)

.config_BFC6FF7C
 *(.config_BFC6FF7C)

.config_BFC6FFC0
 *(.config_BFC6FFC0)

.config_BFC6FFC4
 *(.config_BFC6FFC4)

.config_BFC6FFC8
 *(.config_BFC6FFC8)

.config_BFC6FFCC
 *(.config_BFC6FFCC)

.config_BFC6FFD0
 *(.config_BFC6FFD0)

.config_BFC6FFD4
 *(.config_BFC6FFD4)

.config_BFC6FFD8
 *(.config_BFC6FFD8)

.config_BFC6FFDC
 *(.config_BFC6FFDC)

.config_BFC6FFE0
 *(.config_BFC6FFE0)

.config_BFC6FFE4
 *(.config_BFC6FFE4)

.config_BFC6FFE8
 *(.config_BFC6FFE8)

.config_BFC6FFEC
 *(.config_BFC6FFEC)

.config_BFC6FFF0
 *(.config_BFC6FFF0)

.config_BFC6FFF4
 *(.config_BFC6FFF4)

.config_BFC6FFF8
 *(.config_BFC6FFF8)

.config_BFC6FFFC
 *(.config_BFC6FFFC)

.reset          0xbfc00000      0x1b4
 *(.reset)
 .reset         0xbfc00000       0x18 C:\Users\KIKI\AppData\Local\Temp\ccW6W84J.o
                0xbfc00000                _reset
 *(.reset.startup)
 .reset.startup
                0xbfc00018      0x19c C:\Users\KIKI\AppData\Local\Temp\ccW6W84J.o
                0xbfc00018                _startup

.bev_excpt      0xbfc00380       0x10
 *(.bev_handler)
 .bev_handler   0xbfc00380       0x10 C:\Users\KIKI\AppData\Local\Temp\ccW6W84J.o

.cache_init     0xbfc004b0      0x1c0
 *(.cache_init)
 *(.cache_init.*)
 .cache_init.cache
                0xbfc004b0       0xc0 d:/program files (x86)/microchip/xc32/v2.30/bin/bin/../../lib/gcc/pic32mx/4.8.3/../../../../pic32mx/lib/fpu64\libpic32.a(pic32_init_cache.o)
 .cache_init.pic32_init_cache
                0xbfc00570      0x100 d:/program files (x86)/microchip/xc32/v2.30/bin/bin/../../lib/gcc/pic32mx/4.8.3/../../../../pic32mx/lib/fpu64\libpic32.a(pic32_init_cache.o)
                0xbfc00570                __pic32_init_cache

.simple_tlb_refill_excpt
                0x9d000000       0x10
 *(.simple_tlb_refill_vector)
 .simple_tlb_refill_vector
                0x9d000000       0x10 C:\Users\KIKI\AppData\Local\Temp\ccW6W84J.o

.cache_err_excpt
                0x9d000100       0x10
 *(.cache_err_vector)
 .cache_err_vector
                0x9d000100       0x10 C:\Users\KIKI\AppData\Local\Temp\ccW6W84J.o

.app_excpt      0x9d000180       0x10
 *(.gen_handler)
 .gen_handler   0x9d000180       0x10 C:\Users\KIKI\AppData\Local\Temp\ccW6W84J.o

.vectors        0x9d000200     0x1ad4
                0x9d000200                . = ALIGN (0x4)
                0x00001c8c                __vector_offset_0 = DEFINED (__vector_dispatch_0)?(. - _ebase_address):__vector_offset_default
 *(.vector_0)
                0x9d000200                . = ALIGN (0x4)
                0x00000200                __vector_offset_1 = DEFINED (__vector_dispatch_1)?(. - _ebase_address):__vector_offset_default
 *(.vector_1)
 .vector_1      0x9d000200      0x258 build/default/production/_ext/417601773/port_asm.o
                0x9d000200                __vector_dispatch_1
                0x9d000200                vPortYieldISR
                0x9d000458                . = ALIGN (0x4)
                0x00001c8c                __vector_offset_2 = DEFINED (__vector_dispatch_2)?(. - _ebase_address):__vector_offset_default
 *(.vector_2)
                0x9d000458                . = ALIGN (0x4)
                0x00001c8c                __vector_offset_3 = DEFINED (__vector_dispatch_3)?(. - _ebase_address):__vector_offset_default
 *(.vector_3)
                0x9d000458                . = ALIGN (0x4)
                0x00000458                __vector_offset_4 = DEFINED (__vector_dispatch_4)?(. - _ebase_address):__vector_offset_default
 *(.vector_4)
 .vector_4      0x9d000458      0x22c build/default/production/_ext/417601773/port_asm.o
                0x9d000458                __vector_dispatch_4
                0x9d000458                vPortTickInterruptHandler
                0x9d000684                . = ALIGN (0x4)
                0x00001c8c                __vector_offset_5 = DEFINED (__vector_dispatch_5)?(. - _ebase_address):__vector_offset_default
 *(.vector_5)
                0x9d000684                . = ALIGN (0x4)
                0x00001c8c                __vector_offset_6 = DEFINED (__vector_dispatch_6)?(. - _ebase_address):__vector_offset_default
 *(.vector_6)
                0x9d000684                . = ALIGN (0x4)
                0x00001c8c                __vector_offset_7 = DEFINED (__vector_dispatch_7)?(. - _ebase_address):__vector_offset_default
 *(.vector_7)
                0x9d000684                . = ALIGN (0x4)
                0x00001c8c                __vector_offset_8 = DEFINED (__vector_dispatch_8)?(. - _ebase_address):__vector_offset_default
 *(.vector_8)
                0x9d000684                . = ALIGN (0x4)
                0x00000684                __vector_offset_9 = DEFINED (__vector_dispatch_9)?(. - _ebase_address):__vector_offset_default
 *(.vector_9)
 .vector_9      0x9d000684      0x234 build/default/production/_ext/1688732426/system_interrupt_a.o
                0x9d000684                __vector_dispatch_9
                0x9d0008b8                . = ALIGN (0x4)
                0x00001c8c                __vector_offset_10 = DEFINED (__vector_dispatch_10)?(. - _ebase_address):__vector_offset_default
 *(.vector_10)
                0x9d0008b8                . = ALIGN (0x4)
                0x00001c8c                __vector_offset_11 = DEFINED (__vector_dispatch_11)?(. - _ebase_address):__vector_offset_default
 *(.vector_11)
                0x9d0008b8                . = ALIGN (0x4)
                0x00001c8c                __vector_offset_12 = DEFINED (__vector_dispatch_12)?(. - _ebase_address):__vector_offset_default
 *(.vector_12)
                0x9d0008b8                . = ALIGN (0x4)
                0x00001c8c                __vector_offset_13 = DEFINED (__vector_dispatch_13)?(. - _ebase_address):__vector_offset_default
 *(.vector_13)
                0x9d0008b8                . = ALIGN (0x4)
                0x00001c8c                __vector_offset_14 = DEFINED (__vector_dispatch_14)?(. - _ebase_address):__vector_offset_default
 *(.vector_14)
                0x9d0008b8                . = ALIGN (0x4)
                0x00001c8c                __vector_offset_15 = DEFINED (__vector_dispatch_15)?(. - _ebase_address):__vector_offset_default
 *(.vector_15)
                0x9d0008b8                . = ALIGN (0x4)
                0x00001c8c                __vector_offset_16 = DEFINED (__vector_dispatch_16)?(. - _ebase_address):__vector_offset_default
 *(.vector_16)
                0x9d0008b8                . = ALIGN (0x4)
                0x00001c8c                __vector_offset_17 = DEFINED (__vector_dispatch_17)?(. - _ebase_address):__vector_offset_default
 *(.vector_17)
                0x9d0008b8                . = ALIGN (0x4)
                0x00001c8c                __vector_offset_18 = DEFINED (__vector_dispatch_18)?(. - _ebase_address):__vector_offset_default
 *(.vector_18)
                0x9d0008b8                . = ALIGN (0x4)
                0x00001c8c                __vector_offset_19 = DEFINED (__vector_dispatch_19)?(. - _ebase_address):__vector_offset_default
 *(.vector_19)
                0x9d0008b8                . = ALIGN (0x4)
                0x00001c8c                __vector_offset_20 = DEFINED (__vector_dispatch_20)?(. - _ebase_address):__vector_offset_default
 *(.vector_20)
                0x9d0008b8                . = ALIGN (0x4)
                0x00001c8c                __vector_offset_21 = DEFINED (__vector_dispatch_21)?(. - _ebase_address):__vector_offset_default
 *(.vector_21)
                0x9d0008b8                . = ALIGN (0x4)
                0x00001c8c                __vector_offset_22 = DEFINED (__vector_dispatch_22)?(. - _ebase_address):__vector_offset_default
 *(.vector_22)
                0x9d0008b8                . = ALIGN (0x4)
                0x000008b8                __vector_offset_23 = DEFINED (__vector_dispatch_23)?(. - _ebase_address):__vector_offset_default
 *(.vector_23)
 .vector_23     0x9d0008b8      0x234 build/default/production/_ext/1688732426/system_interrupt_a.o
                0x9d0008b8                __vector_dispatch_23
                0x9d000aec                . = ALIGN (0x4)
                0x00001c8c                __vector_offset_24 = DEFINED (__vector_dispatch_24)?(. - _ebase_address):__vector_offset_default
 *(.vector_24)
                0x9d000aec                . = ALIGN (0x4)
                0x00001c8c                __vector_offset_25 = DEFINED (__vector_dispatch_25)?(. - _ebase_address):__vector_offset_default
 *(.vector_25)
                0x9d000aec                . = ALIGN (0x4)
                0x00001c8c                __vector_offset_26 = DEFINED (__vector_dispatch_26)?(. - _ebase_address):__vector_offset_default
 *(.vector_26)
                0x9d000aec                . = ALIGN (0x4)
                0x00001c8c                __vector_offset_27 = DEFINED (__vector_dispatch_27)?(. - _ebase_address):__vector_offset_default
 *(.vector_27)
                0x9d000aec                . = ALIGN (0x4)
                0x00001c8c                __vector_offset_28 = DEFINED (__vector_dispatch_28)?(. - _ebase_address):__vector_offset_default
 *(.vector_28)
                0x9d000aec                . = ALIGN (0x4)
                0x00001c8c                __vector_offset_29 = DEFINED (__vector_dispatch_29)?(. - _ebase_address):__vector_offset_default
 *(.vector_29)
                0x9d000aec                . = ALIGN (0x4)
                0x00001c8c                __vector_offset_30 = DEFINED (__vector_dispatch_30)?(. - _ebase_address):__vector_offset_default
 *(.vector_30)
                0x9d000aec                . = ALIGN (0x4)
                0x00001c8c                __vector_offset_31 = DEFINED (__vector_dispatch_31)?(. - _ebase_address):__vector_offset_default
 *(.vector_31)
                0x9d000aec                . = ALIGN (0x4)
                0x00001c8c                __vector_offset_32 = DEFINED (__vector_dispatch_32)?(. - _ebase_address):__vector_offset_default
 *(.vector_32)
                0x9d000aec                . = ALIGN (0x4)
                0x00001c8c                __vector_offset_33 = DEFINED (__vector_dispatch_33)?(. - _ebase_address):__vector_offset_default
 *(.vector_33)
                0x9d000aec                . = ALIGN (0x4)
                0x00001c8c                __vector_offset_34 = DEFINED (__vector_dispatch_34)?(. - _ebase_address):__vector_offset_default
 *(.vector_34)
                0x9d000aec                . = ALIGN (0x4)
                0x00001c8c                __vector_offset_35 = DEFINED (__vector_dispatch_35)?(. - _ebase_address):__vector_offset_default
 *(.vector_35)
                0x9d000aec                . = ALIGN (0x4)
                0x00001c8c                __vector_offset_36 = DEFINED (__vector_dispatch_36)?(. - _ebase_address):__vector_offset_default
 *(.vector_36)
                0x9d000aec                . = ALIGN (0x4)
                0x00001c8c                __vector_offset_37 = DEFINED (__vector_dispatch_37)?(. - _ebase_address):__vector_offset_default
 *(.vector_37)
                0x9d000aec                . = ALIGN (0x4)
                0x00001c8c                __vector_offset_38 = DEFINED (__vector_dispatch_38)?(. - _ebase_address):__vector_offset_default
 *(.vector_38)
                0x9d000aec                . = ALIGN (0x4)
                0x00001c8c                __vector_offset_39 = DEFINED (__vector_dispatch_39)?(. - _ebase_address):__vector_offset_default
 *(.vector_39)
                0x9d000aec                . = ALIGN (0x4)
                0x00001c8c                __vector_offset_40 = DEFINED (__vector_dispatch_40)?(. - _ebase_address):__vector_offset_default
 *(.vector_40)
                0x9d000aec                . = ALIGN (0x4)
                0x00001c8c                __vector_offset_41 = DEFINED (__vector_dispatch_41)?(. - _ebase_address):__vector_offset_default
 *(.vector_41)
                0x9d000aec                . = ALIGN (0x4)
                0x00001c8c                __vector_offset_42 = DEFINED (__vector_dispatch_42)?(. - _ebase_address):__vector_offset_default
 *(.vector_42)
                0x9d000aec                . = ALIGN (0x4)
                0x00001c8c                __vector_offset_43 = DEFINED (__vector_dispatch_43)?(. - _ebase_address):__vector_offset_default
 *(.vector_43)
                0x9d000aec                . = ALIGN (0x4)
                0x00001c8c                __vector_offset_44 = DEFINED (__vector_dispatch_44)?(. - _ebase_address):__vector_offset_default
 *(.vector_44)
                0x9d000aec                . = ALIGN (0x4)
                0x00001c8c                __vector_offset_45 = DEFINED (__vector_dispatch_45)?(. - _ebase_address):__vector_offset_default
 *(.vector_45)
                0x9d000aec                . = ALIGN (0x4)
                0x00001c8c                __vector_offset_46 = DEFINED (__vector_dispatch_46)?(. - _ebase_address):__vector_offset_default
 *(.vector_46)
                0x9d000aec                . = ALIGN (0x4)
                0x00001c8c                __vector_offset_47 = DEFINED (__vector_dispatch_47)?(. - _ebase_address):__vector_offset_default
 *(.vector_47)
                0x9d000aec                . = ALIGN (0x4)
                0x00001c8c                __vector_offset_48 = DEFINED (__vector_dispatch_48)?(. - _ebase_address):__vector_offset_default
 *(.vector_48)
                0x9d000aec                . = ALIGN (0x4)
                0x00001c8c                __vector_offset_49 = DEFINED (__vector_dispatch_49)?(. - _ebase_address):__vector_offset_default
 *(.vector_49)
                0x9d000aec                . = ALIGN (0x4)
                0x00001c8c                __vector_offset_50 = DEFINED (__vector_dispatch_50)?(. - _ebase_address):__vector_offset_default
 *(.vector_50)
                0x9d000aec                . = ALIGN (0x4)
                0x00001c8c                __vector_offset_51 = DEFINED (__vector_dispatch_51)?(. - _ebase_address):__vector_offset_default
 *(.vector_51)
                0x9d000aec                . = ALIGN (0x4)
                0x00001c8c                __vector_offset_52 = DEFINED (__vector_dispatch_52)?(. - _ebase_address):__vector_offset_default
 *(.vector_52)
                0x9d000aec                . = ALIGN (0x4)
                0x00001c8c                __vector_offset_53 = DEFINED (__vector_dispatch_53)?(. - _ebase_address):__vector_offset_default
 *(.vector_53)
                0x9d000aec                . = ALIGN (0x4)
                0x00001c8c                __vector_offset_54 = DEFINED (__vector_dispatch_54)?(. - _ebase_address):__vector_offset_default
 *(.vector_54)
                0x9d000aec                . = ALIGN (0x4)
                0x00001c8c                __vector_offset_55 = DEFINED (__vector_dispatch_55)?(. - _ebase_address):__vector_offset_default
 *(.vector_55)
                0x9d000aec                . = ALIGN (0x4)
                0x00001c8c                __vector_offset_56 = DEFINED (__vector_dispatch_56)?(. - _ebase_address):__vector_offset_default
 *(.vector_56)
                0x9d000aec                . = ALIGN (0x4)
                0x00001c8c                __vector_offset_57 = DEFINED (__vector_dispatch_57)?(. - _ebase_address):__vector_offset_default
 *(.vector_57)
                0x9d000aec                . = ALIGN (0x4)
                0x00001c8c                __vector_offset_58 = DEFINED (__vector_dispatch_58)?(. - _ebase_address):__vector_offset_default
 *(.vector_58)
                0x9d000aec                . = ALIGN (0x4)
                0x00001c8c                __vector_offset_59 = DEFINED (__vector_dispatch_59)?(. - _ebase_address):__vector_offset_default
 *(.vector_59)
                0x9d000aec                . = ALIGN (0x4)
                0x00001c8c                __vector_offset_60 = DEFINED (__vector_dispatch_60)?(. - _ebase_address):__vector_offset_default
 *(.vector_60)
                0x9d000aec                . = ALIGN (0x4)
                0x00001c8c                __vector_offset_61 = DEFINED (__vector_dispatch_61)?(. - _ebase_address):__vector_offset_default
 *(.vector_61)
                0x9d000aec                . = ALIGN (0x4)
                0x00001c8c                __vector_offset_62 = DEFINED (__vector_dispatch_62)?(. - _ebase_address):__vector_offset_default
 *(.vector_62)
                0x9d000aec                . = ALIGN (0x4)
                0x00001c8c                __vector_offset_63 = DEFINED (__vector_dispatch_63)?(. - _ebase_address):__vector_offset_default
 *(.vector_63)
                0x9d000aec                . = ALIGN (0x4)
                0x00001c8c                __vector_offset_64 = DEFINED (__vector_dispatch_64)?(. - _ebase_address):__vector_offset_default
 *(.vector_64)
                0x9d000aec                . = ALIGN (0x4)
                0x00001c8c                __vector_offset_65 = DEFINED (__vector_dispatch_65)?(. - _ebase_address):__vector_offset_default
 *(.vector_65)
                0x9d000aec                . = ALIGN (0x4)
                0x00001c8c                __vector_offset_66 = DEFINED (__vector_dispatch_66)?(. - _ebase_address):__vector_offset_default
 *(.vector_66)
                0x9d000aec                . = ALIGN (0x4)
                0x00001c8c                __vector_offset_67 = DEFINED (__vector_dispatch_67)?(. - _ebase_address):__vector_offset_default
 *(.vector_67)
                0x9d000aec                . = ALIGN (0x4)
                0x00001c8c                __vector_offset_68 = DEFINED (__vector_dispatch_68)?(. - _ebase_address):__vector_offset_default
 *(.vector_68)
                0x9d000aec                . = ALIGN (0x4)
                0x00001c8c                __vector_offset_69 = DEFINED (__vector_dispatch_69)?(. - _ebase_address):__vector_offset_default
 *(.vector_69)
                0x9d000aec                . = ALIGN (0x4)
                0x00001c8c                __vector_offset_70 = DEFINED (__vector_dispatch_70)?(. - _ebase_address):__vector_offset_default
 *(.vector_70)
                0x9d000aec                . = ALIGN (0x4)
                0x00001c8c                __vector_offset_71 = DEFINED (__vector_dispatch_71)?(. - _ebase_address):__vector_offset_default
 *(.vector_71)
                0x9d000aec                . = ALIGN (0x4)
                0x00001c8c                __vector_offset_72 = DEFINED (__vector_dispatch_72)?(. - _ebase_address):__vector_offset_default
 *(.vector_72)
                0x9d000aec                . = ALIGN (0x4)
                0x00001c8c                __vector_offset_73 = DEFINED (__vector_dispatch_73)?(. - _ebase_address):__vector_offset_default
 *(.vector_73)
                0x9d000aec                . = ALIGN (0x4)
                0x00001c8c                __vector_offset_74 = DEFINED (__vector_dispatch_74)?(. - _ebase_address):__vector_offset_default
 *(.vector_74)
                0x9d000aec                . = ALIGN (0x4)
                0x00001c8c                __vector_offset_75 = DEFINED (__vector_dispatch_75)?(. - _ebase_address):__vector_offset_default
 *(.vector_75)
                0x9d000aec                . = ALIGN (0x4)
                0x00001c8c                __vector_offset_76 = DEFINED (__vector_dispatch_76)?(. - _ebase_address):__vector_offset_default
 *(.vector_76)
                0x9d000aec                . = ALIGN (0x4)
                0x00001c8c                __vector_offset_77 = DEFINED (__vector_dispatch_77)?(. - _ebase_address):__vector_offset_default
 *(.vector_77)
                0x9d000aec                . = ALIGN (0x4)
                0x00001c8c                __vector_offset_78 = DEFINED (__vector_dispatch_78)?(. - _ebase_address):__vector_offset_default
 *(.vector_78)
                0x9d000aec                . = ALIGN (0x4)
                0x00001c8c                __vector_offset_79 = DEFINED (__vector_dispatch_79)?(. - _ebase_address):__vector_offset_default
 *(.vector_79)
                0x9d000aec                . = ALIGN (0x4)
                0x00001c8c                __vector_offset_80 = DEFINED (__vector_dispatch_80)?(. - _ebase_address):__vector_offset_default
 *(.vector_80)
                0x9d000aec                . = ALIGN (0x4)
                0x00001c8c                __vector_offset_81 = DEFINED (__vector_dispatch_81)?(. - _ebase_address):__vector_offset_default
 *(.vector_81)
                0x9d000aec                . = ALIGN (0x4)
                0x00001c8c                __vector_offset_82 = DEFINED (__vector_dispatch_82)?(. - _ebase_address):__vector_offset_default
 *(.vector_82)
                0x9d000aec                . = ALIGN (0x4)
                0x00001c8c                __vector_offset_83 = DEFINED (__vector_dispatch_83)?(. - _ebase_address):__vector_offset_default
 *(.vector_83)
                0x9d000aec                . = ALIGN (0x4)
                0x00001c8c                __vector_offset_84 = DEFINED (__vector_dispatch_84)?(. - _ebase_address):__vector_offset_default
 *(.vector_84)
                0x9d000aec                . = ALIGN (0x4)
                0x00001c8c                __vector_offset_85 = DEFINED (__vector_dispatch_85)?(. - _ebase_address):__vector_offset_default
 *(.vector_85)
                0x9d000aec                . = ALIGN (0x4)
                0x00001c8c                __vector_offset_86 = DEFINED (__vector_dispatch_86)?(. - _ebase_address):__vector_offset_default
 *(.vector_86)
                0x9d000aec                . = ALIGN (0x4)
                0x00001c8c                __vector_offset_87 = DEFINED (__vector_dispatch_87)?(. - _ebase_address):__vector_offset_default
 *(.vector_87)
                0x9d000aec                . = ALIGN (0x4)
                0x00001c8c                __vector_offset_88 = DEFINED (__vector_dispatch_88)?(. - _ebase_address):__vector_offset_default
 *(.vector_88)
                0x9d000aec                . = ALIGN (0x4)
                0x00001c8c                __vector_offset_89 = DEFINED (__vector_dispatch_89)?(. - _ebase_address):__vector_offset_default
 *(.vector_89)
                0x9d000aec                . = ALIGN (0x4)
                0x00001c8c                __vector_offset_90 = DEFINED (__vector_dispatch_90)?(. - _ebase_address):__vector_offset_default
 *(.vector_90)
                0x9d000aec                . = ALIGN (0x4)
                0x00001c8c                __vector_offset_91 = DEFINED (__vector_dispatch_91)?(. - _ebase_address):__vector_offset_default
 *(.vector_91)
                0x9d000aec                . = ALIGN (0x4)
                0x00001c8c                __vector_offset_92 = DEFINED (__vector_dispatch_92)?(. - _ebase_address):__vector_offset_default
 *(.vector_92)
                0x9d000aec                . = ALIGN (0x4)
                0x00001c8c                __vector_offset_93 = DEFINED (__vector_dispatch_93)?(. - _ebase_address):__vector_offset_default
 *(.vector_93)
                0x9d000aec                . = ALIGN (0x4)
                0x00001c8c                __vector_offset_94 = DEFINED (__vector_dispatch_94)?(. - _ebase_address):__vector_offset_default
 *(.vector_94)
                0x9d000aec                . = ALIGN (0x4)
                0x00001c8c                __vector_offset_95 = DEFINED (__vector_dispatch_95)?(. - _ebase_address):__vector_offset_default
 *(.vector_95)
                0x9d000aec                . = ALIGN (0x4)
                0x00001c8c                __vector_offset_96 = DEFINED (__vector_dispatch_96)?(. - _ebase_address):__vector_offset_default
 *(.vector_96)
                0x9d000aec                . = ALIGN (0x4)
                0x00001c8c                __vector_offset_97 = DEFINED (__vector_dispatch_97)?(. - _ebase_address):__vector_offset_default
 *(.vector_97)
                0x9d000aec                . = ALIGN (0x4)
                0x00001c8c                __vector_offset_98 = DEFINED (__vector_dispatch_98)?(. - _ebase_address):__vector_offset_default
 *(.vector_98)
                0x9d000aec                . = ALIGN (0x4)
                0x00001c8c                __vector_offset_99 = DEFINED (__vector_dispatch_99)?(. - _ebase_address):__vector_offset_default
 *(.vector_99)
                0x9d000aec                . = ALIGN (0x4)
                0x00001c8c                __vector_offset_100 = DEFINED (__vector_dispatch_100)?(. - _ebase_address):__vector_offset_default
 *(.vector_100)
                0x9d000aec                . = ALIGN (0x4)
                0x00001c8c                __vector_offset_101 = DEFINED (__vector_dispatch_101)?(. - _ebase_address):__vector_offset_default
 *(.vector_101)
                0x9d000aec                . = ALIGN (0x4)
                0x00001c8c                __vector_offset_102 = DEFINED (__vector_dispatch_102)?(. - _ebase_address):__vector_offset_default
 *(.vector_102)
                0x9d000aec                . = ALIGN (0x4)
                0x00001c8c                __vector_offset_103 = DEFINED (__vector_dispatch_103)?(. - _ebase_address):__vector_offset_default
 *(.vector_103)
                0x9d000aec                . = ALIGN (0x4)
                0x00001c8c                __vector_offset_104 = DEFINED (__vector_dispatch_104)?(. - _ebase_address):__vector_offset_default
 *(.vector_104)
                0x9d000aec                . = ALIGN (0x4)
                0x00001c8c                __vector_offset_105 = DEFINED (__vector_dispatch_105)?(. - _ebase_address):__vector_offset_default
 *(.vector_105)
                0x9d000aec                . = ALIGN (0x4)
                0x00001c8c                __vector_offset_106 = DEFINED (__vector_dispatch_106)?(. - _ebase_address):__vector_offset_default
 *(.vector_106)
                0x9d000aec                . = ALIGN (0x4)
                0x00001c8c                __vector_offset_107 = DEFINED (__vector_dispatch_107)?(. - _ebase_address):__vector_offset_default
 *(.vector_107)
                0x9d000aec                . = ALIGN (0x4)
                0x00001c8c                __vector_offset_108 = DEFINED (__vector_dispatch_108)?(. - _ebase_address):__vector_offset_default
 *(.vector_108)
                0x9d000aec                . = ALIGN (0x4)
                0x00001c8c                __vector_offset_109 = DEFINED (__vector_dispatch_109)?(. - _ebase_address):__vector_offset_default
 *(.vector_109)
                0x9d000aec                . = ALIGN (0x4)
                0x00001c8c                __vector_offset_110 = DEFINED (__vector_dispatch_110)?(. - _ebase_address):__vector_offset_default
 *(.vector_110)
                0x9d000aec                . = ALIGN (0x4)
                0x00001c8c                __vector_offset_111 = DEFINED (__vector_dispatch_111)?(. - _ebase_address):__vector_offset_default
 *(.vector_111)
                0x9d000aec                . = ALIGN (0x4)
                0x00001c8c                __vector_offset_112 = DEFINED (__vector_dispatch_112)?(. - _ebase_address):__vector_offset_default
 *(.vector_112)
                0x9d000aec                . = ALIGN (0x4)
                0x00001c8c                __vector_offset_113 = DEFINED (__vector_dispatch_113)?(. - _ebase_address):__vector_offset_default
 *(.vector_113)
                0x9d000aec                . = ALIGN (0x4)
                0x00001c8c                __vector_offset_114 = DEFINED (__vector_dispatch_114)?(. - _ebase_address):__vector_offset_default
 *(.vector_114)
                0x9d000aec                . = ALIGN (0x4)
                0x00001c8c                __vector_offset_115 = DEFINED (__vector_dispatch_115)?(. - _ebase_address):__vector_offset_default
 *(.vector_115)
                0x9d000aec                . = ALIGN (0x4)
                0x00001c8c                __vector_offset_116 = DEFINED (__vector_dispatch_116)?(. - _ebase_address):__vector_offset_default
 *(.vector_116)
                0x9d000aec                . = ALIGN (0x4)
                0x00001c8c                __vector_offset_117 = DEFINED (__vector_dispatch_117)?(. - _ebase_address):__vector_offset_default
 *(.vector_117)
                0x9d000aec                . = ALIGN (0x4)
                0x00001c8c                __vector_offset_118 = DEFINED (__vector_dispatch_118)?(. - _ebase_address):__vector_offset_default
 *(.vector_118)
                0x9d000aec                . = ALIGN (0x4)
                0x00001c8c                __vector_offset_119 = DEFINED (__vector_dispatch_119)?(. - _ebase_address):__vector_offset_default
 *(.vector_119)
                0x9d000aec                . = ALIGN (0x4)
                0x00001c8c                __vector_offset_120 = DEFINED (__vector_dispatch_120)?(. - _ebase_address):__vector_offset_default
 *(.vector_120)
                0x9d000aec                . = ALIGN (0x4)
                0x00001c8c                __vector_offset_121 = DEFINED (__vector_dispatch_121)?(. - _ebase_address):__vector_offset_default
 *(.vector_121)
                0x9d000aec                . = ALIGN (0x4)
                0x00001c8c                __vector_offset_122 = DEFINED (__vector_dispatch_122)?(. - _ebase_address):__vector_offset_default
 *(.vector_122)
                0x9d000aec                . = ALIGN (0x4)
                0x00001c8c                __vector_offset_123 = DEFINED (__vector_dispatch_123)?(. - _ebase_address):__vector_offset_default
 *(.vector_123)
                0x9d000aec                . = ALIGN (0x4)
                0x00001c8c                __vector_offset_124 = DEFINED (__vector_dispatch_124)?(. - _ebase_address):__vector_offset_default
 *(.vector_124)
                0x9d000aec                . = ALIGN (0x4)
                0x00001c8c                __vector_offset_125 = DEFINED (__vector_dispatch_125)?(. - _ebase_address):__vector_offset_default
 *(.vector_125)
                0x9d000aec                . = ALIGN (0x4)
                0x00001c8c                __vector_offset_126 = DEFINED (__vector_dispatch_126)?(. - _ebase_address):__vector_offset_default
 *(.vector_126)
                0x9d000aec                . = ALIGN (0x4)
                0x00001c8c                __vector_offset_127 = DEFINED (__vector_dispatch_127)?(. - _ebase_address):__vector_offset_default
 *(.vector_127)
                0x9d000aec                . = ALIGN (0x4)
                0x00001c8c                __vector_offset_128 = DEFINED (__vector_dispatch_128)?(. - _ebase_address):__vector_offset_default
 *(.vector_128)
                0x9d000aec                . = ALIGN (0x4)
                0x00001c8c                __vector_offset_129 = DEFINED (__vector_dispatch_129)?(. - _ebase_address):__vector_offset_default
 *(.vector_129)
                0x9d000aec                . = ALIGN (0x4)
                0x00001c8c                __vector_offset_130 = DEFINED (__vector_dispatch_130)?(. - _ebase_address):__vector_offset_default
 *(.vector_130)
                0x9d000aec                . = ALIGN (0x4)
                0x00001c8c                __vector_offset_131 = DEFINED (__vector_dispatch_131)?(. - _ebase_address):__vector_offset_default
 *(.vector_131)
                0x9d000aec                . = ALIGN (0x4)
                0x00001c8c                __vector_offset_132 = DEFINED (__vector_dispatch_132)?(. - _ebase_address):__vector_offset_default
 *(.vector_132)
                0x9d000aec                . = ALIGN (0x4)
                0x00001c8c                __vector_offset_133 = DEFINED (__vector_dispatch_133)?(. - _ebase_address):__vector_offset_default
 *(.vector_133)
                0x9d000aec                . = ALIGN (0x4)
                0x00000aec                __vector_offset_134 = DEFINED (__vector_dispatch_134)?(. - _ebase_address):__vector_offset_default
 *(.vector_134)
 .vector_134    0x9d000aec      0x234 build/default/production/_ext/1688732426/system_interrupt_a.o
                0x9d000aec                __vector_dispatch_134
                0x9d000d20                . = ALIGN (0x4)
                0x00000d20                __vector_offset_135 = DEFINED (__vector_dispatch_135)?(. - _ebase_address):__vector_offset_default
 *(.vector_135)
 .vector_135    0x9d000d20      0x234 build/default/production/_ext/1688732426/system_interrupt_a.o
                0x9d000d20                __vector_dispatch_135
                0x9d000f54                . = ALIGN (0x4)
                0x00001c8c                __vector_offset_136 = DEFINED (__vector_dispatch_136)?(. - _ebase_address):__vector_offset_default
 *(.vector_136)
                0x9d000f54                . = ALIGN (0x4)
                0x00001c8c                __vector_offset_137 = DEFINED (__vector_dispatch_137)?(. - _ebase_address):__vector_offset_default
 *(.vector_137)
                0x9d000f54                . = ALIGN (0x4)
                0x00001c8c                __vector_offset_138 = DEFINED (__vector_dispatch_138)?(. - _ebase_address):__vector_offset_default
 *(.vector_138)
                0x9d000f54                . = ALIGN (0x4)
                0x00001c8c                __vector_offset_139 = DEFINED (__vector_dispatch_139)?(. - _ebase_address):__vector_offset_default
 *(.vector_139)
                0x9d000f54                . = ALIGN (0x4)
                0x00001c8c                __vector_offset_140 = DEFINED (__vector_dispatch_140)?(. - _ebase_address):__vector_offset_default
 *(.vector_140)
                0x9d000f54                . = ALIGN (0x4)
                0x00001c8c                __vector_offset_141 = DEFINED (__vector_dispatch_141)?(. - _ebase_address):__vector_offset_default
 *(.vector_141)
                0x9d000f54                . = ALIGN (0x4)
                0x00001c8c                __vector_offset_142 = DEFINED (__vector_dispatch_142)?(. - _ebase_address):__vector_offset_default
 *(.vector_142)
                0x9d000f54                . = ALIGN (0x4)
                0x00001c8c                __vector_offset_143 = DEFINED (__vector_dispatch_143)?(. - _ebase_address):__vector_offset_default
 *(.vector_143)
                0x9d000f54                . = ALIGN (0x4)
                0x00001c8c                __vector_offset_144 = DEFINED (__vector_dispatch_144)?(. - _ebase_address):__vector_offset_default
 *(.vector_144)
                0x9d000f54                . = ALIGN (0x4)
                0x00001c8c                __vector_offset_145 = DEFINED (__vector_dispatch_145)?(. - _ebase_address):__vector_offset_default
 *(.vector_145)
                0x9d000f54                . = ALIGN (0x4)
                0x00001c8c                __vector_offset_146 = DEFINED (__vector_dispatch_146)?(. - _ebase_address):__vector_offset_default
 *(.vector_146)
                0x9d000f54                . = ALIGN (0x4)
                0x00001c8c                __vector_offset_147 = DEFINED (__vector_dispatch_147)?(. - _ebase_address):__vector_offset_default
 *(.vector_147)
                0x9d000f54                . = ALIGN (0x4)
                0x00001c8c                __vector_offset_148 = DEFINED (__vector_dispatch_148)?(. - _ebase_address):__vector_offset_default
 *(.vector_148)
                0x9d000f54                . = ALIGN (0x4)
                0x00001c8c                __vector_offset_149 = DEFINED (__vector_dispatch_149)?(. - _ebase_address):__vector_offset_default
 *(.vector_149)
                0x9d000f54                . = ALIGN (0x4)
                0x00001c8c                __vector_offset_150 = DEFINED (__vector_dispatch_150)?(. - _ebase_address):__vector_offset_default
 *(.vector_150)
                0x9d000f54                . = ALIGN (0x4)
                0x00001c8c                __vector_offset_151 = DEFINED (__vector_dispatch_151)?(. - _ebase_address):__vector_offset_default
 *(.vector_151)
                0x9d000f54                . = ALIGN (0x4)
                0x00001c8c                __vector_offset_152 = DEFINED (__vector_dispatch_152)?(. - _ebase_address):__vector_offset_default
 *(.vector_152)
                0x9d000f54                . = ALIGN (0x4)
                0x00001c8c                __vector_offset_153 = DEFINED (__vector_dispatch_153)?(. - _ebase_address):__vector_offset_default
 *(.vector_153)
                0x9d000f54                . = ALIGN (0x4)
                0x00001c8c                __vector_offset_154 = DEFINED (__vector_dispatch_154)?(. - _ebase_address):__vector_offset_default
 *(.vector_154)
                0x9d000f54                . = ALIGN (0x4)
                0x00001c8c                __vector_offset_155 = DEFINED (__vector_dispatch_155)?(. - _ebase_address):__vector_offset_default
 *(.vector_155)
                0x9d000f54                . = ALIGN (0x4)
                0x00001c8c                __vector_offset_156 = DEFINED (__vector_dispatch_156)?(. - _ebase_address):__vector_offset_default
 *(.vector_156)
                0x9d000f54                . = ALIGN (0x4)
                0x00001c8c                __vector_offset_157 = DEFINED (__vector_dispatch_157)?(. - _ebase_address):__vector_offset_default
 *(.vector_157)
                0x9d000f54                . = ALIGN (0x4)
                0x00001c8c                __vector_offset_158 = DEFINED (__vector_dispatch_158)?(. - _ebase_address):__vector_offset_default
 *(.vector_158)
                0x9d000f54                . = ALIGN (0x4)
                0x00001c8c                __vector_offset_159 = DEFINED (__vector_dispatch_159)?(. - _ebase_address):__vector_offset_default
 *(.vector_159)
                0x9d000f54                . = ALIGN (0x4)
                0x00001c8c                __vector_offset_160 = DEFINED (__vector_dispatch_160)?(. - _ebase_address):__vector_offset_default
 *(.vector_160)
                0x9d000f54                . = ALIGN (0x4)
                0x00001c8c                __vector_offset_161 = DEFINED (__vector_dispatch_161)?(. - _ebase_address):__vector_offset_default
 *(.vector_161)
                0x9d000f54                . = ALIGN (0x4)
                0x00001c8c                __vector_offset_162 = DEFINED (__vector_dispatch_162)?(. - _ebase_address):__vector_offset_default
 *(.vector_162)
                0x9d000f54                . = ALIGN (0x4)
                0x00000f54                __vector_offset_163 = DEFINED (__vector_dispatch_163)?(. - _ebase_address):__vector_offset_default
 *(.vector_163)
 .vector_163    0x9d000f54      0x234 build/default/production/_ext/1688732426/system_interrupt_a.o
                0x9d000f54                __vector_dispatch_163
                0x9d001188                . = ALIGN (0x4)
                0x00001188                __vector_offset_164 = DEFINED (__vector_dispatch_164)?(. - _ebase_address):__vector_offset_default
 *(.vector_164)
 .vector_164    0x9d001188      0x234 build/default/production/_ext/1688732426/system_interrupt_a.o
                0x9d001188                __vector_dispatch_164
                0x9d0013bc                . = ALIGN (0x4)
                0x000013bc                __vector_offset_165 = DEFINED (__vector_dispatch_165)?(. - _ebase_address):__vector_offset_default
 *(.vector_165)
 .vector_165    0x9d0013bc      0x234 build/default/production/_ext/1688732426/system_interrupt_a.o
                0x9d0013bc                __vector_dispatch_165
                0x9d0015f0                . = ALIGN (0x4)
                0x00001c8c                __vector_offset_166 = DEFINED (__vector_dispatch_166)?(. - _ebase_address):__vector_offset_default
 *(.vector_166)
                0x9d0015f0                . = ALIGN (0x4)
                0x00001c8c                __vector_offset_167 = DEFINED (__vector_dispatch_167)?(. - _ebase_address):__vector_offset_default
 *(.vector_167)
                0x9d0015f0                . = ALIGN (0x4)
                0x00001c8c                __vector_offset_168 = DEFINED (__vector_dispatch_168)?(. - _ebase_address):__vector_offset_default
 *(.vector_168)
                0x9d0015f0                . = ALIGN (0x4)
                0x00001c8c                __vector_offset_169 = DEFINED (__vector_dispatch_169)?(. - _ebase_address):__vector_offset_default
 *(.vector_169)
                0x9d0015f0                . = ALIGN (0x4)
                0x000015f0                __vector_offset_170 = DEFINED (__vector_dispatch_170)?(. - _ebase_address):__vector_offset_default
 *(.vector_170)
 .vector_170    0x9d0015f0      0x234 build/default/production/_ext/1688732426/system_interrupt_a.o
                0x9d0015f0                __vector_dispatch_170
                0x9d001824                . = ALIGN (0x4)
                0x00001824                __vector_offset_171 = DEFINED (__vector_dispatch_171)?(. - _ebase_address):__vector_offset_default
 *(.vector_171)
 .vector_171    0x9d001824      0x234 build/default/production/_ext/1688732426/system_interrupt_a.o
                0x9d001824                __vector_dispatch_171
                0x9d001a58                . = ALIGN (0x4)
                0x00001a58                __vector_offset_172 = DEFINED (__vector_dispatch_172)?(. - _ebase_address):__vector_offset_default
 *(.vector_172)
 .vector_172    0x9d001a58      0x234 build/default/production/_ext/1688732426/system_interrupt_a.o
                0x9d001a58                __vector_dispatch_172
                0x9d001c8c                . = ALIGN (0x4)
                0x00001c8c                __vector_offset_173 = DEFINED (__vector_dispatch_173)?(. - _ebase_address):__vector_offset_default
 *(.vector_173)
                0x9d001c8c                . = ALIGN (0x4)
                0x00001c8c                __vector_offset_174 = DEFINED (__vector_dispatch_174)?(. - _ebase_address):__vector_offset_default
 *(.vector_174)
                0x9d001c8c                . = ALIGN (0x4)
                0x00001c8c                __vector_offset_175 = DEFINED (__vector_dispatch_175)?(. - _ebase_address):__vector_offset_default
 *(.vector_175)
                0x9d001c8c                . = ALIGN (0x4)
                0x00001c8c                __vector_offset_176 = DEFINED (__vector_dispatch_176)?(. - _ebase_address):__vector_offset_default
 *(.vector_176)
                0x9d001c8c                . = ALIGN (0x4)
                0x00001c8c                __vector_offset_177 = DEFINED (__vector_dispatch_177)?(. - _ebase_address):__vector_offset_default
 *(.vector_177)
                0x9d001c8c                . = ALIGN (0x4)
                0x00001c8c                __vector_offset_178 = DEFINED (__vector_dispatch_178)?(. - _ebase_address):__vector_offset_default
 *(.vector_178)
                0x9d001c8c                . = ALIGN (0x4)
                0x00001c8c                __vector_offset_179 = DEFINED (__vector_dispatch_179)?(. - _ebase_address):__vector_offset_default
 *(.vector_179)
                0x9d001c8c                . = ALIGN (0x4)
                0x00001c8c                __vector_offset_180 = DEFINED (__vector_dispatch_180)?(. - _ebase_address):__vector_offset_default
 *(.vector_180)
                0x9d001c8c                . = ALIGN (0x4)
                0x00001c8c                __vector_offset_181 = DEFINED (__vector_dispatch_181)?(. - _ebase_address):__vector_offset_default
 *(.vector_181)
                0x9d001c8c                . = ALIGN (0x4)
                0x00001c8c                __vector_offset_182 = DEFINED (__vector_dispatch_182)?(. - _ebase_address):__vector_offset_default
 *(.vector_182)
                0x9d001c8c                . = ALIGN (0x4)
                0x00001c8c                __vector_offset_183 = DEFINED (__vector_dispatch_183)?(. - _ebase_address):__vector_offset_default
 *(.vector_183)
                0x9d001c8c                . = ALIGN (0x4)
                0x00001c8c                __vector_offset_184 = DEFINED (__vector_dispatch_184)?(. - _ebase_address):__vector_offset_default
 *(.vector_184)
                0x9d001c8c                . = ALIGN (0x4)
                0x00001c8c                __vector_offset_185 = DEFINED (__vector_dispatch_185)?(. - _ebase_address):__vector_offset_default
 *(.vector_185)
                0x9d001c8c                . = ALIGN (0x4)
                0x00001c8c                __vector_offset_186 = DEFINED (__vector_dispatch_186)?(. - _ebase_address):__vector_offset_default
 *(.vector_186)
                0x9d001c8c                . = ALIGN (0x4)
                0x00001c8c                __vector_offset_187 = DEFINED (__vector_dispatch_187)?(. - _ebase_address):__vector_offset_default
 *(.vector_187)
                0x9d001c8c                . = ALIGN (0x4)
                0x00001c8c                __vector_offset_188 = DEFINED (__vector_dispatch_188)?(. - _ebase_address):__vector_offset_default
 *(.vector_188)
                0x9d001c8c                . = ALIGN (0x4)
                0x00001c8c                __vector_offset_189 = DEFINED (__vector_dispatch_189)?(. - _ebase_address):__vector_offset_default
 *(.vector_189)
                0x9d001c8c                . = ALIGN (0x4)
                0x00001c8c                __vector_offset_190 = DEFINED (__vector_dispatch_190)?(. - _ebase_address):__vector_offset_default
 *(.vector_190)
                0x9d001c8c                . = ALIGN (0x4)
                0x00001c8c                __vector_offset_191 = DEFINED (__vector_dispatch_191)?(. - _ebase_address):__vector_offset_default
 *(.vector_191)
                0x9d001c8c                . = ALIGN (0x4)
                0x00001c8c                __vector_offset_192 = DEFINED (__vector_dispatch_192)?(. - _ebase_address):__vector_offset_default
 *(.vector_192)
                0x9d001c8c                . = ALIGN (0x4)
                0x00001c8c                __vector_offset_193 = DEFINED (__vector_dispatch_193)?(. - _ebase_address):__vector_offset_default
 *(.vector_193)
                0x9d001c8c                . = ALIGN (0x4)
                0x00001c8c                __vector_offset_194 = DEFINED (__vector_dispatch_194)?(. - _ebase_address):__vector_offset_default
 *(.vector_194)
                0x9d001c8c                . = ALIGN (0x4)
                0x00001c8c                __vector_offset_195 = DEFINED (__vector_dispatch_195)?(. - _ebase_address):__vector_offset_default
 *(.vector_195)
                0x9d001c8c                . = ALIGN (0x4)
                0x00001c8c                __vector_offset_196 = DEFINED (__vector_dispatch_196)?(. - _ebase_address):__vector_offset_default
 *(.vector_196)
                0x9d001c8c                . = ALIGN (0x4)
                0x00001c8c                __vector_offset_197 = DEFINED (__vector_dispatch_197)?(. - _ebase_address):__vector_offset_default
 *(.vector_197)
                0x9d001c8c                . = ALIGN (0x4)
                0x00001c8c                __vector_offset_198 = DEFINED (__vector_dispatch_198)?(. - _ebase_address):__vector_offset_default
 *(.vector_198)
                0x9d001c8c                . = ALIGN (0x4)
                0x00001c8c                __vector_offset_199 = DEFINED (__vector_dispatch_199)?(. - _ebase_address):__vector_offset_default
 *(.vector_199)
                0x9d001c8c                . = ALIGN (0x4)
                0x00001c8c                __vector_offset_200 = DEFINED (__vector_dispatch_200)?(. - _ebase_address):__vector_offset_default
 *(.vector_200)
                0x9d001c8c                . = ALIGN (0x4)
                0x00001c8c                __vector_offset_201 = DEFINED (__vector_dispatch_201)?(. - _ebase_address):__vector_offset_default
 *(.vector_201)
                0x9d001c8c                . = ALIGN (0x4)
                0x00001c8c                __vector_offset_202 = DEFINED (__vector_dispatch_202)?(. - _ebase_address):__vector_offset_default
 *(.vector_202)
                0x9d001c8c                . = ALIGN (0x4)
                0x00001c8c                __vector_offset_203 = DEFINED (__vector_dispatch_203)?(. - _ebase_address):__vector_offset_default
 *(.vector_203)
                0x9d001c8c                . = ALIGN (0x4)
                0x00001c8c                __vector_offset_204 = DEFINED (__vector_dispatch_204)?(. - _ebase_address):__vector_offset_default
 *(.vector_204)
                0x9d001c8c                . = ALIGN (0x4)
                0x00001c8c                __vector_offset_205 = DEFINED (__vector_dispatch_205)?(. - _ebase_address):__vector_offset_default
 *(.vector_205)
                0x9d001c8c                . = ALIGN (0x4)
                0x00001c8c                __vector_offset_206 = DEFINED (__vector_dispatch_206)?(. - _ebase_address):__vector_offset_default
 *(.vector_206)
                0x9d001c8c                . = ALIGN (0x4)
                0x00001c8c                __vector_offset_207 = DEFINED (__vector_dispatch_207)?(. - _ebase_address):__vector_offset_default
 *(.vector_207)
                0x9d001c8c                . = ALIGN (0x4)
                0x00001c8c                __vector_offset_208 = DEFINED (__vector_dispatch_208)?(. - _ebase_address):__vector_offset_default
 *(.vector_208)
                0x9d001c8c                . = ALIGN (0x4)
                0x00001c8c                __vector_offset_209 = DEFINED (__vector_dispatch_209)?(. - _ebase_address):__vector_offset_default
 *(.vector_209)
                0x9d001c8c                . = ALIGN (0x4)
                0x00001c8c                __vector_offset_210 = DEFINED (__vector_dispatch_210)?(. - _ebase_address):__vector_offset_default
 *(.vector_210)
                0x9d001c8c                . = ALIGN (0x4)
                0x00001c8c                __vector_offset_211 = DEFINED (__vector_dispatch_211)?(. - _ebase_address):__vector_offset_default
 *(.vector_211)
                0x9d001c8c                . = ALIGN (0x4)
                0x00001c8c                __vector_offset_212 = DEFINED (__vector_dispatch_212)?(. - _ebase_address):__vector_offset_default
 *(.vector_212)
                0x9d001c8c                . = ALIGN (0x4)
                0x00001c8c                __vector_offset_213 = DEFINED (__vector_dispatch_213)?(. - _ebase_address):__vector_offset_default
 *(.vector_213)
                0x9d001c8c                . = ALIGN (0x4)
                0x00001c8c                __vector_offset_214 = DEFINED (__vector_dispatch_214)?(. - _ebase_address):__vector_offset_default
 *(.vector_214)
                0x9d001c8c                . = ALIGN (0x4)
                0x00001c8c                __vector_offset_215 = DEFINED (__vector_dispatch_215)?(. - _ebase_address):__vector_offset_default
 *(.vector_215)
                0x9d001c8c                . = ALIGN (0x4)
                0x00001c8c                __vector_offset_216 = DEFINED (__vector_dispatch_216)?(. - _ebase_address):__vector_offset_default
 *(.vector_216)
                0x9d001c8c                . = ALIGN (0x4)
                0x00001c8c                __vector_offset_217 = DEFINED (__vector_dispatch_217)?(. - _ebase_address):__vector_offset_default
 *(.vector_217)
                0x9d001c8c                . = ALIGN (0x4)
                0x00001c8c                __vector_offset_218 = DEFINED (__vector_dispatch_218)?(. - _ebase_address):__vector_offset_default
 *(.vector_218)
                0x9d001c8c                . = ALIGN (0x4)
                0x00001c8c                __vector_offset_219 = DEFINED (__vector_dispatch_219)?(. - _ebase_address):__vector_offset_default
 *(.vector_219)
                0x9d001c8c                . = ALIGN (0x4)
                0x00001c8c                __vector_offset_220 = DEFINED (__vector_dispatch_220)?(. - _ebase_address):__vector_offset_default
 *(.vector_220)
                0x9d001c8c                . = ALIGN (0x4)
                0x00001c8c                __vector_offset_221 = DEFINED (__vector_dispatch_221)?(. - _ebase_address):__vector_offset_default
 *(.vector_221)
                0x9d001c8c                . = ALIGN (0x4)
                0x00001c8c                __vector_offset_222 = DEFINED (__vector_dispatch_222)?(. - _ebase_address):__vector_offset_default
 *(.vector_222)
                0x9d001c8c                . = ALIGN (0x4)
                0x00001c8c                __vector_offset_223 = DEFINED (__vector_dispatch_223)?(. - _ebase_address):__vector_offset_default
 *(.vector_223)
                0x9d001c8c                . = ALIGN (0x4)
                0x00001c8c                __vector_offset_224 = DEFINED (__vector_dispatch_224)?(. - _ebase_address):__vector_offset_default
 *(.vector_224)
                0x9d001c8c                . = ALIGN (0x4)
                0x00001c8c                __vector_offset_225 = DEFINED (__vector_dispatch_225)?(. - _ebase_address):__vector_offset_default
 *(.vector_225)
                0x9d001c8c                . = ALIGN (0x4)
                0x00001c8c                __vector_offset_226 = DEFINED (__vector_dispatch_226)?(. - _ebase_address):__vector_offset_default
 *(.vector_226)
                0x9d001c8c                . = ALIGN (0x4)
                0x00001c8c                __vector_offset_227 = DEFINED (__vector_dispatch_227)?(. - _ebase_address):__vector_offset_default
 *(.vector_227)
                0x9d001c8c                . = ALIGN (0x4)
                0x00001c8c                __vector_offset_228 = DEFINED (__vector_dispatch_228)?(. - _ebase_address):__vector_offset_default
 *(.vector_228)
                0x9d001c8c                . = ALIGN (0x4)
                0x00001c8c                __vector_offset_229 = DEFINED (__vector_dispatch_229)?(. - _ebase_address):__vector_offset_default
 *(.vector_229)
                0x9d001c8c                . = ALIGN (0x4)
                0x00001c8c                __vector_offset_230 = DEFINED (__vector_dispatch_230)?(. - _ebase_address):__vector_offset_default
 *(.vector_230)
                0x9d001c8c                . = ALIGN (0x4)
                0x00001c8c                __vector_offset_231 = DEFINED (__vector_dispatch_231)?(. - _ebase_address):__vector_offset_default
 *(.vector_231)
                0x9d001c8c                . = ALIGN (0x4)
                0x00001c8c                __vector_offset_232 = DEFINED (__vector_dispatch_232)?(. - _ebase_address):__vector_offset_default
 *(.vector_232)
                0x9d001c8c                . = ALIGN (0x4)
                0x00001c8c                __vector_offset_233 = DEFINED (__vector_dispatch_233)?(. - _ebase_address):__vector_offset_default
 *(.vector_233)
                0x9d001c8c                . = ALIGN (0x4)
                0x00001c8c                __vector_offset_234 = DEFINED (__vector_dispatch_234)?(. - _ebase_address):__vector_offset_default
 *(.vector_234)
                0x9d001c8c                . = ALIGN (0x4)
                0x00001c8c                __vector_offset_235 = DEFINED (__vector_dispatch_235)?(. - _ebase_address):__vector_offset_default
 *(.vector_235)
                0x9d001c8c                . = ALIGN (0x4)
                0x00001c8c                __vector_offset_236 = DEFINED (__vector_dispatch_236)?(. - _ebase_address):__vector_offset_default
 *(.vector_236)
                0x9d001c8c                . = ALIGN (0x4)
                0x00001c8c                __vector_offset_237 = DEFINED (__vector_dispatch_237)?(. - _ebase_address):__vector_offset_default
 *(.vector_237)
                0x9d001c8c                . = ALIGN (0x4)
                0x00001c8c                __vector_offset_238 = DEFINED (__vector_dispatch_238)?(. - _ebase_address):__vector_offset_default
 *(.vector_238)
                0x9d001c8c                . = ALIGN (0x4)
                0x00001c8c                __vector_offset_239 = DEFINED (__vector_dispatch_239)?(. - _ebase_address):__vector_offset_default
 *(.vector_239)
                0x9d001c8c                . = ALIGN (0x4)
                0x00001c8c                __vector_offset_240 = DEFINED (__vector_dispatch_240)?(. - _ebase_address):__vector_offset_default
 *(.vector_240)
                0x9d001c8c                . = ALIGN (0x4)
                0x00001c8c                __vector_offset_241 = DEFINED (__vector_dispatch_241)?(. - _ebase_address):__vector_offset_default
 *(.vector_241)
                0x9d001c8c                . = ALIGN (0x4)
                0x00001c8c                __vector_offset_242 = DEFINED (__vector_dispatch_242)?(. - _ebase_address):__vector_offset_default
 *(.vector_242)
                0x9d001c8c                . = ALIGN (0x4)
                0x00001c8c                __vector_offset_243 = DEFINED (__vector_dispatch_243)?(. - _ebase_address):__vector_offset_default
 *(.vector_243)
                0x9d001c8c                . = ALIGN (0x4)
                0x00001c8c                __vector_offset_244 = DEFINED (__vector_dispatch_244)?(. - _ebase_address):__vector_offset_default
 *(.vector_244)
                0x9d001c8c                . = ALIGN (0x4)
                0x00001c8c                __vector_offset_245 = DEFINED (__vector_dispatch_245)?(. - _ebase_address):__vector_offset_default
 *(.vector_245)
                0x9d001c8c                . = ALIGN (0x4)
                0x00001c8c                __vector_offset_246 = DEFINED (__vector_dispatch_246)?(. - _ebase_address):__vector_offset_default
 *(.vector_246)
                0x9d001c8c                . = ALIGN (0x4)
                0x00001c8c                __vector_offset_247 = DEFINED (__vector_dispatch_247)?(. - _ebase_address):__vector_offset_default
 *(.vector_247)
                0x9d001c8c                . = ALIGN (0x4)
                0x00001c8c                __vector_offset_248 = DEFINED (__vector_dispatch_248)?(. - _ebase_address):__vector_offset_default
 *(.vector_248)
                0x9d001c8c                . = ALIGN (0x4)
                0x00001c8c                __vector_offset_249 = DEFINED (__vector_dispatch_249)?(. - _ebase_address):__vector_offset_default
 *(.vector_249)
                0x9d001c8c                . = ALIGN (0x4)
                0x00001c8c                __vector_offset_250 = DEFINED (__vector_dispatch_250)?(. - _ebase_address):__vector_offset_default
 *(.vector_250)
                0x9d001c8c                . = ALIGN (0x4)
                0x00001c8c                __vector_offset_251 = DEFINED (__vector_dispatch_251)?(. - _ebase_address):__vector_offset_default
 *(.vector_251)
                0x9d001c8c                . = ALIGN (0x4)
                0x00001c8c                __vector_offset_252 = DEFINED (__vector_dispatch_252)?(. - _ebase_address):__vector_offset_default
 *(.vector_252)
                0x9d001c8c                . = ALIGN (0x4)
                0x00001c8c                __vector_offset_253 = DEFINED (__vector_dispatch_253)?(. - _ebase_address):__vector_offset_default
 *(.vector_253)
                0x9d001c8c                . = ALIGN (0x4)
                0x00001c8c                __vector_offset_254 = DEFINED (__vector_dispatch_254)?(. - _ebase_address):__vector_offset_default
 *(.vector_254)
                0x9d001c8c                . = ALIGN (0x4)
                0x00001c8c                __vector_offset_255 = DEFINED (__vector_dispatch_255)?(. - _ebase_address):__vector_offset_default
 *(.vector_255)
                0x9d001c8c                . = ALIGN (0x4)
                0x00001c8c                __vector_offset_default = (. - _ebase_address)
 *(.vector_default)
 .vector_default
                0x9d001c8c       0x48 d:/program files (x86)/microchip/xc32/v2.30/bin/bin/../../lib/gcc/pic32mx/4.8.3/../../../../pic32mx/lib/fpu64\libpic32.a(defaultinterrupt.o)
                0x9d001c8c                _DefaultInterrupt

.startup
 *(.startup)

.text           0x9d001cd4        0x0
 *(.stub .gnu.linkonce.t.*)
 *(.text.*personality*)
 *(.mips16.fn.*)
 *(.mips16.call.*)
 *(.gnu.warning)
                0x9d001cd4                . = ALIGN (0x4)

.init           0x9d001cd4        0x0
 *crti.o(.init)
 *crtbegin.o(.init)
 *(EXCLUDE_FILE(*crtn.o *crtend?.o *crtend.o) .init)
 *crtend.o(.init)
 *crtn.o(.init)
                0x9d001cd4                . = ALIGN (0x4)

.fini           0x9d001cd4        0x0
 *(.fini)
                0x9d001cd4                . = ALIGN (0x4)

.preinit_array  0x9d001cd4        0x0
                0x9d001cd4                PROVIDE (__preinit_array_start, .)
 *(.preinit_array)
                0x9d001cd4                PROVIDE (__preinit_array_end, .)
                0x9d001cd4                . = ALIGN (0x4)

.init_array     0x9d001cd4        0x0
                0x9d001cd4                PROVIDE (__init_array_start, .)
 *(SORT(.init_array.*))
 *(.init_array)
                0x9d001cd4                PROVIDE (__init_array_end, .)
                0x9d001cd4                . = ALIGN (0x4)

.fini_array     0x9d001cd4        0x0
                0x9d001cd4                PROVIDE (__fini_array_start, .)
 *(SORT(.fini_array.*))
 *(.fini_array)
                0x9d001cd4                PROVIDE (__fini_array_end, .)
                0x9d001cd4                . = ALIGN (0x4)

.ctors          0x9d001cd4        0x0
 *crtbegin.o(.ctors)
 *crtbegin?.o(.ctors)
 *(EXCLUDE_FILE(*crtend?.o *crtend.o) .ctors)
 *(SORT(.ctors.*))
 *(.ctors)
                0x9d001cd4                . = ALIGN (0x4)

.dtors          0x9d001cd4        0x0
 *crtbegin.o(.dtors)
 *crtbegin?.o(.dtors)
 *(EXCLUDE_FILE(*crtend?.o *crtend.o) .dtors)
 *(SORT(.dtors.*))
 *(.dtors)
                0x9d001cd4                . = ALIGN (0x4)

.rodata         0x9d001cd4        0x0
 *(.gnu.linkonce.r.*)
 *(.rodata1)
                0x9d001cd4                . = ALIGN (0x4)

.sdata2         0x9fc004b0        0x0
 *(.sdata2 .sdata2.* .gnu.linkonce.s2.*)
                0x9fc004b0                . = ALIGN (0x4)

.sbss2          0x9fc004b0        0x0
 *(.sbss2 .sbss2.* .gnu.linkonce.sb2.*)
                0x9fc004b0                . = ALIGN (0x4)

.eh_frame_hdr
 *(.eh_frame_hdr)
                0x9fc004b0                . = ALIGN (0x4)

.eh_frame
 *(.eh_frame)
                0x9fc004b0                . = ALIGN (0x4)

.gcc_except_table
 *(.gcc_except_table .gcc_except_table.*)
                0x9fc004b0                . = ALIGN (0x4)

.dbg_data       0x80000000        0x0
                0x80000000                . = (. + DEFINED (_DEBUGGER)?0x200:0x0)
                0x80000000                . = (. + DEFINED (_DEBUGGER)?0x80:0x0)
                0x80000000                . = (. + DEFINED (_DEBUGGER)?0x100:0x0)

.jcr            0x80000000        0x0
 *(.jcr)
                0x80000000                . = ALIGN (0x4)

.eh_frame
 *(.eh_frame)
                0x80000000                . = ALIGN (0x4)

.gcc_except_table
 *(.gcc_except_table .gcc_except_table.*)
                0x80000000                . = ALIGN (0x4)

.persist        0x80000000        0x0
                0x80000000                _persist_begin = .
 *(.persist .persist.*)
                0x80000000                . = ALIGN (0x4)
                0x80000000                _persist_end = .

.data           0x80000000        0x0
 *(.gnu.linkonce.d.*)
 *(.data1)
                0x80000000                . = ALIGN (0x4)
                0x80000000                . = .
                0x80007ff0                _gp = (ALIGN (0x10) + 0x7ff0)

.got            0x80000000        0x0
 *(.got.plt)
 *(.got)
                0x80000000                . = ALIGN (0x4)

.sdata          0x80000000       0x70
                0x80000000                _sdata_begin = .
 *(.sdata .sdata.* .gnu.linkonce.s.*)
 .sdata         0x80000000        0x1 build/default/production/_ext/412220316/drv_wifi_commands.o
 *fill*         0x80000001        0x3 
 .sdata         0x80000004        0x4 build/default/production/_ext/412220316/drv_wifi_config_data.o
                0x80000004                p_wifi_configData
 .sdata         0x80000008        0x1 build/default/production/_ext/412220316/drv_wifi_mac.o
                0x80000008                g_RxDataLock
 .sdata         0x80000009        0x1 build/default/production/_ext/412220316/drv_wifi_main.o
 .sdata         0x8000000a        0x1 build/default/production/_ext/412220316/drv_wifi_power_save.o
 .sdata         0x8000000b        0x1 build/default/production/_ext/412220316/drv_wifi_scan_helper.o
 .sdata         0x8000000c        0x4 build/default/production/_ext/412220316/drv_wifi_spi.o
 .sdata         0x80000010        0x8 build/default/production/_ext/126554269/arp.o
 .sdata         0x80000018        0x1 build/default/production/_ext/126554269/zero_conf_helper.o
                0x80000018                zeroconf_dbg_level
 *fill*         0x80000019        0x3 
 .sdata         0x8000001c        0x8 build/default/production/_ext/126554269/zero_conf_link_local.o
 .sdata         0x80000024        0x4 build/default/production/_ext/126554269/tcpip_commands.o
 .sdata         0x80000028        0x4 build/default/production/_ext/126554269/tcpip_manager.o
 .sdata         0x8000002c        0x4 build/default/production/_ext/508667646/heap_2.o
 .sdata         0x80000030        0x4 build/default/production/_ext/417601773/port.o
                0x80000030                uxInterruptNesting
 .sdata         0x80000034        0x8 build/default/production/_ext/1360937237/wnetcom.o
 .sdata         0x8000003c        0xc build/default/production/_ext/1688732426/system_init.o
                0x8000003c                consUsartInit0
                0x80000044                sysConsoleObjects
 .sdata         0x80000048       0x24 d:/program files (x86)/microchip/xc32/v2.30/bin/bin/../../lib/gcc/pic32mx/4.8.3/../../../../pic32mx/lib/fpu64\libpic32.a(pic32_init_cache.o)
                0x80000048                __pic32_icache_size
                0x8000004c                __pic32_icache_linesize
                0x80000050                __pic32_icache_ways
                0x80000054                __pic32_dcache_size
                0x80000058                __pic32_dcache_linesize
                0x8000005c                __pic32_dcache_ways
                0x80000060                __pic32_scache_size
                0x80000064                __pic32_scache_linesize
                0x80000068                __pic32_scache_ways
 .sdata         0x8000006c        0x4 d:/program files (x86)/microchip/xc32/v2.30/bin/bin/../../lib/gcc/pic32mx/4.8.3/../../../../pic32mx/lib/fpu64\libpic32.a(xc32_uart.o)
                0x8000006c                __XC_UART
                0x80000070                . = ALIGN (0x4)
                0x80000070                _sdata_end = .

.lit8
 *(.lit8)

.lit4
 *(.lit4)
                0x80000070                . = ALIGN (0x4)
                0x80000070                _data_end = .
                0x80000070                _bss_begin = .

.sbss           0x80000070      0x2a8
                0x80000070                _sbss_begin = .
 *(.dynsbss)
 *(.sbss .sbss.* .gnu.linkonce.sb.*)
 .sbss          0x80000070        0x1 build/default/production/_ext/110609098/drv_spi.o
 *fill*         0x80000071        0x3 
 .sbss          0x80000074        0x4 build/default/production/_ext/494209719/drv_tmr.o
 .sbss          0x80000078        0x2 build/default/production/_ext/115751837/drv_usart_buffer_queue.o
 *fill*         0x8000007a        0x2 
 .sbss          0x8000007c        0x8 build/default/production/_ext/412220316/drv_wifi_com.o
 .sbss          0x80000084        0x8 build/default/production/_ext/412220316/drv_wifi_commands.o
 .sbss          0x8000008c        0x1 build/default/production/_ext/412220316/drv_wifi_connection_manager.o
 *fill*         0x8000008d        0x3 
 .sbss          0x80000090        0x8 build/default/production/_ext/412220316/drv_wifi_context_loader.o
 .sbss          0x80000098        0x8 build/default/production/_ext/412220316/drv_wifi_events.o
 .sbss          0x800000a0        0x1 build/default/production/_ext/412220316/drv_wifi_event_handler.o
 *fill*         0x800000a1        0x3 
 .sbss          0x800000a4        0x8 build/default/production/_ext/412220316/drv_wifi_init.o
 .sbss          0x800000ac        0x3 build/default/production/_ext/412220316/drv_wifi_iwpriv.o
 *fill*         0x800000af        0x1 
 .sbss          0x800000b0       0x40 build/default/production/_ext/412220316/drv_wifi_mac.o
 .sbss          0x800000f0        0x4 build/default/production/_ext/412220316/drv_wifi_main.o
 .sbss          0x800000f4        0x1 build/default/production/_ext/412220316/drv_wifi_mgmt_msg.o
 *fill*         0x800000f5        0x3 
 .sbss          0x800000f8       0x34 build/default/production/_ext/412220316/drv_wifi_pbkdf2.o
 .sbss          0x8000012c        0x4 build/default/production/_ext/412220316/drv_wifi_power_save.o
 .sbss          0x80000130        0x1 build/default/production/_ext/412220316/drv_wifi_raw.o
                0x80000130                g_RawIndexPastEnd
 *fill*         0x80000131        0x3 
 .sbss          0x80000134       0x14 build/default/production/_ext/412220316/drv_wifi_spi.o
 .sbss          0x80000148        0x1 build/default/production/_ext/412220316/drv_wifi_rtos_wrapper.o
 *fill*         0x80000149        0x3 
 .sbss          0x8000014c       0x10 build/default/production/_ext/1052224704/sys_command.o
 .sbss          0x8000015c        0x8 build/default/production/_ext/595512524/sys_console_uart.o
 .sbss          0x80000164       0x1c build/default/production/_ext/126554269/ipv4.o
                0x80000164                _IPv4StayAssertLoop
 .sbss          0x80000180       0x24 build/default/production/_ext/126554269/tcp.o
 .sbss          0x800001a4       0x1c build/default/production/_ext/126554269/udp.o
 .sbss          0x800001c0       0x20 build/default/production/_ext/126554269/dhcp.o
 .sbss          0x800001e0       0x10 build/default/production/_ext/126554269/dns.o
                0x800001e0                _DNSStayCondLoop
                0x800001e4                _DNSStayAssertLoop
 .sbss          0x800001f0        0xc build/default/production/_ext/126554269/icmp.o
 .sbss          0x800001fc        0xc build/default/production/_ext/126554269/nbns.o
 .sbss          0x80000208        0xc build/default/production/_ext/126554269/zero_conf_link_local.o
 .sbss          0x80000214       0x1c build/default/production/_ext/126554269/tcpip_announce.o
 .sbss          0x80000230       0x28 build/default/production/_ext/126554269/tcpip_commands.o
 .sbss          0x80000258       0x24 build/default/production/_ext/126554269/tcpip_manager.o
 .sbss          0x8000027c        0x8 build/default/production/_ext/126554269/tcpip_packet.o
 .sbss          0x80000284       0x3c build/default/production/_ext/1808430591/tasks.o
                0x800002bc                pxCurrentTCB
 .sbss          0x800002c0       0x14 build/default/production/_ext/508667646/heap_2.o
 .sbss          0x800002d4        0x4 build/default/production/_ext/417601773/port.o
                0x800002d4                uxSavedTaskStackPointer
 .sbss          0x800002d8       0x10 build/default/production/_ext/1360937237/wnetcom.o
 .sbss          0x800002e8        0x8 build/default/production/_ext/1688732426/system_init.o
                0x800002e8                sysCmdInit
 .sbss          0x800002f0        0xc build/default/production/_ext/1688732426/system_exceptions.o
 *(.scommon)
 .scommon       0x800002fc        0x8 build/default/production/_ext/412220316/drv_wifi_event_handler.o
                0x800002fc                g_softAPEvent
 .scommon       0x80000304        0x2 build/default/production/_ext/412220316/drv_wifi_init.o
                0x80000304                g_mgmt_base
 *fill*         0x80000306        0x2 
 .scommon       0x80000308        0x6 build/default/production/_ext/412220316/drv_wifi_scan_helper.o
                0x80000308                g_scanStatus
 *fill*         0x8000030e        0x2 
 .scommon       0x80000310        0x8 build/default/production/_ext/340578644/sys_devcon.o
                0x80000310                sysDevconObj
                0x80000318                _sbss_end = .
                0x80000318                . = ALIGN (0x4)

.bss            0x80000318      0x7f4
 *(.dynbss)
 *(COMMON)
 COMMON         0x80000318       0xbc build/default/production/_ext/115751837/drv_usart.o
                0x80000318                gDrvUSARTCommonDataObj
                0x80000324                gDrvUSARTClientObj
                0x80000374                gDrvUSARTObj
 COMMON         0x800003d4      0x370 build/default/production/_ext/115751837/drv_usart_buffer_queue.o
                0x800003d4                gDrvUSARTBufferObj
 COMMON         0x80000744       0x62 build/default/production/_ext/412220316/drv_wifi_event_handler.o
                0x80000744                g_passphraseReady
 *fill*         0x800007a6        0x2 
 COMMON         0x800007a8        0xa build/default/production/_ext/412220316/drv_wifi_raw.o
                0x800007a8                RawMoveState
 *fill*         0x800007b2        0x2 
 COMMON         0x800007b4       0x80 build/default/production/_ext/1855423469/sys_dma.o
                0x800007b4                gSysDMAChannelObj
 COMMON         0x80000834        0xc build/default/production/_ext/1360937237/wnetcom.o
                0x80000834                wnetcomData
 COMMON         0x80000840      0x200 build/default/production/_ext/977502197/drv_spi_tasks.o
                0x80000840                sDrvSpiTxDummy
                0x80000940                sDrvSpiRxDummy
 COMMON         0x80000a40       0xb0 build/default/production/_ext/639803181/sys_clk.o
                0x80000a40                clkObject
 COMMON         0x80000af0       0x1c build/default/production/_ext/1688732426/system_init.o
                0x80000af0                sysObj
                0x80000b0c                . = ALIGN ((. != 0x0)?0x4:0x1)
                0x80000b0c                . = ALIGN (0x4)
                0x80000b0c                _end = .
                0x80000b0c                _bss_end = .
                0x00080000                _bmxdudba_address = 0x80000
                0x00080000                _bmxdupba_address = 0x80000

/DISCARD/
 *(.pdr)
 *(.rel.dyn)
 *(.note.GNU-stack)
 *(.note.GNU-stack)
 *(.gnu_debuglink)
 *(.gnu.lto_*)
 *(.discard)

.gptab.sdata
 *(.gptab.data)
 *(.gptab.sdata)

.gptab.sbss
 *(.gptab.bss)
 *(.gptab.sbss)

.mdebug.abi32   0x00000000        0x0
 *(.mdebug.abi32)
 .mdebug.abi32  0x00000000        0x0 build/default/production/_ext/110609098/drv_spi.o
 .mdebug.abi32  0x00000000        0x0 build/default/production/_ext/1908449382/drv_spi_sys_queue_fifo.o
 .mdebug.abi32  0x00000000        0x0 build/default/production/_ext/494209719/drv_tmr.o
 .mdebug.abi32  0x00000000        0x0 build/default/production/_ext/115751837/drv_usart.o
 .mdebug.abi32  0x00000000        0x0 build/default/production/_ext/115751837/drv_usart_buffer_queue.o
 .mdebug.abi32  0x00000000        0x0 build/default/production/_ext/115751837/drv_usart_read_write.o
 .mdebug.abi32  0x00000000        0x0 build/default/production/_ext/412220316/drv_wifi_com.o
 .mdebug.abi32  0x00000000        0x0 build/default/production/_ext/412220316/drv_wifi_commands.o
 .mdebug.abi32  0x00000000        0x0 build/default/production/_ext/412220316/drv_wifi_config_data.o
 .mdebug.abi32  0x00000000        0x0 build/default/production/_ext/412220316/drv_wifi_connection_algorithm.o
 .mdebug.abi32  0x00000000        0x0 build/default/production/_ext/412220316/drv_wifi_connection_manager.o
 .mdebug.abi32  0x00000000        0x0 build/default/production/_ext/412220316/drv_wifi_connection_profile.o
 .mdebug.abi32  0x00000000        0x0 build/default/production/_ext/412220316/drv_wifi_context_loader.o
 .mdebug.abi32  0x00000000        0x0 build/default/production/_ext/412220316/drv_wifi_debug_output.o
 .mdebug.abi32  0x00000000        0x0 build/default/production/_ext/412220316/drv_wifi_eint.o
 .mdebug.abi32  0x00000000        0x0 build/default/production/_ext/412220316/drv_wifi_events.o
 .mdebug.abi32  0x00000000        0x0 build/default/production/_ext/412220316/drv_wifi_event_handler.o
 .mdebug.abi32  0x00000000        0x0 build/default/production/_ext/412220316/drv_wifi_init.o
 .mdebug.abi32  0x00000000        0x0 build/default/production/_ext/412220316/drv_wifi_iwpriv.o
 .mdebug.abi32  0x00000000        0x0 build/default/production/_ext/412220316/drv_wifi_mac.o
 .mdebug.abi32  0x00000000        0x0 build/default/production/_ext/412220316/drv_wifi_main.o
 .mdebug.abi32  0x00000000        0x0 build/default/production/_ext/412220316/drv_wifi_mgmt_msg.o
 .mdebug.abi32  0x00000000        0x0 build/default/production/_ext/412220316/drv_wifi_param_msg.o
 .mdebug.abi32  0x00000000        0x0 build/default/production/_ext/412220316/drv_wifi_pbkdf2.o
 .mdebug.abi32  0x00000000        0x0 build/default/production/_ext/412220316/drv_wifi_power_save.o
 .mdebug.abi32  0x00000000        0x0 build/default/production/_ext/412220316/drv_wifi_raw.o
 .mdebug.abi32  0x00000000        0x0 build/default/production/_ext/412220316/drv_wifi_scan.o
 .mdebug.abi32  0x00000000        0x0 build/default/production/_ext/412220316/drv_wifi_scan_helper.o
 .mdebug.abi32  0x00000000        0x0 build/default/production/_ext/412220316/drv_wifi_softap_client_cache.o
 .mdebug.abi32  0x00000000        0x0 build/default/production/_ext/412220316/drv_wifi_spi.o
 .mdebug.abi32  0x00000000        0x0 build/default/production/_ext/412220316/drv_wifi_tx_power.o
 .mdebug.abi32  0x00000000        0x0 build/default/production/_ext/412220316/drv_wifi_rtos_wrapper.o
 .mdebug.abi32  0x00000000        0x0 build/default/production/_ext/2004362140/osal_freertos.o
 .mdebug.abi32  0x00000000        0x0 build/default/production/_ext/1052224704/sys_command.o
 .mdebug.abi32  0x00000000        0x0 build/default/production/_ext/595512524/sys_console.o
 .mdebug.abi32  0x00000000        0x0 build/default/production/_ext/595512524/sys_console_uart.o
 .mdebug.abi32  0x00000000        0x0 build/default/production/_ext/1855423469/sys_dma.o
 .mdebug.abi32  0x00000000        0x0 build/default/production/_ext/2044150628/sys_int_pic32.o
 .mdebug.abi32  0x00000000        0x0 build/default/production/_ext/1304044280/sys_random.o
 .mdebug.abi32  0x00000000        0x0 build/default/production/_ext/398504132/sys_reset.o
 .mdebug.abi32  0x00000000        0x0 build/default/production/_ext/1108686962/sys_tmr.o
 .mdebug.abi32  0x00000000        0x0 build/default/production/_ext/126554269/ipv4.o
 .mdebug.abi32  0x00000000        0x0 build/default/production/_ext/126554269/tcp.o
 .mdebug.abi32  0x00000000        0x0 build/default/production/_ext/126554269/udp.o
 .mdebug.abi32  0x00000000        0x0 build/default/production/_ext/126554269/tcpip_heap_alloc.o
 .mdebug.abi32  0x00000000        0x0 build/default/production/_ext/126554269/tcpip_heap_internal.o
 .mdebug.abi32  0x00000000        0x0 build/default/production/_ext/126554269/arp.o
 .mdebug.abi32  0x00000000        0x0 build/default/production/_ext/126554269/dhcp.o
 .mdebug.abi32  0x00000000        0x0 build/default/production/_ext/126554269/dns.o
 .mdebug.abi32  0x00000000        0x0 build/default/production/_ext/126554269/icmp.o
 .mdebug.abi32  0x00000000        0x0 build/default/production/_ext/126554269/nbns.o
 .mdebug.abi32  0x00000000        0x0 build/default/production/_ext/126554269/zero_conf_helper.o
 .mdebug.abi32  0x00000000        0x0 build/default/production/_ext/126554269/zero_conf_link_local.o
 .mdebug.abi32  0x00000000        0x0 build/default/production/_ext/126554269/tcpip_announce.o
 .mdebug.abi32  0x00000000        0x0 build/default/production/_ext/126554269/tcpip_commands.o
 .mdebug.abi32  0x00000000        0x0 build/default/production/_ext/1551925347/helpers.o
 .mdebug.abi32  0x00000000        0x0 build/default/production/_ext/126554269/hash_fnv.o
 .mdebug.abi32  0x00000000        0x0 build/default/production/_ext/126554269/oahash.o
 .mdebug.abi32  0x00000000        0x0 build/default/production/_ext/126554269/tcpip_helpers.o
 .mdebug.abi32  0x00000000        0x0 build/default/production/_ext/126554269/tcpip_manager.o
 .mdebug.abi32  0x00000000        0x0 build/default/production/_ext/126554269/tcpip_notify.o
 .mdebug.abi32  0x00000000        0x0 build/default/production/_ext/126554269/tcpip_packet.o
 .mdebug.abi32  0x00000000        0x0 build/default/production/_ext/1808430591/croutine.o
 .mdebug.abi32  0x00000000        0x0 build/default/production/_ext/1808430591/list.o
 .mdebug.abi32  0x00000000        0x0 build/default/production/_ext/1808430591/queue.o
 .mdebug.abi32  0x00000000        0x0 build/default/production/_ext/1808430591/tasks.o
 .mdebug.abi32  0x00000000        0x0 build/default/production/_ext/1808430591/timers.o
 .mdebug.abi32  0x00000000        0x0 build/default/production/_ext/1808430591/event_groups.o
 .mdebug.abi32  0x00000000        0x0 build/default/production/_ext/508667646/heap_2.o
 .mdebug.abi32  0x00000000        0x0 build/default/production/_ext/417601773/port.o
 .mdebug.abi32  0x00000000        0x0 build/default/production/_ext/1360937237/wnetcom.o
 .mdebug.abi32  0x00000000        0x0 build/default/production/_ext/977502197/drv_spi_tasks.o
 .mdebug.abi32  0x00000000        0x0 build/default/production/_ext/977502197/drv_spi_api.o
 .mdebug.abi32  0x00000000        0x0 build/default/production/_ext/977502197/drv_spi_master_ebm_tasks.o
 .mdebug.abi32  0x00000000        0x0 build/default/production/_ext/977502197/drv_spi_master_dma_tasks.o
 .mdebug.abi32  0x00000000        0x0 build/default/production/_ext/639803181/sys_clk.o
 .mdebug.abi32  0x00000000        0x0 build/default/production/_ext/639803181/sys_clk_pic32mz.o
 .mdebug.abi32  0x00000000        0x0 build/default/production/_ext/340578644/sys_devcon.o
 .mdebug.abi32  0x00000000        0x0 build/default/production/_ext/340578644/sys_devcon_pic32mz.o
 .mdebug.abi32  0x00000000        0x0 build/default/production/_ext/822048611/sys_ports_static.o
 .mdebug.abi32  0x00000000        0x0 build/default/production/_ext/1688732426/system_init.o
 .mdebug.abi32  0x00000000        0x0 build/default/production/_ext/1688732426/system_interrupt.o
 .mdebug.abi32  0x00000000        0x0 build/default/production/_ext/1688732426/system_exceptions.o
 .mdebug.abi32  0x00000000        0x0 build/default/production/_ext/1360937237/main.o
 .mdebug.abi32  0x00000000        0x0 build/default/production/_ext/1688732426/system_tasks.o
 .mdebug.abi32  0x00000000        0x0 build/default/production/_ext/1688732426/rtos_hooks.o
 .mdebug.abi32  0x00000000        0x0 d:/program files (x86)/microchip/xc32/v2.30/bin/bin/../../lib/gcc/pic32mx/4.8.3/fpu64\libgcc.a(_udivdi3.o)
 .mdebug.abi32  0x00000000        0x0 d:/program files (x86)/microchip/xc32/v2.30/bin/bin/../../lib/gcc/pic32mx/4.8.3/../../../../pic32mx/lib/fpu64\libpic32.a(default-bootstrap-exception-handler.o)
 .mdebug.abi32  0x00000000        0x0 d:/program files (x86)/microchip/xc32/v2.30/bin/bin/../../lib/gcc/pic32mx/4.8.3/../../../../pic32mx/lib/fpu64\libpic32.a(default-on-reset.o)
 .mdebug.abi32  0x00000000        0x0 d:/program files (x86)/microchip/xc32/v2.30/bin/bin/../../lib/gcc/pic32mx/4.8.3/../../../../pic32mx/lib/fpu64\libpic32.a(default-on-bootstrap.o)
 .mdebug.abi32  0x00000000        0x0 d:/program files (x86)/microchip/xc32/v2.30/bin/bin/../../lib/gcc/pic32mx/4.8.3/../../../../pic32mx/lib/fpu64\libpic32.a(defaultinterrupt.o)
 .mdebug.abi32  0x00000000        0x0 d:/program files (x86)/microchip/xc32/v2.30/bin/bin/../../lib/gcc/pic32mx/4.8.3/../../../../pic32mx/lib/fpu64\libpic32.a(default-cache-err-exception-handler.o)
 .mdebug.abi32  0x00000000        0x0 d:/program files (x86)/microchip/xc32/v2.30/bin/bin/../../lib/gcc/pic32mx/4.8.3/../../../../pic32mx/lib/fpu64\libpic32.a(default-simple-tlb-refill-exception-handler.o)
 .mdebug.abi32  0x00000000        0x0 d:/program files (x86)/microchip/xc32/v2.30/bin/bin/../../lib/gcc/pic32mx/4.8.3/../../../../pic32mx/lib/fpu64\libc.a(atoi.o)
 .mdebug.abi32  0x00000000        0x0 d:/program files (x86)/microchip/xc32/v2.30/bin/bin/../../lib/gcc/pic32mx/4.8.3/../../../../pic32mx/lib/fpu64\libc.a(calloc.o)
 .mdebug.abi32  0x00000000        0x0 d:/program files (x86)/microchip/xc32/v2.30/bin/bin/../../lib/gcc/pic32mx/4.8.3/../../../../pic32mx/lib/fpu64\libc.a(ctype.o)
 .mdebug.abi32  0x00000000        0x0 d:/program files (x86)/microchip/xc32/v2.30/bin/bin/../../lib/gcc/pic32mx/4.8.3/../../../../pic32mx/lib/fpu64\libc.a(ctypef.o)
 .mdebug.abi32  0x00000000        0x0 d:/program files (x86)/microchip/xc32/v2.30/bin/bin/../../lib/gcc/pic32mx/4.8.3/../../../../pic32mx/lib/fpu64\libc.a(malloc.o)
 .mdebug.abi32  0x00000000        0x0 d:/program files (x86)/microchip/xc32/v2.30/bin/bin/../../lib/gcc/pic32mx/4.8.3/../../../../pic32mx/lib/fpu64\libc.a(rand.o)
 .mdebug.abi32  0x00000000        0x0 d:/program files (x86)/microchip/xc32/v2.30/bin/bin/../../lib/gcc/pic32mx/4.8.3/../../../../pic32mx/lib/fpu64\libc.a(strchr.o)
 .mdebug.abi32  0x00000000        0x0 d:/program files (x86)/microchip/xc32/v2.30/bin/bin/../../lib/gcc/pic32mx/4.8.3/../../../../pic32mx/lib/fpu64\libc.a(strncmp.o)
 .mdebug.abi32  0x00000000        0x0 d:/program files (x86)/microchip/xc32/v2.30/bin/bin/../../lib/gcc/pic32mx/4.8.3/../../../../pic32mx/lib/fpu64\libc.a(strncpy.o)
 .mdebug.abi32  0x00000000        0x0 d:/program files (x86)/microchip/xc32/v2.30/bin/bin/../../lib/gcc/pic32mx/4.8.3/../../../../pic32mx/lib/fpu64\libc.a(strtol.o)
 .mdebug.abi32  0x00000000        0x0 d:/program files (x86)/microchip/xc32/v2.30/bin/bin/../../lib/gcc/pic32mx/4.8.3/../../../../pic32mx/lib/fpu64\libc.a(sprintf_cdnopuxX.eo)
 .mdebug.abi32  0x00000000        0x0 d:/program files (x86)/microchip/xc32/v2.30/bin/bin/../../lib/gcc/pic32mx/4.8.3/../../../../pic32mx/lib/fpu64\libc.a(sscanf_cdnopuxX.eo)
 .mdebug.abi32  0x00000000        0x0 d:/program files (x86)/microchip/xc32/v2.30/bin/bin/../../lib/gcc/pic32mx/4.8.3/../../../../pic32mx/lib/fpu64\libc.a(vsnprintf.o)
 .mdebug.abi32  0x00000000        0x0 d:/program files (x86)/microchip/xc32/v2.30/bin/bin/../../lib/gcc/pic32mx/4.8.3/../../../../pic32mx/lib/fpu64\libc.a(errno.o)
 .mdebug.abi32  0x00000000        0x0 d:/program files (x86)/microchip/xc32/v2.30/bin/bin/../../lib/gcc/pic32mx/4.8.3/../../../../pic32mx/lib/fpu64\libc.a(doprnt_cdnopuxX.eo)
 .mdebug.abi32  0x00000000        0x0 d:/program files (x86)/microchip/xc32/v2.30/bin/bin/../../lib/gcc/pic32mx/4.8.3/../../../../pic32mx/lib/fpu64\libc.a(doprnt.o)
 .mdebug.abi32  0x00000000        0x0 d:/program files (x86)/microchip/xc32/v2.30/bin/bin/../../lib/gcc/pic32mx/4.8.3/../../../../pic32mx/lib/fpu64\libc.a(doscan_cdnopuxX.eo)
 .mdebug.abi32  0x00000000        0x0 d:/program files (x86)/microchip/xc32/v2.30/bin/bin/../../lib/gcc/pic32mx/4.8.3/../../../../pic32mx/lib/fpu64\libc.a(fgetc.o)
 .mdebug.abi32  0x00000000        0x0 d:/program files (x86)/microchip/xc32/v2.30/bin/bin/../../lib/gcc/pic32mx/4.8.3/../../../../pic32mx/lib/fpu64\libc.a(_fputc_simple.o)
 .mdebug.abi32  0x00000000        0x0 d:/program files (x86)/microchip/xc32/v2.30/bin/bin/../../lib/gcc/pic32mx/4.8.3/../../../../pic32mx/lib/fpu64\libc.a(ldpowers.o)
 .mdebug.abi32  0x00000000        0x0 d:/program files (x86)/microchip/xc32/v2.30/bin/bin/../../lib/gcc/pic32mx/4.8.3/../../../../pic32mx/lib/fpu64\libc.a(ungetc.o)
 .mdebug.abi32  0x00000000        0x0 d:/program files (x86)/microchip/xc32/v2.30/bin/bin/../../lib/gcc/pic32mx/4.8.3/../../../../pic32mx/lib/fpu64\libc.a(_iob.o)
 .mdebug.abi32  0x00000000        0x0 d:/program files (x86)/microchip/xc32/v2.30/bin/bin/../../lib/gcc/pic32mx/4.8.3/../../../../pic32mx/lib/fpu64\libc.a(filbuf.o)
 .mdebug.abi32  0x00000000        0x0 d:/program files (x86)/microchip/xc32/v2.30/bin/bin/../../lib/gcc/pic32mx/4.8.3/../../../../pic32mx/lib/fpu64\libc.a(_flsbuf_simple.o)
 .mdebug.abi32  0x00000000        0x0 d:/program files (x86)/microchip/xc32/v2.30/bin/bin/../../lib/gcc/pic32mx/4.8.3/../../../../pic32mx/lib/fpu64\libc.a(fflush.o)
 .mdebug.abi32  0x00000000        0x0 d:/program files (x86)/microchip/xc32/v2.30/bin/bin/../../lib/gcc/pic32mx/4.8.3/../../../../pic32mx/lib/fpu64\libmfd.a(s_frexp.o)
 .mdebug.abi32  0x00000000        0x0 d:/program files (x86)/microchip/xc32/v2.30/bin/bin/../../lib/gcc/pic32mx/4.8.3/fpu64\libgcc.a(_cmpdi2.o)
 .mdebug.abi32  0x00000000        0x0 d:/program files (x86)/microchip/xc32/v2.30/bin/bin/../../lib/gcc/pic32mx/4.8.3/fpu64\libgcc.a(_umoddi3.o)
 .mdebug.abi32  0x00000000        0x0 d:/program files (x86)/microchip/xc32/v2.30/bin/bin/../../lib/gcc/pic32mx/4.8.3/../../../../pic32mx/lib/fpu64\libpic32.a(sbrk.o)
 .mdebug.abi32  0x00000000        0x0 d:/program files (x86)/microchip/xc32/v2.30/bin/bin/../../lib/gcc/pic32mx/4.8.3/../../../../pic32mx/lib/fpu64\libpic32.a(read.o)
 .mdebug.abi32  0x00000000        0x0 d:/program files (x86)/microchip/xc32/v2.30/bin/bin/../../lib/gcc/pic32mx/4.8.3/../../../../pic32mx/lib/fpu64\libpic32.a(write.o)
 .mdebug.abi32  0x00000000        0x0 d:/program files (x86)/microchip/xc32/v2.30/bin/bin/../../lib/gcc/pic32mx/4.8.3/../../../../pic32mx/lib/fpu64\libpic32.a(xc32_uart.o)
 .mdebug.abi32  0x00000000        0x0 d:/program files (x86)/microchip/xc32/v2.30/bin/bin/../../lib/gcc/pic32mx/4.8.3/../../../../pic32mx/lib/fpu64\libpic32.a(_mon_putc.o)

.mdebug.abiN32
 *(.mdebug.abiN32)

.mdebug.abi64
 *(.mdebug.abi64)

.mdebug.abiO64
 *(.mdebug.abiO64)

.mdebug.eabi32
 *(.mdebug.eabi32)

.mdebug.eabi64
 *(.mdebug.eabi64)

.gcc_compiled_long32
 *(.gcc_compiled_long32)

.gcc_compiled_long64
 *(.gcc_compiled_long64)

.stab
 *(.stab)

.stabstr
 *(.stabstr)

.stab.excl
 *(.stab.excl)

.stab.exclstr
 *(.stab.exclstr)

.stab.index
 *(.stab.index)

.stab.indexstr
 *(.stab.indexstr)

.comment        0x00000000      0x19f
 *(.comment)
 .comment       0x00000000       0x3c build/default/production/_ext/110609098/drv_spi.o
                                 0x3d (size before relaxing)
 .comment       0x00000000       0x3d build/default/production/_ext/1908449382/drv_spi_sys_queue_fifo.o
 .comment       0x00000000       0x3d build/default/production/_ext/494209719/drv_tmr.o
 .comment       0x00000000       0x3d build/default/production/_ext/115751837/drv_usart.o
 .comment       0x00000000       0x3d build/default/production/_ext/115751837/drv_usart_buffer_queue.o
 .comment       0x00000000       0x3d build/default/production/_ext/115751837/drv_usart_read_write.o
 .comment       0x00000000       0x3d build/default/production/_ext/412220316/drv_wifi_com.o
 .comment       0x00000000       0x3d build/default/production/_ext/412220316/drv_wifi_commands.o
 .comment       0x00000000       0x3d build/default/production/_ext/412220316/drv_wifi_config_data.o
 .comment       0x00000000       0x3d build/default/production/_ext/412220316/drv_wifi_connection_algorithm.o
 .comment       0x00000000       0x3d build/default/production/_ext/412220316/drv_wifi_connection_manager.o
 .comment       0x00000000       0x3d build/default/production/_ext/412220316/drv_wifi_connection_profile.o
 .comment       0x00000000       0x3d build/default/production/_ext/412220316/drv_wifi_context_loader.o
 .comment       0x00000000       0x3d build/default/production/_ext/412220316/drv_wifi_debug_output.o
 .comment       0x00000000       0x3d build/default/production/_ext/412220316/drv_wifi_eint.o
 .comment       0x00000000       0x3d build/default/production/_ext/412220316/drv_wifi_events.o
 .comment       0x00000000       0x3d build/default/production/_ext/412220316/drv_wifi_event_handler.o
 .comment       0x00000000       0x3d build/default/production/_ext/412220316/drv_wifi_init.o
 .comment       0x00000000       0x3d build/default/production/_ext/412220316/drv_wifi_iwpriv.o
 .comment       0x00000000       0x3d build/default/production/_ext/412220316/drv_wifi_mac.o
 .comment       0x00000000       0x3d build/default/production/_ext/412220316/drv_wifi_main.o
 .comment       0x00000000       0x3d build/default/production/_ext/412220316/drv_wifi_mgmt_msg.o
 .comment       0x00000000       0x3d build/default/production/_ext/412220316/drv_wifi_param_msg.o
 .comment       0x00000000       0x3d build/default/production/_ext/412220316/drv_wifi_pbkdf2.o
 .comment       0x00000000       0x3d build/default/production/_ext/412220316/drv_wifi_power_save.o
 .comment       0x00000000       0x3d build/default/production/_ext/412220316/drv_wifi_raw.o
 .comment       0x00000000       0x3d build/default/production/_ext/412220316/drv_wifi_scan.o
 .comment       0x00000000       0x3d build/default/production/_ext/412220316/drv_wifi_scan_helper.o
 .comment       0x00000000       0x3d build/default/production/_ext/412220316/drv_wifi_softap_client_cache.o
 .comment       0x00000000       0x3d build/default/production/_ext/412220316/drv_wifi_spi.o
 .comment       0x00000000       0x3d build/default/production/_ext/412220316/drv_wifi_tx_power.o
 .comment       0x00000000       0x3d build/default/production/_ext/412220316/drv_wifi_rtos_wrapper.o
 .comment       0x00000000       0x3d build/default/production/_ext/2004362140/osal_freertos.o
 .comment       0x00000000       0x3d build/default/production/_ext/1052224704/sys_command.o
 .comment       0x00000000       0x3d build/default/production/_ext/595512524/sys_console.o
 .comment       0x00000000       0x3d build/default/production/_ext/595512524/sys_console_uart.o
 .comment       0x00000000       0x3d build/default/production/_ext/1855423469/sys_dma.o
 .comment       0x00000000       0x3d build/default/production/_ext/2044150628/sys_int_pic32.o
 .comment       0x00000000       0x3d build/default/production/_ext/1304044280/sys_random.o
 .comment       0x00000000       0x3d build/default/production/_ext/398504132/sys_reset.o
 .comment       0x00000000       0x3d build/default/production/_ext/1108686962/sys_tmr.o
 .comment       0x00000000       0x3d build/default/production/_ext/126554269/ipv4.o
 .comment       0x00000000       0x3d build/default/production/_ext/126554269/tcp.o
 .comment       0x00000000       0x3d build/default/production/_ext/126554269/udp.o
 .comment       0x00000000       0x3d build/default/production/_ext/126554269/tcpip_heap_alloc.o
 .comment       0x00000000       0x3d build/default/production/_ext/126554269/tcpip_heap_internal.o
 .comment       0x00000000       0x3d build/default/production/_ext/126554269/arp.o
 .comment       0x00000000       0x3d build/default/production/_ext/126554269/dhcp.o
 .comment       0x00000000       0x3d build/default/production/_ext/126554269/dns.o
 .comment       0x00000000       0x3d build/default/production/_ext/126554269/icmp.o
 .comment       0x00000000       0x3d build/default/production/_ext/126554269/nbns.o
 .comment       0x00000000       0x3d build/default/production/_ext/126554269/zero_conf_helper.o
 .comment       0x00000000       0x3d build/default/production/_ext/126554269/zero_conf_link_local.o
 .comment       0x00000000       0x3d build/default/production/_ext/126554269/tcpip_announce.o
 .comment       0x00000000       0x3d build/default/production/_ext/126554269/tcpip_commands.o
 .comment       0x00000000       0x3d build/default/production/_ext/1551925347/helpers.o
 .comment       0x00000000       0x3d build/default/production/_ext/126554269/hash_fnv.o
 .comment       0x00000000       0x3d build/default/production/_ext/126554269/oahash.o
 .comment       0x00000000       0x3d build/default/production/_ext/126554269/tcpip_helpers.o
 .comment       0x00000000       0x3d build/default/production/_ext/126554269/tcpip_manager.o
 .comment       0x00000000       0x3d build/default/production/_ext/126554269/tcpip_notify.o
 .comment       0x00000000       0x3d build/default/production/_ext/126554269/tcpip_packet.o
 .comment       0x00000000       0x3d build/default/production/_ext/1808430591/croutine.o
 .comment       0x00000000       0x3d build/default/production/_ext/1808430591/list.o
 .comment       0x00000000       0x3d build/default/production/_ext/1808430591/queue.o
 .comment       0x00000000       0x3d build/default/production/_ext/1808430591/tasks.o
 .comment       0x00000000       0x3d build/default/production/_ext/1808430591/timers.o
 .comment       0x00000000       0x3d build/default/production/_ext/1808430591/event_groups.o
 .comment       0x00000000       0x3d build/default/production/_ext/508667646/heap_2.o
 .comment       0x00000000       0x3d build/default/production/_ext/417601773/port.o
 .comment       0x00000000       0x3d build/default/production/_ext/1360937237/wnetcom.o
 .comment       0x00000000       0x3d build/default/production/_ext/977502197/drv_spi_tasks.o
 .comment       0x00000000       0x3d build/default/production/_ext/977502197/drv_spi_api.o
 .comment       0x00000000       0x3d build/default/production/_ext/977502197/drv_spi_master_ebm_tasks.o
 .comment       0x00000000       0x3d build/default/production/_ext/977502197/drv_spi_master_dma_tasks.o
 .comment       0x00000000       0x3d build/default/production/_ext/639803181/sys_clk.o
 .comment       0x00000000       0x3d build/default/production/_ext/639803181/sys_clk_pic32mz.o
 .comment       0x00000000       0x3d build/default/production/_ext/340578644/sys_devcon.o
 .comment       0x00000000       0x3d build/default/production/_ext/340578644/sys_devcon_pic32mz.o
 .comment       0x00000000       0x3d build/default/production/_ext/822048611/sys_ports_static.o
 .comment       0x00000000       0x3d build/default/production/_ext/1688732426/system_init.o
 .comment       0x00000000       0x3d build/default/production/_ext/1688732426/system_interrupt.o
 .comment       0x00000000       0x3d build/default/production/_ext/1688732426/system_exceptions.o
 .comment       0x00000000       0x3d build/default/production/_ext/1360937237/main.o
 .comment       0x00000000       0x3d build/default/production/_ext/1688732426/system_tasks.o
 .comment       0x00000000       0x3d build/default/production/_ext/1688732426/rtos_hooks.o
 .comment       0x00000000       0x3d d:/program files (x86)/microchip/xc32/v2.30/bin/bin/../../lib/gcc/pic32mx/4.8.3/fpu64\libgcc.a(_udivdi3.o)
 .comment       0x0000003c       0x18 d:/program files (x86)/microchip/xc32/v2.30/bin/bin/../../lib/gcc/pic32mx/4.8.3/../../../../pic32mx/lib/fpu64\libpic32.a(memcmp.o)
                                 0x19 (size before relaxing)
 .comment       0x00000054       0x18 d:/program files (x86)/microchip/xc32/v2.30/bin/bin/../../lib/gcc/pic32mx/4.8.3/../../../../pic32mx/lib/fpu64\libpic32.a(memset.o)
                                 0x19 (size before relaxing)
 .comment       0x0000006c       0x19 d:/program files (x86)/microchip/xc32/v2.30/bin/bin/../../lib/gcc/pic32mx/4.8.3/../../../../pic32mx/lib/fpu64\libpic32.a(strcmp.o)
                                 0x1a (size before relaxing)
 .comment       0x00000085       0x19 d:/program files (x86)/microchip/xc32/v2.30/bin/bin/../../lib/gcc/pic32mx/4.8.3/../../../../pic32mx/lib/fpu64\libpic32.a(strcpy.o)
                                 0x1a (size before relaxing)
 .comment       0x0000009e       0x19 d:/program files (x86)/microchip/xc32/v2.30/bin/bin/../../lib/gcc/pic32mx/4.8.3/../../../../pic32mx/lib/fpu64\libpic32.a(strlen.o)
                                 0x1a (size before relaxing)
 .comment       0x00000000       0x3d d:/program files (x86)/microchip/xc32/v2.30/bin/bin/../../lib/gcc/pic32mx/4.8.3/../../../../pic32mx/lib/fpu64\libpic32.a(default-bootstrap-exception-handler.o)
 .comment       0x00000000       0x3d d:/program files (x86)/microchip/xc32/v2.30/bin/bin/../../lib/gcc/pic32mx/4.8.3/../../../../pic32mx/lib/fpu64\libpic32.a(default-on-reset.o)
 .comment       0x00000000       0x3d d:/program files (x86)/microchip/xc32/v2.30/bin/bin/../../lib/gcc/pic32mx/4.8.3/../../../../pic32mx/lib/fpu64\libpic32.a(default-on-bootstrap.o)
 .comment       0x00000000       0x3d d:/program files (x86)/microchip/xc32/v2.30/bin/bin/../../lib/gcc/pic32mx/4.8.3/../../../../pic32mx/lib/fpu64\libpic32.a(defaultinterrupt.o)
 .comment       0x00000000       0x3d d:/program files (x86)/microchip/xc32/v2.30/bin/bin/../../lib/gcc/pic32mx/4.8.3/../../../../pic32mx/lib/fpu64\libpic32.a(default-cache-err-exception-handler.o)
 .comment       0x00000000       0x3d d:/program files (x86)/microchip/xc32/v2.30/bin/bin/../../lib/gcc/pic32mx/4.8.3/../../../../pic32mx/lib/fpu64\libpic32.a(default-simple-tlb-refill-exception-handler.o)
 .comment       0x00000000       0x3d d:/program files (x86)/microchip/xc32/v2.30/bin/bin/../../lib/gcc/pic32mx/4.8.3/../../../../pic32mx/lib/fpu64\libc.a(atoi.o)
 .comment       0x00000000       0x3d d:/program files (x86)/microchip/xc32/v2.30/bin/bin/../../lib/gcc/pic32mx/4.8.3/../../../../pic32mx/lib/fpu64\libc.a(calloc.o)
 .comment       0x000000b7       0x4e d:/program files (x86)/microchip/xc32/v2.30/bin/bin/../../lib/gcc/pic32mx/4.8.3/../../../../pic32mx/lib/fpu64\libc.a(ctype.o)
                                 0x8b (size before relaxing)
 .comment       0x00000105       0x4f d:/program files (x86)/microchip/xc32/v2.30/bin/bin/../../lib/gcc/pic32mx/4.8.3/../../../../pic32mx/lib/fpu64\libc.a(ctypef.o)
                                 0x8c (size before relaxing)
 .comment       0x00000000       0x3d d:/program files (x86)/microchip/xc32/v2.30/bin/bin/../../lib/gcc/pic32mx/4.8.3/../../../../pic32mx/lib/fpu64\libc.a(malloc.o)
 .comment       0x00000000       0x3d d:/program files (x86)/microchip/xc32/v2.30/bin/bin/../../lib/gcc/pic32mx/4.8.3/../../../../pic32mx/lib/fpu64\libc.a(rand.o)
 .comment       0x00000000       0x3d d:/program files (x86)/microchip/xc32/v2.30/bin/bin/../../lib/gcc/pic32mx/4.8.3/../../../../pic32mx/lib/fpu64\libc.a(strchr.o)
 .comment       0x00000000       0x3d d:/program files (x86)/microchip/xc32/v2.30/bin/bin/../../lib/gcc/pic32mx/4.8.3/../../../../pic32mx/lib/fpu64\libc.a(strncmp.o)
 .comment       0x00000000       0x3d d:/program files (x86)/microchip/xc32/v2.30/bin/bin/../../lib/gcc/pic32mx/4.8.3/../../../../pic32mx/lib/fpu64\libc.a(strncpy.o)
 .comment       0x00000000       0x3d d:/program files (x86)/microchip/xc32/v2.30/bin/bin/../../lib/gcc/pic32mx/4.8.3/../../../../pic32mx/lib/fpu64\libc.a(strtol.o)
 .comment       0x00000000       0x3d d:/program files (x86)/microchip/xc32/v2.30/bin/bin/../../lib/gcc/pic32mx/4.8.3/../../../../pic32mx/lib/fpu64\libc.a(sprintf_cdnopuxX.eo)
 .comment       0x00000000       0x3d d:/program files (x86)/microchip/xc32/v2.30/bin/bin/../../lib/gcc/pic32mx/4.8.3/../../../../pic32mx/lib/fpu64\libc.a(sscanf_cdnopuxX.eo)
 .comment       0x00000000       0x3d d:/program files (x86)/microchip/xc32/v2.30/bin/bin/../../lib/gcc/pic32mx/4.8.3/../../../../pic32mx/lib/fpu64\libc.a(vsnprintf.o)
 .comment       0x00000000       0x3d d:/program files (x86)/microchip/xc32/v2.30/bin/bin/../../lib/gcc/pic32mx/4.8.3/../../../../pic32mx/lib/fpu64\libc.a(errno.o)
 .comment       0x00000000       0x3d d:/program files (x86)/microchip/xc32/v2.30/bin/bin/../../lib/gcc/pic32mx/4.8.3/../../../../pic32mx/lib/fpu64\libc.a(doprnt_cdnopuxX.eo)
 .comment       0x00000000       0x3d d:/program files (x86)/microchip/xc32/v2.30/bin/bin/../../lib/gcc/pic32mx/4.8.3/../../../../pic32mx/lib/fpu64\libc.a(doprnt.o)
 .comment       0x00000000       0x3d d:/program files (x86)/microchip/xc32/v2.30/bin/bin/../../lib/gcc/pic32mx/4.8.3/../../../../pic32mx/lib/fpu64\libc.a(doscan_cdnopuxX.eo)
 .comment       0x00000000       0x3d d:/program files (x86)/microchip/xc32/v2.30/bin/bin/../../lib/gcc/pic32mx/4.8.3/../../../../pic32mx/lib/fpu64\libc.a(fgetc.o)
 .comment       0x00000000       0x3d d:/program files (x86)/microchip/xc32/v2.30/bin/bin/../../lib/gcc/pic32mx/4.8.3/../../../../pic32mx/lib/fpu64\libc.a(_fputc_simple.o)
 .comment       0x00000000       0x3d d:/program files (x86)/microchip/xc32/v2.30/bin/bin/../../lib/gcc/pic32mx/4.8.3/../../../../pic32mx/lib/fpu64\libc.a(ldpowers.o)
 .comment       0x00000000       0x3d d:/program files (x86)/microchip/xc32/v2.30/bin/bin/../../lib/gcc/pic32mx/4.8.3/../../../../pic32mx/lib/fpu64\libc.a(ungetc.o)
 .comment       0x00000000       0x3d d:/program files (x86)/microchip/xc32/v2.30/bin/bin/../../lib/gcc/pic32mx/4.8.3/../../../../pic32mx/lib/fpu64\libc.a(_iob.o)
 .comment       0x00000000       0x3d d:/program files (x86)/microchip/xc32/v2.30/bin/bin/../../lib/gcc/pic32mx/4.8.3/../../../../pic32mx/lib/fpu64\libc.a(filbuf.o)
 .comment       0x00000000       0x3d d:/program files (x86)/microchip/xc32/v2.30/bin/bin/../../lib/gcc/pic32mx/4.8.3/../../../../pic32mx/lib/fpu64\libc.a(_flsbuf_simple.o)
 .comment       0x00000000       0x3d d:/program files (x86)/microchip/xc32/v2.30/bin/bin/../../lib/gcc/pic32mx/4.8.3/../../../../pic32mx/lib/fpu64\libc.a(fflush.o)
 .comment       0x00000000       0x3d d:/program files (x86)/microchip/xc32/v2.30/bin/bin/../../lib/gcc/pic32mx/4.8.3/../../../../pic32mx/lib/fpu64\libmfd.a(s_frexp.o)
 .comment       0x00000000       0x3d d:/program files (x86)/microchip/xc32/v2.30/bin/bin/../../lib/gcc/pic32mx/4.8.3/fpu64\libgcc.a(_cmpdi2.o)
 .comment       0x00000000       0x3d d:/program files (x86)/microchip/xc32/v2.30/bin/bin/../../lib/gcc/pic32mx/4.8.3/fpu64\libgcc.a(_umoddi3.o)
 .comment       0x00000154       0x4b d:/program files (x86)/microchip/xc32/v2.30/bin/bin/../../lib/gcc/pic32mx/4.8.3/../../../../pic32mx/lib/fpu64\libpic32.a(sbrk.o)
                                 0x88 (size before relaxing)
 .comment       0x00000000       0x3d d:/program files (x86)/microchip/xc32/v2.30/bin/bin/../../lib/gcc/pic32mx/4.8.3/../../../../pic32mx/lib/fpu64\libpic32.a(read.o)
 .comment       0x00000000       0x3d d:/program files (x86)/microchip/xc32/v2.30/bin/bin/../../lib/gcc/pic32mx/4.8.3/../../../../pic32mx/lib/fpu64\libpic32.a(write.o)
 .comment       0x00000000       0x3d d:/program files (x86)/microchip/xc32/v2.30/bin/bin/../../lib/gcc/pic32mx/4.8.3/../../../../pic32mx/lib/fpu64\libpic32.a(xc32_uart.o)
 .comment       0x00000000       0x3d d:/program files (x86)/microchip/xc32/v2.30/bin/bin/../../lib/gcc/pic32mx/4.8.3/../../../../pic32mx/lib/fpu64\libpic32.a(_mon_putc.o)

.debug
 *.elf(.debug)
 *(.debug)

.line
 *.elf(.line)
 *(.line)

.debug_srcinfo
 *.elf(.debug_srcinfo)
 *(.debug_srcinfo)

.debug_sfnames
 *.elf(.debug_sfnames)
 *(.debug_sfnames)

.debug_aranges  0x00000000     0x34a8
 *.elf(.debug_aranges)
 *(.debug_aranges)
 .debug_aranges
                0x00000000       0x98 build/default/production/_ext/110609098/drv_spi.o
 .debug_aranges
                0x00000098       0xd8 build/default/production/_ext/1908449382/drv_spi_sys_queue_fifo.o
 .debug_aranges
                0x00000170      0x110 build/default/production/_ext/494209719/drv_tmr.o
 .debug_aranges
                0x00000280       0xe8 build/default/production/_ext/115751837/drv_usart.o
 .debug_aranges
                0x00000368       0x50 build/default/production/_ext/115751837/drv_usart_buffer_queue.o
 .debug_aranges
                0x000003b8       0x28 build/default/production/_ext/115751837/drv_usart_read_write.o
 .debug_aranges
                0x000003e0       0xa8 build/default/production/_ext/412220316/drv_wifi_com.o
 .debug_aranges
                0x00000488       0x58 build/default/production/_ext/412220316/drv_wifi_commands.o
 .debug_aranges
                0x000004e0       0x30 build/default/production/_ext/412220316/drv_wifi_config_data.o
 .debug_aranges
                0x00000510       0x98 build/default/production/_ext/412220316/drv_wifi_connection_algorithm.o
 .debug_aranges
                0x000005a8       0x58 build/default/production/_ext/412220316/drv_wifi_connection_manager.o
 .debug_aranges
                0x00000600       0xd0 build/default/production/_ext/412220316/drv_wifi_connection_profile.o
 .debug_aranges
                0x000006d0       0x20 build/default/production/_ext/412220316/drv_wifi_context_loader.o
 .debug_aranges
                0x000006f0       0x40 build/default/production/_ext/412220316/drv_wifi_debug_output.o
 .debug_aranges
                0x00000730       0x28 build/default/production/_ext/412220316/drv_wifi_eint.o
 .debug_aranges
                0x00000758       0x68 build/default/production/_ext/412220316/drv_wifi_events.o
 .debug_aranges
                0x000007c0       0x68 build/default/production/_ext/412220316/drv_wifi_event_handler.o
 .debug_aranges
                0x00000828       0x48 build/default/production/_ext/412220316/drv_wifi_init.o
 .debug_aranges
                0x00000870       0x30 build/default/production/_ext/412220316/drv_wifi_iwpriv.o
 .debug_aranges
                0x000008a0       0xe0 build/default/production/_ext/412220316/drv_wifi_mac.o
 .debug_aranges
                0x00000980       0xf0 build/default/production/_ext/412220316/drv_wifi_main.o
 .debug_aranges
                0x00000a70       0x38 build/default/production/_ext/412220316/drv_wifi_mgmt_msg.o
 .debug_aranges
                0x00000aa8       0xa0 build/default/production/_ext/412220316/drv_wifi_param_msg.o
 .debug_aranges
                0x00000b48       0x60 build/default/production/_ext/412220316/drv_wifi_pbkdf2.o
 .debug_aranges
                0x00000ba8       0x98 build/default/production/_ext/412220316/drv_wifi_power_save.o
 .debug_aranges
                0x00000c40       0x98 build/default/production/_ext/412220316/drv_wifi_raw.o
 .debug_aranges
                0x00000cd8       0x28 build/default/production/_ext/412220316/drv_wifi_scan.o
 .debug_aranges
                0x00000d00       0x50 build/default/production/_ext/412220316/drv_wifi_scan_helper.o
 .debug_aranges
                0x00000d50       0x40 build/default/production/_ext/412220316/drv_wifi_softap_client_cache.o
 .debug_aranges
                0x00000d90       0x80 build/default/production/_ext/412220316/drv_wifi_spi.o
 .debug_aranges
                0x00000e10       0x30 build/default/production/_ext/412220316/drv_wifi_tx_power.o
 .debug_aranges
                0x00000e40       0x98 build/default/production/_ext/412220316/drv_wifi_rtos_wrapper.o
 .debug_aranges
                0x00000ed8       0x88 build/default/production/_ext/2004362140/osal_freertos.o
 .debug_aranges
                0x00000f60       0xd0 build/default/production/_ext/1052224704/sys_command.o
 .debug_aranges
                0x00001030       0x60 build/default/production/_ext/595512524/sys_console.o
 .debug_aranges
                0x00001090       0x60 build/default/production/_ext/595512524/sys_console_uart.o
 .debug_aranges
                0x000010f0       0xe8 build/default/production/_ext/1855423469/sys_dma.o
 .debug_aranges
                0x000011d8       0x48 build/default/production/_ext/2044150628/sys_int_pic32.o
 .debug_aranges
                0x00001220       0x38 build/default/production/_ext/1304044280/sys_random.o
 .debug_aranges
                0x00001258       0x38 build/default/production/_ext/398504132/sys_reset.o
 .debug_aranges
                0x00001290       0xd0 build/default/production/_ext/1108686962/sys_tmr.o
 .debug_aranges
                0x00001360       0xb0 build/default/production/_ext/126554269/ipv4.o
 .debug_aranges
                0x00001410      0x228 build/default/production/_ext/126554269/tcp.o
 .debug_aranges
                0x00001638      0x1c0 build/default/production/_ext/126554269/udp.o
 .debug_aranges
                0x000017f8       0x48 build/default/production/_ext/126554269/tcpip_heap_alloc.o
 .debug_aranges
                0x00001840       0x60 build/default/production/_ext/126554269/tcpip_heap_internal.o
 .debug_aranges
                0x000018a0      0x120 build/default/production/_ext/126554269/arp.o
 .debug_aranges
                0x000019c0      0x188 build/default/production/_ext/126554269/dhcp.o
 .debug_aranges
                0x00001b48      0x148 build/default/production/_ext/126554269/dns.o
 .debug_aranges
                0x00001c90       0x38 build/default/production/_ext/126554269/icmp.o
 .debug_aranges
                0x00001cc8       0x40 build/default/production/_ext/126554269/nbns.o
 .debug_aranges
                0x00001d08       0x20 build/default/production/_ext/126554269/zero_conf_helper.o
 .debug_aranges
                0x00001d28       0x78 build/default/production/_ext/126554269/zero_conf_link_local.o
 .debug_aranges
                0x00001da0       0x48 build/default/production/_ext/126554269/tcpip_announce.o
 .debug_aranges
                0x00001de8       0xb8 build/default/production/_ext/126554269/tcpip_commands.o
 .debug_aranges
                0x00001ea0       0x40 build/default/production/_ext/1551925347/helpers.o
 .debug_aranges
                0x00001ee0       0x28 build/default/production/_ext/126554269/hash_fnv.o
 .debug_aranges
                0x00001f08       0x50 build/default/production/_ext/126554269/oahash.o
 .debug_aranges
                0x00001f58      0x210 build/default/production/_ext/126554269/tcpip_helpers.o
 .debug_aranges
                0x00002168       0x20 build/default/production/_ext/126554269/tcpip_helper_c32.o
 .debug_aranges
                0x00002188      0x380 build/default/production/_ext/126554269/tcpip_manager.o
 .debug_aranges
                0x00002508       0x40 build/default/production/_ext/126554269/tcpip_notify.o
 .debug_aranges
                0x00002548       0x78 build/default/production/_ext/126554269/tcpip_packet.o
 .debug_aranges
                0x000025c0       0x18 build/default/production/_ext/1808430591/croutine.o
 .debug_aranges
                0x000025d8       0x40 build/default/production/_ext/1808430591/list.o
 .debug_aranges
                0x00002618       0xb0 build/default/production/_ext/1808430591/queue.o
 .debug_aranges
                0x000026c8      0x178 build/default/production/_ext/1808430591/tasks.o
 .debug_aranges
                0x00002840       0x18 build/default/production/_ext/1808430591/timers.o
 .debug_aranges
                0x00002858       0x60 build/default/production/_ext/1808430591/event_groups.o
 .debug_aranges
                0x000028b8       0x38 build/default/production/_ext/508667646/heap_2.o
 .debug_aranges
                0x000028f0       0x58 build/default/production/_ext/417601773/port.o
 .debug_aranges
                0x00002948       0x30 build/default/production/_ext/417601773/port_asm.o
 .debug_aranges
                0x00002978       0x28 build/default/production/_ext/1360937237/wnetcom.o
 .debug_aranges
                0x000029a0       0x28 build/default/production/_ext/977502197/drv_spi_tasks.o
 .debug_aranges
                0x000029c8       0x28 build/default/production/_ext/977502197/drv_spi_api.o
 .debug_aranges
                0x000029f0       0x28 build/default/production/_ext/977502197/drv_spi_master_ebm_tasks.o
 .debug_aranges
                0x00002a18       0x48 build/default/production/_ext/977502197/drv_spi_master_dma_tasks.o
 .debug_aranges
                0x00002a60       0x88 build/default/production/_ext/639803181/sys_clk.o
 .debug_aranges
                0x00002ae8       0x88 build/default/production/_ext/639803181/sys_clk_pic32mz.o
 .debug_aranges
                0x00002b70       0x78 build/default/production/_ext/340578644/sys_devcon.o
 .debug_aranges
                0x00002be8       0xc8 build/default/production/_ext/340578644/sys_devcon_pic32mz.o
 .debug_aranges
                0x00002cb0       0x20 build/default/production/_ext/340578644/sys_devcon_cache_pic32mz.o
 .debug_aranges
                0x00002cd0      0x108 build/default/production/_ext/822048611/sys_ports_static.o
 .debug_aranges
                0x00002dd8       0x28 build/default/production/_ext/1688732426/system_init.o
 .debug_aranges
                0x00002e00       0x68 build/default/production/_ext/1688732426/system_interrupt.o
 .debug_aranges
                0x00002e68       0x20 build/default/production/_ext/1688732426/system_exceptions.o
 .debug_aranges
                0x00002e88       0x20 build/default/production/_ext/1360937237/main.o
 .debug_aranges
                0x00002ea8       0x30 build/default/production/_ext/1688732426/system_tasks.o
 .debug_aranges
                0x00002ed8       0x68 build/default/production/_ext/1688732426/system_interrupt_a.o
 .debug_aranges
                0x00002f40       0x28 build/default/production/_ext/1688732426/rtos_hooks.o
 .debug_aranges
                0x00002f68       0x20 d:/program files (x86)/microchip/xc32/v2.30/bin/bin/../../lib/gcc/pic32mx/4.8.3/fpu64\libgcc.a(_udivdi3.o)
 .debug_aranges
                0x00002f88       0x20 d:/program files (x86)/microchip/xc32/v2.30/bin/bin/../../lib/gcc/pic32mx/4.8.3/../../../../pic32mx/lib/fpu64\libpic32.a(default-bootstrap-exception-handler.o)
 .debug_aranges
                0x00002fa8       0x20 d:/program files (x86)/microchip/xc32/v2.30/bin/bin/../../lib/gcc/pic32mx/4.8.3/../../../../pic32mx/lib/fpu64\libpic32.a(default-on-reset.o)
 .debug_aranges
                0x00002fc8       0x20 d:/program files (x86)/microchip/xc32/v2.30/bin/bin/../../lib/gcc/pic32mx/4.8.3/../../../../pic32mx/lib/fpu64\libpic32.a(default-on-bootstrap.o)
 .debug_aranges
                0x00002fe8       0x20 d:/program files (x86)/microchip/xc32/v2.30/bin/bin/../../lib/gcc/pic32mx/4.8.3/../../../../pic32mx/lib/fpu64\libpic32.a(defaultinterrupt.o)
 .debug_aranges
                0x00003008       0x20 d:/program files (x86)/microchip/xc32/v2.30/bin/bin/../../lib/gcc/pic32mx/4.8.3/../../../../pic32mx/lib/fpu64\libpic32.a(default-cache-err-exception-handler.o)
 .debug_aranges
                0x00003028       0x20 d:/program files (x86)/microchip/xc32/v2.30/bin/bin/../../lib/gcc/pic32mx/4.8.3/../../../../pic32mx/lib/fpu64\libpic32.a(default-simple-tlb-refill-exception-handler.o)
 .debug_aranges
                0x00003048       0x20 d:/program files (x86)/microchip/xc32/v2.30/bin/bin/../../lib/gcc/pic32mx/4.8.3/../../../../pic32mx/lib/fpu64\libc.a(atoi.o)
 .debug_aranges
                0x00003068       0x20 d:/program files (x86)/microchip/xc32/v2.30/bin/bin/../../lib/gcc/pic32mx/4.8.3/../../../../pic32mx/lib/fpu64\libc.a(calloc.o)
 .debug_aranges
                0x00003088       0xa0 d:/program files (x86)/microchip/xc32/v2.30/bin/bin/../../lib/gcc/pic32mx/4.8.3/../../../../pic32mx/lib/fpu64\libc.a(ctypef.o)
 .debug_aranges
                0x00003128       0x30 d:/program files (x86)/microchip/xc32/v2.30/bin/bin/../../lib/gcc/pic32mx/4.8.3/../../../../pic32mx/lib/fpu64\libc.a(malloc.o)
 .debug_aranges
                0x00003158       0x28 d:/program files (x86)/microchip/xc32/v2.30/bin/bin/../../lib/gcc/pic32mx/4.8.3/../../../../pic32mx/lib/fpu64\libc.a(rand.o)
 .debug_aranges
                0x00003180       0x20 d:/program files (x86)/microchip/xc32/v2.30/bin/bin/../../lib/gcc/pic32mx/4.8.3/../../../../pic32mx/lib/fpu64\libc.a(strchr.o)
 .debug_aranges
                0x000031a0       0x20 d:/program files (x86)/microchip/xc32/v2.30/bin/bin/../../lib/gcc/pic32mx/4.8.3/../../../../pic32mx/lib/fpu64\libc.a(strncmp.o)
 .debug_aranges
                0x000031c0       0x20 d:/program files (x86)/microchip/xc32/v2.30/bin/bin/../../lib/gcc/pic32mx/4.8.3/../../../../pic32mx/lib/fpu64\libc.a(strncpy.o)
 .debug_aranges
                0x000031e0       0x28 d:/program files (x86)/microchip/xc32/v2.30/bin/bin/../../lib/gcc/pic32mx/4.8.3/../../../../pic32mx/lib/fpu64\libc.a(strtol.o)
 .debug_aranges
                0x00003208       0x20 d:/program files (x86)/microchip/xc32/v2.30/bin/bin/../../lib/gcc/pic32mx/4.8.3/../../../../pic32mx/lib/fpu64\libc.a(sprintf_cdnopuxX.eo)
 .debug_aranges
                0x00003228       0x20 d:/program files (x86)/microchip/xc32/v2.30/bin/bin/../../lib/gcc/pic32mx/4.8.3/../../../../pic32mx/lib/fpu64\libc.a(sscanf_cdnopuxX.eo)
 .debug_aranges
                0x00003248       0x20 d:/program files (x86)/microchip/xc32/v2.30/bin/bin/../../lib/gcc/pic32mx/4.8.3/../../../../pic32mx/lib/fpu64\libc.a(vsnprintf.o)
 .debug_aranges
                0x00003268       0x20 d:/program files (x86)/microchip/xc32/v2.30/bin/bin/../../lib/gcc/pic32mx/4.8.3/../../../../pic32mx/lib/fpu64\libc.a(doprnt_cdnopuxX.eo)
 .debug_aranges
                0x00003288       0x30 d:/program files (x86)/microchip/xc32/v2.30/bin/bin/../../lib/gcc/pic32mx/4.8.3/../../../../pic32mx/lib/fpu64\libc.a(doprnt.o)
 .debug_aranges
                0x000032b8       0x30 d:/program files (x86)/microchip/xc32/v2.30/bin/bin/../../lib/gcc/pic32mx/4.8.3/../../../../pic32mx/lib/fpu64\libc.a(doscan_cdnopuxX.eo)
 .debug_aranges
                0x000032e8       0x20 d:/program files (x86)/microchip/xc32/v2.30/bin/bin/../../lib/gcc/pic32mx/4.8.3/../../../../pic32mx/lib/fpu64\libc.a(fgetc.o)
 .debug_aranges
                0x00003308       0x20 d:/program files (x86)/microchip/xc32/v2.30/bin/bin/../../lib/gcc/pic32mx/4.8.3/../../../../pic32mx/lib/fpu64\libc.a(_fputc_simple.o)
 .debug_aranges
                0x00003328       0x20 d:/program files (x86)/microchip/xc32/v2.30/bin/bin/../../lib/gcc/pic32mx/4.8.3/../../../../pic32mx/lib/fpu64\libc.a(ungetc.o)
 .debug_aranges
                0x00003348       0x20 d:/program files (x86)/microchip/xc32/v2.30/bin/bin/../../lib/gcc/pic32mx/4.8.3/../../../../pic32mx/lib/fpu64\libc.a(filbuf.o)
 .debug_aranges
                0x00003368       0x20 d:/program files (x86)/microchip/xc32/v2.30/bin/bin/../../lib/gcc/pic32mx/4.8.3/../../../../pic32mx/lib/fpu64\libc.a(_flsbuf_simple.o)
 .debug_aranges
                0x00003388       0x20 d:/program files (x86)/microchip/xc32/v2.30/bin/bin/../../lib/gcc/pic32mx/4.8.3/../../../../pic32mx/lib/fpu64\libc.a(fflush.o)
 .debug_aranges
                0x000033a8       0x20 d:/program files (x86)/microchip/xc32/v2.30/bin/bin/../../lib/gcc/pic32mx/4.8.3/../../../../pic32mx/lib/fpu64\libmfd.a(s_frexp.o)
 .debug_aranges
                0x000033c8       0x20 d:/program files (x86)/microchip/xc32/v2.30/bin/bin/../../lib/gcc/pic32mx/4.8.3/fpu64\libgcc.a(_cmpdi2.o)
 .debug_aranges
                0x000033e8       0x20 d:/program files (x86)/microchip/xc32/v2.30/bin/bin/../../lib/gcc/pic32mx/4.8.3/fpu64\libgcc.a(_umoddi3.o)
 .debug_aranges
                0x00003408       0x40 d:/program files (x86)/microchip/xc32/v2.30/bin/bin/../../lib/gcc/pic32mx/4.8.3/../../../../pic32mx/lib/fpu64\libpic32.a(sbrk.o)
 .debug_aranges
                0x00003448       0x20 d:/program files (x86)/microchip/xc32/v2.30/bin/bin/../../lib/gcc/pic32mx/4.8.3/../../../../pic32mx/lib/fpu64\libpic32.a(read.o)
 .debug_aranges
                0x00003468       0x20 d:/program files (x86)/microchip/xc32/v2.30/bin/bin/../../lib/gcc/pic32mx/4.8.3/../../../../pic32mx/lib/fpu64\libpic32.a(write.o)
 .debug_aranges
                0x00003488       0x20 d:/program files (x86)/microchip/xc32/v2.30/bin/bin/../../lib/gcc/pic32mx/4.8.3/../../../../pic32mx/lib/fpu64\libpic32.a(_mon_putc.o)

.debug_pubnames
 *.elf(.debug_pubnames)
 *(.debug_pubnames)

.debug_info     0x00000000   0x11666c
 *.elf(.debug_info .gnu.linkonce.wi.*)
 *(.debug_info .gnu.linkonce.wi.*)
 .debug_info    0x00000000     0x730c build/default/production/_ext/110609098/drv_spi.o
 .debug_info    0x0000730c     0x193a build/default/production/_ext/1908449382/drv_spi_sys_queue_fifo.o
 .debug_info    0x00008c46     0x6315 build/default/production/_ext/494209719/drv_tmr.o
 .debug_info    0x0000ef5b     0x6b3a build/default/production/_ext/115751837/drv_usart.o
 .debug_info    0x00015a95     0x3fb9 build/default/production/_ext/115751837/drv_usart_buffer_queue.o
 .debug_info    0x00019a4e     0x397d build/default/production/_ext/115751837/drv_usart_read_write.o
 .debug_info    0x0001d3cb     0x38fd build/default/production/_ext/412220316/drv_wifi_com.o
 .debug_info    0x00020cc8     0x43e1 build/default/production/_ext/412220316/drv_wifi_commands.o
 .debug_info    0x000250a9     0x1353 build/default/production/_ext/412220316/drv_wifi_config_data.o
 .debug_info    0x000263fc     0x1f94 build/default/production/_ext/412220316/drv_wifi_connection_algorithm.o
 .debug_info    0x00028390     0x267e build/default/production/_ext/412220316/drv_wifi_connection_manager.o
 .debug_info    0x0002aa0e     0x2284 build/default/production/_ext/412220316/drv_wifi_connection_profile.o
 .debug_info    0x0002cc92     0x1838 build/default/production/_ext/412220316/drv_wifi_context_loader.o
 .debug_info    0x0002e4ca     0x2fa6 build/default/production/_ext/412220316/drv_wifi_debug_output.o
 .debug_info    0x00031470     0x267f build/default/production/_ext/412220316/drv_wifi_eint.o
 .debug_info    0x00033aef     0x470d build/default/production/_ext/412220316/drv_wifi_events.o
 .debug_info    0x000381fc     0x3ad6 build/default/production/_ext/412220316/drv_wifi_event_handler.o
 .debug_info    0x0003bcd2     0x4a51 build/default/production/_ext/412220316/drv_wifi_init.o
 .debug_info    0x00040723     0x30b9 build/default/production/_ext/412220316/drv_wifi_iwpriv.o
 .debug_info    0x000437dc     0x5886 build/default/production/_ext/412220316/drv_wifi_mac.o
 .debug_info    0x00049062     0x555d build/default/production/_ext/412220316/drv_wifi_main.o
 .debug_info    0x0004e5bf     0x20c0 build/default/production/_ext/412220316/drv_wifi_mgmt_msg.o
 .debug_info    0x0005067f     0x22c1 build/default/production/_ext/412220316/drv_wifi_param_msg.o
 .debug_info    0x00052940     0x1d8a build/default/production/_ext/412220316/drv_wifi_pbkdf2.o
 .debug_info    0x000546ca     0x1d8f build/default/production/_ext/412220316/drv_wifi_power_save.o
 .debug_info    0x00056459     0x19ff build/default/production/_ext/412220316/drv_wifi_raw.o
 .debug_info    0x00057e58     0x1d00 build/default/production/_ext/412220316/drv_wifi_scan.o
 .debug_info    0x00059b58     0x205a build/default/production/_ext/412220316/drv_wifi_scan_helper.o
 .debug_info    0x0005bbb2     0x12ac build/default/production/_ext/412220316/drv_wifi_softap_client_cache.o
 .debug_info    0x0005ce5e     0x2180 build/default/production/_ext/412220316/drv_wifi_spi.o
 .debug_info    0x0005efde     0x11e1 build/default/production/_ext/412220316/drv_wifi_tx_power.o
 .debug_info    0x000601bf     0x1932 build/default/production/_ext/412220316/drv_wifi_rtos_wrapper.o
 .debug_info    0x00061af1      0xa7b build/default/production/_ext/2004362140/osal_freertos.o
 .debug_info    0x0006256c     0x2fff build/default/production/_ext/1052224704/sys_command.o
 .debug_info    0x0006556b      0xc72 build/default/production/_ext/595512524/sys_console.o
 .debug_info    0x000661dd     0x1891 build/default/production/_ext/595512524/sys_console_uart.o
 .debug_info    0x00067a6e     0x88c6 build/default/production/_ext/1855423469/sys_dma.o
 .debug_info    0x00070334     0x20cb build/default/production/_ext/2044150628/sys_int_pic32.o
 .debug_info    0x000723ff      0x5e3 build/default/production/_ext/1304044280/sys_random.o
 .debug_info    0x000729e2      0xc7d build/default/production/_ext/398504132/sys_reset.o
 .debug_info    0x0007365f     0x2578 build/default/production/_ext/1108686962/sys_tmr.o
 .debug_info    0x00075bd7     0x676d build/default/production/_ext/126554269/ipv4.o
 .debug_info    0x0007c344     0xa957 build/default/production/_ext/126554269/tcp.o
 .debug_info    0x00086c9b     0x899d build/default/production/_ext/126554269/udp.o
 .debug_info    0x0008f638     0x1682 build/default/production/_ext/126554269/tcpip_heap_alloc.o
 .debug_info    0x00090cba     0x1e87 build/default/production/_ext/126554269/tcpip_heap_internal.o
 .debug_info    0x00092b41     0x6ef1 build/default/production/_ext/126554269/arp.o
 .debug_info    0x00099a32     0x97c3 build/default/production/_ext/126554269/dhcp.o
 .debug_info    0x000a31f5     0x7a76 build/default/production/_ext/126554269/dns.o
 .debug_info    0x000aac6b     0x3b54 build/default/production/_ext/126554269/icmp.o
 .debug_info    0x000ae7bf     0x4069 build/default/production/_ext/126554269/nbns.o
 .debug_info    0x000b2828      0xe98 build/default/production/_ext/126554269/zero_conf_helper.o
 .debug_info    0x000b36c0     0x4aac build/default/production/_ext/126554269/zero_conf_link_local.o
 .debug_info    0x000b816c     0x451e build/default/production/_ext/126554269/tcpip_announce.o
 .debug_info    0x000bc68a     0x8c1a build/default/production/_ext/126554269/tcpip_commands.o
 .debug_info    0x000c52a4      0x4b3 build/default/production/_ext/1551925347/helpers.o
 .debug_info    0x000c5757      0x2a8 build/default/production/_ext/126554269/hash_fnv.o
 .debug_info    0x000c59ff      0x8c2 build/default/production/_ext/126554269/oahash.o
 .debug_info    0x000c62c1     0x422c build/default/production/_ext/126554269/tcpip_helpers.o
 .debug_info    0x000ca4ed       0xd7 build/default/production/_ext/126554269/tcpip_helper_c32.o
 .debug_info    0x000ca5c4     0xac91 build/default/production/_ext/126554269/tcpip_manager.o
 .debug_info    0x000d5255     0x14e2 build/default/production/_ext/126554269/tcpip_notify.o
 .debug_info    0x000d6737     0x2116 build/default/production/_ext/126554269/tcpip_packet.o
 .debug_info    0x000d884d      0x1a5 build/default/production/_ext/1808430591/croutine.o
 .debug_info    0x000d89f2      0x4a1 build/default/production/_ext/1808430591/list.o
 .debug_info    0x000d8e93     0x194a build/default/production/_ext/1808430591/queue.o
 .debug_info    0x000da7dd     0x2944 build/default/production/_ext/1808430591/tasks.o
 .debug_info    0x000dd121      0x1a3 build/default/production/_ext/1808430591/timers.o
 .debug_info    0x000dd2c4      0xd78 build/default/production/_ext/1808430591/event_groups.o
 .debug_info    0x000de03c      0x5b2 build/default/production/_ext/508667646/heap_2.o
 .debug_info    0x000de5ee      0xe99 build/default/production/_ext/417601773/port.o
 .debug_info    0x000df487       0xef build/default/production/_ext/417601773/port_asm.o
 .debug_info    0x000df576     0x1cdd build/default/production/_ext/1360937237/wnetcom.o
 .debug_info    0x000e1253     0x5d81 build/default/production/_ext/977502197/drv_spi_tasks.o
 .debug_info    0x000e6fd4     0x7161 build/default/production/_ext/977502197/drv_spi_api.o
 .debug_info    0x000ee135     0x4f12 build/default/production/_ext/977502197/drv_spi_master_ebm_tasks.o
 .debug_info    0x000f3047     0x4d75 build/default/production/_ext/977502197/drv_spi_master_dma_tasks.o
 .debug_info    0x000f7dbc     0x2c80 build/default/production/_ext/639803181/sys_clk.o
 .debug_info    0x000faa3c     0x3445 build/default/production/_ext/639803181/sys_clk_pic32mz.o
 .debug_info    0x000fde81     0x1772 build/default/production/_ext/340578644/sys_devcon.o
 .debug_info    0x000ff5f3     0x127e build/default/production/_ext/340578644/sys_devcon_pic32mz.o
 .debug_info    0x00100871       0xd6 build/default/production/_ext/340578644/sys_devcon_cache_pic32mz.o
 .debug_info    0x00100947     0x5784 build/default/production/_ext/822048611/sys_ports_static.o
 .debug_info    0x001060cb     0x8f08 build/default/production/_ext/1688732426/system_init.o
 .debug_info    0x0010efd3     0x2640 build/default/production/_ext/1688732426/system_interrupt.o
 .debug_info    0x00111613      0xe2d build/default/production/_ext/1688732426/system_exceptions.o
 .debug_info    0x00112440      0x1be build/default/production/_ext/1360937237/main.o
 .debug_info    0x001125fe      0xf6b build/default/production/_ext/1688732426/system_tasks.o
 .debug_info    0x00113569       0xb0 build/default/production/_ext/1688732426/system_interrupt_a.o
 .debug_info    0x00113619      0x266 build/default/production/_ext/1688732426/rtos_hooks.o
 .debug_info    0x0011387f      0x751 d:/program files (x86)/microchip/xc32/v2.30/bin/bin/../../lib/gcc/pic32mx/4.8.3/fpu64\libgcc.a(_udivdi3.o)
 .debug_info    0x00113fd0       0xf4 d:/program files (x86)/microchip/xc32/v2.30/bin/bin/../../lib/gcc/pic32mx/4.8.3/../../../../pic32mx/lib/fpu64\libpic32.a(default-bootstrap-exception-handler.o)
 .debug_info    0x001140c4       0xcd d:/program files (x86)/microchip/xc32/v2.30/bin/bin/../../lib/gcc/pic32mx/4.8.3/../../../../pic32mx/lib/fpu64\libpic32.a(default-on-reset.o)
 .debug_info    0x00114191       0xd5 d:/program files (x86)/microchip/xc32/v2.30/bin/bin/../../lib/gcc/pic32mx/4.8.3/../../../../pic32mx/lib/fpu64\libpic32.a(default-on-bootstrap.o)
 .debug_info    0x00114266       0xe7 d:/program files (x86)/microchip/xc32/v2.30/bin/bin/../../lib/gcc/pic32mx/4.8.3/../../../../pic32mx/lib/fpu64\libpic32.a(defaultinterrupt.o)
 .debug_info    0x0011434d       0xf4 d:/program files (x86)/microchip/xc32/v2.30/bin/bin/../../lib/gcc/pic32mx/4.8.3/../../../../pic32mx/lib/fpu64\libpic32.a(default-cache-err-exception-handler.o)
 .debug_info    0x00114441      0x104 d:/program files (x86)/microchip/xc32/v2.30/bin/bin/../../lib/gcc/pic32mx/4.8.3/../../../../pic32mx/lib/fpu64\libpic32.a(default-simple-tlb-refill-exception-handler.o)
 .debug_info    0x00114545       0xc0 d:/program files (x86)/microchip/xc32/v2.30/bin/bin/../../lib/gcc/pic32mx/4.8.3/../../../../pic32mx/lib/fpu64\libc.a(atoi.o)
 .debug_info    0x00114605       0xc4 d:/program files (x86)/microchip/xc32/v2.30/bin/bin/../../lib/gcc/pic32mx/4.8.3/../../../../pic32mx/lib/fpu64\libc.a(calloc.o)
 .debug_info    0x001146c9      0x238 d:/program files (x86)/microchip/xc32/v2.30/bin/bin/../../lib/gcc/pic32mx/4.8.3/../../../../pic32mx/lib/fpu64\libc.a(ctypef.o)
 .debug_info    0x00114901       0xf5 d:/program files (x86)/microchip/xc32/v2.30/bin/bin/../../lib/gcc/pic32mx/4.8.3/../../../../pic32mx/lib/fpu64\libc.a(malloc.o)
 .debug_info    0x001149f6       0xdb d:/program files (x86)/microchip/xc32/v2.30/bin/bin/../../lib/gcc/pic32mx/4.8.3/../../../../pic32mx/lib/fpu64\libc.a(rand.o)
 .debug_info    0x00114ad1       0xc4 d:/program files (x86)/microchip/xc32/v2.30/bin/bin/../../lib/gcc/pic32mx/4.8.3/../../../../pic32mx/lib/fpu64\libc.a(strchr.o)
 .debug_info    0x00114b95       0xc6 d:/program files (x86)/microchip/xc32/v2.30/bin/bin/../../lib/gcc/pic32mx/4.8.3/../../../../pic32mx/lib/fpu64\libc.a(strncmp.o)
 .debug_info    0x00114c5b       0xc6 d:/program files (x86)/microchip/xc32/v2.30/bin/bin/../../lib/gcc/pic32mx/4.8.3/../../../../pic32mx/lib/fpu64\libc.a(strncpy.o)
 .debug_info    0x00114d21       0xdb d:/program files (x86)/microchip/xc32/v2.30/bin/bin/../../lib/gcc/pic32mx/4.8.3/../../../../pic32mx/lib/fpu64\libc.a(strtol.o)
 .debug_info    0x00114dfc       0xd0 d:/program files (x86)/microchip/xc32/v2.30/bin/bin/../../lib/gcc/pic32mx/4.8.3/../../../../pic32mx/lib/fpu64\libc.a(sprintf_cdnopuxX.eo)
 .debug_info    0x00114ecc       0xce d:/program files (x86)/microchip/xc32/v2.30/bin/bin/../../lib/gcc/pic32mx/4.8.3/../../../../pic32mx/lib/fpu64\libc.a(sscanf_cdnopuxX.eo)
 .debug_info    0x00114f9a       0xca d:/program files (x86)/microchip/xc32/v2.30/bin/bin/../../lib/gcc/pic32mx/4.8.3/../../../../pic32mx/lib/fpu64\libc.a(vsnprintf.o)
 .debug_info    0x00115064       0xd1 d:/program files (x86)/microchip/xc32/v2.30/bin/bin/../../lib/gcc/pic32mx/4.8.3/../../../../pic32mx/lib/fpu64\libc.a(doprnt_cdnopuxX.eo)
 .debug_info    0x00115135      0x108 d:/program files (x86)/microchip/xc32/v2.30/bin/bin/../../lib/gcc/pic32mx/4.8.3/../../../../pic32mx/lib/fpu64\libc.a(doprnt.o)
 .debug_info    0x0011523d       0xf8 d:/program files (x86)/microchip/xc32/v2.30/bin/bin/../../lib/gcc/pic32mx/4.8.3/../../../../pic32mx/lib/fpu64\libc.a(doscan_cdnopuxX.eo)
 .debug_info    0x00115335       0xc2 d:/program files (x86)/microchip/xc32/v2.30/bin/bin/../../lib/gcc/pic32mx/4.8.3/../../../../pic32mx/lib/fpu64\libc.a(fgetc.o)
 .debug_info    0x001153f7       0xc2 d:/program files (x86)/microchip/xc32/v2.30/bin/bin/../../lib/gcc/pic32mx/4.8.3/../../../../pic32mx/lib/fpu64\libc.a(_fputc_simple.o)
 .debug_info    0x001154b9       0xc4 d:/program files (x86)/microchip/xc32/v2.30/bin/bin/../../lib/gcc/pic32mx/4.8.3/../../../../pic32mx/lib/fpu64\libc.a(ungetc.o)
 .debug_info    0x0011557d       0xc5 d:/program files (x86)/microchip/xc32/v2.30/bin/bin/../../lib/gcc/pic32mx/4.8.3/../../../../pic32mx/lib/fpu64\libc.a(filbuf.o)
 .debug_info    0x00115642       0xc5 d:/program files (x86)/microchip/xc32/v2.30/bin/bin/../../lib/gcc/pic32mx/4.8.3/../../../../pic32mx/lib/fpu64\libc.a(_flsbuf_simple.o)
 .debug_info    0x00115707       0xc4 d:/program files (x86)/microchip/xc32/v2.30/bin/bin/../../lib/gcc/pic32mx/4.8.3/../../../../pic32mx/lib/fpu64\libc.a(fflush.o)
 .debug_info    0x001157cb       0xc0 d:/program files (x86)/microchip/xc32/v2.30/bin/bin/../../lib/gcc/pic32mx/4.8.3/../../../../pic32mx/lib/fpu64\libmfd.a(s_frexp.o)
 .debug_info    0x0011588b      0x2df d:/program files (x86)/microchip/xc32/v2.30/bin/bin/../../lib/gcc/pic32mx/4.8.3/fpu64\libgcc.a(_cmpdi2.o)
 .debug_info    0x00115b6a      0x78e d:/program files (x86)/microchip/xc32/v2.30/bin/bin/../../lib/gcc/pic32mx/4.8.3/fpu64\libgcc.a(_umoddi3.o)
 .debug_info    0x001162f8      0x131 d:/program files (x86)/microchip/xc32/v2.30/bin/bin/../../lib/gcc/pic32mx/4.8.3/../../../../pic32mx/lib/fpu64\libpic32.a(sbrk.o)
 .debug_info    0x00116429       0xbd d:/program files (x86)/microchip/xc32/v2.30/bin/bin/../../lib/gcc/pic32mx/4.8.3/../../../../pic32mx/lib/fpu64\libpic32.a(read.o)
 .debug_info    0x001164e6       0xbf d:/program files (x86)/microchip/xc32/v2.30/bin/bin/../../lib/gcc/pic32mx/4.8.3/../../../../pic32mx/lib/fpu64\libpic32.a(write.o)
 .debug_info    0x001165a5       0xc7 d:/program files (x86)/microchip/xc32/v2.30/bin/bin/../../lib/gcc/pic32mx/4.8.3/../../../../pic32mx/lib/fpu64\libpic32.a(_mon_putc.o)

.debug_abbrev   0x00000000    0x113ac
 *.elf(.debug_abbrev)
 *(.debug_abbrev)
 .debug_abbrev  0x00000000      0x47b build/default/production/_ext/110609098/drv_spi.o
 .debug_abbrev  0x0000047b      0x23c build/default/production/_ext/1908449382/drv_spi_sys_queue_fifo.o
 .debug_abbrev  0x000006b7      0x4b5 build/default/production/_ext/494209719/drv_tmr.o
 .debug_abbrev  0x00000b6c      0x47f build/default/production/_ext/115751837/drv_usart.o
 .debug_abbrev  0x00000feb      0x3f2 build/default/production/_ext/115751837/drv_usart_buffer_queue.o
 .debug_abbrev  0x000013dd      0x398 build/default/production/_ext/115751837/drv_usart_read_write.o
 .debug_abbrev  0x00001775      0x3e6 build/default/production/_ext/412220316/drv_wifi_com.o
 .debug_abbrev  0x00001b5b      0x3e7 build/default/production/_ext/412220316/drv_wifi_commands.o
 .debug_abbrev  0x00001f42      0x20f build/default/production/_ext/412220316/drv_wifi_config_data.o
 .debug_abbrev  0x00002151      0x263 build/default/production/_ext/412220316/drv_wifi_connection_algorithm.o
 .debug_abbrev  0x000023b4      0x307 build/default/production/_ext/412220316/drv_wifi_connection_manager.o
 .debug_abbrev  0x000026bb      0x2ca build/default/production/_ext/412220316/drv_wifi_connection_profile.o
 .debug_abbrev  0x00002985      0x2b3 build/default/production/_ext/412220316/drv_wifi_context_loader.o
 .debug_abbrev  0x00002c38      0x38a build/default/production/_ext/412220316/drv_wifi_debug_output.o
 .debug_abbrev  0x00002fc2      0x1f1 build/default/production/_ext/412220316/drv_wifi_eint.o
 .debug_abbrev  0x000031b3      0x3e5 build/default/production/_ext/412220316/drv_wifi_events.o
 .debug_abbrev  0x00003598      0x3e5 build/default/production/_ext/412220316/drv_wifi_event_handler.o
 .debug_abbrev  0x0000397d      0x499 build/default/production/_ext/412220316/drv_wifi_init.o
 .debug_abbrev  0x00003e16      0x3a2 build/default/production/_ext/412220316/drv_wifi_iwpriv.o
 .debug_abbrev  0x000041b8      0x49d build/default/production/_ext/412220316/drv_wifi_mac.o
 .debug_abbrev  0x00004655      0x502 build/default/production/_ext/412220316/drv_wifi_main.o
 .debug_abbrev  0x00004b57      0x241 build/default/production/_ext/412220316/drv_wifi_mgmt_msg.o
 .debug_abbrev  0x00004d98      0x279 build/default/production/_ext/412220316/drv_wifi_param_msg.o
 .debug_abbrev  0x00005011      0x315 build/default/production/_ext/412220316/drv_wifi_pbkdf2.o
 .debug_abbrev  0x00005326      0x36d build/default/production/_ext/412220316/drv_wifi_power_save.o
 .debug_abbrev  0x00005693      0x2f6 build/default/production/_ext/412220316/drv_wifi_raw.o
 .debug_abbrev  0x00005989      0x222 build/default/production/_ext/412220316/drv_wifi_scan.o
 .debug_abbrev  0x00005bab      0x244 build/default/production/_ext/412220316/drv_wifi_scan_helper.o
 .debug_abbrev  0x00005def      0x293 build/default/production/_ext/412220316/drv_wifi_softap_client_cache.o
 .debug_abbrev  0x00006082      0x32f build/default/production/_ext/412220316/drv_wifi_spi.o
 .debug_abbrev  0x000063b1      0x19a build/default/production/_ext/412220316/drv_wifi_tx_power.o
 .debug_abbrev  0x0000654b      0x246 build/default/production/_ext/412220316/drv_wifi_rtos_wrapper.o
 .debug_abbrev  0x00006791      0x1fe build/default/production/_ext/2004362140/osal_freertos.o
 .debug_abbrev  0x0000698f      0x457 build/default/production/_ext/1052224704/sys_command.o
 .debug_abbrev  0x00006de6      0x23e build/default/production/_ext/595512524/sys_console.o
 .debug_abbrev  0x00007024      0x32b build/default/production/_ext/595512524/sys_console_uart.o
 .debug_abbrev  0x0000734f      0x407 build/default/production/_ext/1855423469/sys_dma.o
 .debug_abbrev  0x00007756      0x212 build/default/production/_ext/2044150628/sys_int_pic32.o
 .debug_abbrev  0x00007968      0x1de build/default/production/_ext/1304044280/sys_random.o
 .debug_abbrev  0x00007b46      0x1d8 build/default/production/_ext/398504132/sys_reset.o
 .debug_abbrev  0x00007d1e      0x4ce build/default/production/_ext/1108686962/sys_tmr.o
 .debug_abbrev  0x000081ec      0x533 build/default/production/_ext/126554269/ipv4.o
 .debug_abbrev  0x0000871f      0x5d6 build/default/production/_ext/126554269/tcp.o
 .debug_abbrev  0x00008cf5      0x5f6 build/default/production/_ext/126554269/udp.o
 .debug_abbrev  0x000092eb      0x1f5 build/default/production/_ext/126554269/tcpip_heap_alloc.o
 .debug_abbrev  0x000094e0      0x34e build/default/production/_ext/126554269/tcpip_heap_internal.o
 .debug_abbrev  0x0000982e      0x55f build/default/production/_ext/126554269/arp.o
 .debug_abbrev  0x00009d8d      0x5ad build/default/production/_ext/126554269/dhcp.o
 .debug_abbrev  0x0000a33a      0x5f5 build/default/production/_ext/126554269/dns.o
 .debug_abbrev  0x0000a92f      0x41c build/default/production/_ext/126554269/icmp.o
 .debug_abbrev  0x0000ad4b      0x418 build/default/production/_ext/126554269/nbns.o
 .debug_abbrev  0x0000b163      0x116 build/default/production/_ext/126554269/zero_conf_helper.o
 .debug_abbrev  0x0000b279      0x4b6 build/default/production/_ext/126554269/zero_conf_link_local.o
 .debug_abbrev  0x0000b72f      0x3fb build/default/production/_ext/126554269/tcpip_announce.o
 .debug_abbrev  0x0000bb2a      0x4a7 build/default/production/_ext/126554269/tcpip_commands.o
 .debug_abbrev  0x0000bfd1      0x12e build/default/production/_ext/1551925347/helpers.o
 .debug_abbrev  0x0000c0ff       0xb5 build/default/production/_ext/126554269/hash_fnv.o
 .debug_abbrev  0x0000c1b4      0x277 build/default/production/_ext/126554269/oahash.o
 .debug_abbrev  0x0000c42b      0x426 build/default/production/_ext/126554269/tcpip_helpers.o
 .debug_abbrev  0x0000c851       0x14 build/default/production/_ext/126554269/tcpip_helper_c32.o
 .debug_abbrev  0x0000c865      0x620 build/default/production/_ext/126554269/tcpip_manager.o
 .debug_abbrev  0x0000ce85      0x245 build/default/production/_ext/126554269/tcpip_notify.o
 .debug_abbrev  0x0000d0ca      0x33a build/default/production/_ext/126554269/tcpip_packet.o
 .debug_abbrev  0x0000d404       0x1b build/default/production/_ext/1808430591/croutine.o
 .debug_abbrev  0x0000d41f       0xf1 build/default/production/_ext/1808430591/list.o
 .debug_abbrev  0x0000d510      0x2f4 build/default/production/_ext/1808430591/queue.o
 .debug_abbrev  0x0000d804      0x381 build/default/production/_ext/1808430591/tasks.o
 .debug_abbrev  0x0000db85       0x1b build/default/production/_ext/1808430591/timers.o
 .debug_abbrev  0x0000dba0      0x29a build/default/production/_ext/1808430591/event_groups.o
 .debug_abbrev  0x0000de3a      0x1db build/default/production/_ext/508667646/heap_2.o
 .debug_abbrev  0x0000e015      0x261 build/default/production/_ext/417601773/port.o
 .debug_abbrev  0x0000e276       0x12 build/default/production/_ext/417601773/port_asm.o
 .debug_abbrev  0x0000e288      0x304 build/default/production/_ext/1360937237/wnetcom.o
 .debug_abbrev  0x0000e58c      0x380 build/default/production/_ext/977502197/drv_spi_tasks.o
 .debug_abbrev  0x0000e90c      0x324 build/default/production/_ext/977502197/drv_spi_api.o
 .debug_abbrev  0x0000ec30      0x28d build/default/production/_ext/977502197/drv_spi_master_ebm_tasks.o
 .debug_abbrev  0x0000eebd      0x29a build/default/production/_ext/977502197/drv_spi_master_dma_tasks.o
 .debug_abbrev  0x0000f157      0x39d build/default/production/_ext/639803181/sys_clk.o
 .debug_abbrev  0x0000f4f4      0x3eb build/default/production/_ext/639803181/sys_clk_pic32mz.o
 .debug_abbrev  0x0000f8df      0x2cf build/default/production/_ext/340578644/sys_devcon.o
 .debug_abbrev  0x0000fbae      0x290 build/default/production/_ext/340578644/sys_devcon_pic32mz.o
 .debug_abbrev  0x0000fe3e       0x14 build/default/production/_ext/340578644/sys_devcon_cache_pic32mz.o
 .debug_abbrev  0x0000fe52      0x2dd build/default/production/_ext/822048611/sys_ports_static.o
 .debug_abbrev  0x0001012f      0x3a7 build/default/production/_ext/1688732426/system_init.o
 .debug_abbrev  0x000104d6      0x209 build/default/production/_ext/1688732426/system_interrupt.o
 .debug_abbrev  0x000106df       0xfc build/default/production/_ext/1688732426/system_exceptions.o
 .debug_abbrev  0x000107db       0x93 build/default/production/_ext/1360937237/main.o
 .debug_abbrev  0x0001086e      0x1af build/default/production/_ext/1688732426/system_tasks.o
 .debug_abbrev  0x00010a1d       0x12 build/default/production/_ext/1688732426/system_interrupt_a.o
 .debug_abbrev  0x00010a2f       0x97 build/default/production/_ext/1688732426/rtos_hooks.o
 .debug_abbrev  0x00010ac6      0x138 d:/program files (x86)/microchip/xc32/v2.30/bin/bin/../../lib/gcc/pic32mx/4.8.3/fpu64\libgcc.a(_udivdi3.o)
 .debug_abbrev  0x00010bfe       0x28 d:/program files (x86)/microchip/xc32/v2.30/bin/bin/../../lib/gcc/pic32mx/4.8.3/../../../../pic32mx/lib/fpu64\libpic32.a(default-bootstrap-exception-handler.o)
 .debug_abbrev  0x00010c26       0x28 d:/program files (x86)/microchip/xc32/v2.30/bin/bin/../../lib/gcc/pic32mx/4.8.3/../../../../pic32mx/lib/fpu64\libpic32.a(default-on-reset.o)
 .debug_abbrev  0x00010c4e       0x28 d:/program files (x86)/microchip/xc32/v2.30/bin/bin/../../lib/gcc/pic32mx/4.8.3/../../../../pic32mx/lib/fpu64\libpic32.a(default-on-bootstrap.o)
 .debug_abbrev  0x00010c76       0x28 d:/program files (x86)/microchip/xc32/v2.30/bin/bin/../../lib/gcc/pic32mx/4.8.3/../../../../pic32mx/lib/fpu64\libpic32.a(defaultinterrupt.o)
 .debug_abbrev  0x00010c9e       0x28 d:/program files (x86)/microchip/xc32/v2.30/bin/bin/../../lib/gcc/pic32mx/4.8.3/../../../../pic32mx/lib/fpu64\libpic32.a(default-cache-err-exception-handler.o)
 .debug_abbrev  0x00010cc6       0x28 d:/program files (x86)/microchip/xc32/v2.30/bin/bin/../../lib/gcc/pic32mx/4.8.3/../../../../pic32mx/lib/fpu64\libpic32.a(default-simple-tlb-refill-exception-handler.o)
 .debug_abbrev  0x00010cee       0x28 d:/program files (x86)/microchip/xc32/v2.30/bin/bin/../../lib/gcc/pic32mx/4.8.3/../../../../pic32mx/lib/fpu64\libc.a(atoi.o)
 .debug_abbrev  0x00010d16       0x28 d:/program files (x86)/microchip/xc32/v2.30/bin/bin/../../lib/gcc/pic32mx/4.8.3/../../../../pic32mx/lib/fpu64\libc.a(calloc.o)
 .debug_abbrev  0x00010d3e       0x28 d:/program files (x86)/microchip/xc32/v2.30/bin/bin/../../lib/gcc/pic32mx/4.8.3/../../../../pic32mx/lib/fpu64\libc.a(ctypef.o)
 .debug_abbrev  0x00010d66       0x47 d:/program files (x86)/microchip/xc32/v2.30/bin/bin/../../lib/gcc/pic32mx/4.8.3/../../../../pic32mx/lib/fpu64\libc.a(malloc.o)
 .debug_abbrev  0x00010dad       0x47 d:/program files (x86)/microchip/xc32/v2.30/bin/bin/../../lib/gcc/pic32mx/4.8.3/../../../../pic32mx/lib/fpu64\libc.a(rand.o)
 .debug_abbrev  0x00010df4       0x28 d:/program files (x86)/microchip/xc32/v2.30/bin/bin/../../lib/gcc/pic32mx/4.8.3/../../../../pic32mx/lib/fpu64\libc.a(strchr.o)
 .debug_abbrev  0x00010e1c       0x28 d:/program files (x86)/microchip/xc32/v2.30/bin/bin/../../lib/gcc/pic32mx/4.8.3/../../../../pic32mx/lib/fpu64\libc.a(strncmp.o)
 .debug_abbrev  0x00010e44       0x28 d:/program files (x86)/microchip/xc32/v2.30/bin/bin/../../lib/gcc/pic32mx/4.8.3/../../../../pic32mx/lib/fpu64\libc.a(strncpy.o)
 .debug_abbrev  0x00010e6c       0x28 d:/program files (x86)/microchip/xc32/v2.30/bin/bin/../../lib/gcc/pic32mx/4.8.3/../../../../pic32mx/lib/fpu64\libc.a(strtol.o)
 .debug_abbrev  0x00010e94       0x28 d:/program files (x86)/microchip/xc32/v2.30/bin/bin/../../lib/gcc/pic32mx/4.8.3/../../../../pic32mx/lib/fpu64\libc.a(sprintf_cdnopuxX.eo)
 .debug_abbrev  0x00010ebc       0x28 d:/program files (x86)/microchip/xc32/v2.30/bin/bin/../../lib/gcc/pic32mx/4.8.3/../../../../pic32mx/lib/fpu64\libc.a(sscanf_cdnopuxX.eo)
 .debug_abbrev  0x00010ee4       0x28 d:/program files (x86)/microchip/xc32/v2.30/bin/bin/../../lib/gcc/pic32mx/4.8.3/../../../../pic32mx/lib/fpu64\libc.a(vsnprintf.o)
 .debug_abbrev  0x00010f0c       0x28 d:/program files (x86)/microchip/xc32/v2.30/bin/bin/../../lib/gcc/pic32mx/4.8.3/../../../../pic32mx/lib/fpu64\libc.a(doprnt_cdnopuxX.eo)
 .debug_abbrev  0x00010f34       0x52 d:/program files (x86)/microchip/xc32/v2.30/bin/bin/../../lib/gcc/pic32mx/4.8.3/../../../../pic32mx/lib/fpu64\libc.a(doprnt.o)
 .debug_abbrev  0x00010f86       0x3c d:/program files (x86)/microchip/xc32/v2.30/bin/bin/../../lib/gcc/pic32mx/4.8.3/../../../../pic32mx/lib/fpu64\libc.a(doscan_cdnopuxX.eo)
 .debug_abbrev  0x00010fc2       0x28 d:/program files (x86)/microchip/xc32/v2.30/bin/bin/../../lib/gcc/pic32mx/4.8.3/../../../../pic32mx/lib/fpu64\libc.a(fgetc.o)
 .debug_abbrev  0x00010fea       0x28 d:/program files (x86)/microchip/xc32/v2.30/bin/bin/../../lib/gcc/pic32mx/4.8.3/../../../../pic32mx/lib/fpu64\libc.a(_fputc_simple.o)
 .debug_abbrev  0x00011012       0x28 d:/program files (x86)/microchip/xc32/v2.30/bin/bin/../../lib/gcc/pic32mx/4.8.3/../../../../pic32mx/lib/fpu64\libc.a(ungetc.o)
 .debug_abbrev  0x0001103a       0x28 d:/program files (x86)/microchip/xc32/v2.30/bin/bin/../../lib/gcc/pic32mx/4.8.3/../../../../pic32mx/lib/fpu64\libc.a(filbuf.o)
 .debug_abbrev  0x00011062       0x28 d:/program files (x86)/microchip/xc32/v2.30/bin/bin/../../lib/gcc/pic32mx/4.8.3/../../../../pic32mx/lib/fpu64\libc.a(_flsbuf_simple.o)
 .debug_abbrev  0x0001108a       0x28 d:/program files (x86)/microchip/xc32/v2.30/bin/bin/../../lib/gcc/pic32mx/4.8.3/../../../../pic32mx/lib/fpu64\libc.a(fflush.o)
 .debug_abbrev  0x000110b2       0x28 d:/program files (x86)/microchip/xc32/v2.30/bin/bin/../../lib/gcc/pic32mx/4.8.3/../../../../pic32mx/lib/fpu64\libmfd.a(s_frexp.o)
 .debug_abbrev  0x000110da       0xbf d:/program files (x86)/microchip/xc32/v2.30/bin/bin/../../lib/gcc/pic32mx/4.8.3/fpu64\libgcc.a(_cmpdi2.o)
 .debug_abbrev  0x00011199      0x147 d:/program files (x86)/microchip/xc32/v2.30/bin/bin/../../lib/gcc/pic32mx/4.8.3/fpu64\libgcc.a(_umoddi3.o)
 .debug_abbrev  0x000112e0       0x54 d:/program files (x86)/microchip/xc32/v2.30/bin/bin/../../lib/gcc/pic32mx/4.8.3/../../../../pic32mx/lib/fpu64\libpic32.a(sbrk.o)
 .debug_abbrev  0x00011334       0x28 d:/program files (x86)/microchip/xc32/v2.30/bin/bin/../../lib/gcc/pic32mx/4.8.3/../../../../pic32mx/lib/fpu64\libpic32.a(read.o)
 .debug_abbrev  0x0001135c       0x28 d:/program files (x86)/microchip/xc32/v2.30/bin/bin/../../lib/gcc/pic32mx/4.8.3/../../../../pic32mx/lib/fpu64\libpic32.a(write.o)
 .debug_abbrev  0x00011384       0x28 d:/program files (x86)/microchip/xc32/v2.30/bin/bin/../../lib/gcc/pic32mx/4.8.3/../../../../pic32mx/lib/fpu64\libpic32.a(_mon_putc.o)

.debug_line     0x00000000    0x20c3a
 *.elf(.debug_line)
 *(.debug_line)
 .debug_line    0x00000000      0x98f build/default/production/_ext/110609098/drv_spi.o
 .debug_line    0x0000098f      0x49f build/default/production/_ext/1908449382/drv_spi_sys_queue_fifo.o
 .debug_line    0x00000e2e      0xc90 build/default/production/_ext/494209719/drv_tmr.o
 .debug_line    0x00001abe      0xd94 build/default/production/_ext/115751837/drv_usart.o
 .debug_line    0x00002852      0x81b build/default/production/_ext/115751837/drv_usart_buffer_queue.o
 .debug_line    0x0000306d      0x701 build/default/production/_ext/115751837/drv_usart_read_write.o
 .debug_line    0x0000376e      0x75e build/default/production/_ext/412220316/drv_wifi_com.o
 .debug_line    0x00003ecc      0x749 build/default/production/_ext/412220316/drv_wifi_commands.o
 .debug_line    0x00004615      0x2ea build/default/production/_ext/412220316/drv_wifi_config_data.o
 .debug_line    0x000048ff      0x34f build/default/production/_ext/412220316/drv_wifi_connection_algorithm.o
 .debug_line    0x00004c4e      0x371 build/default/production/_ext/412220316/drv_wifi_connection_manager.o
 .debug_line    0x00004fbf      0x401 build/default/production/_ext/412220316/drv_wifi_connection_profile.o
 .debug_line    0x000053c0      0x274 build/default/production/_ext/412220316/drv_wifi_context_loader.o
 .debug_line    0x00005634      0x672 build/default/production/_ext/412220316/drv_wifi_debug_output.o
 .debug_line    0x00005ca6      0x310 build/default/production/_ext/412220316/drv_wifi_eint.o
 .debug_line    0x00005fb6      0x62e build/default/production/_ext/412220316/drv_wifi_events.o
 .debug_line    0x000065e4      0x6a8 build/default/production/_ext/412220316/drv_wifi_event_handler.o
 .debug_line    0x00006c8c      0x82e build/default/production/_ext/412220316/drv_wifi_init.o
 .debug_line    0x000074ba      0x4bb build/default/production/_ext/412220316/drv_wifi_iwpriv.o
 .debug_line    0x00007975      0x8fc build/default/production/_ext/412220316/drv_wifi_mac.o
 .debug_line    0x00008271      0x717 build/default/production/_ext/412220316/drv_wifi_main.o
 .debug_line    0x00008988      0x397 build/default/production/_ext/412220316/drv_wifi_mgmt_msg.o
 .debug_line    0x00008d1f      0x35c build/default/production/_ext/412220316/drv_wifi_param_msg.o
 .debug_line    0x0000907b      0x3b1 build/default/production/_ext/412220316/drv_wifi_pbkdf2.o
 .debug_line    0x0000942c      0x49d build/default/production/_ext/412220316/drv_wifi_power_save.o
 .debug_line    0x000098c9      0x3a2 build/default/production/_ext/412220316/drv_wifi_raw.o
 .debug_line    0x00009c6b      0x240 build/default/production/_ext/412220316/drv_wifi_scan.o
 .debug_line    0x00009eab      0x45d build/default/production/_ext/412220316/drv_wifi_scan_helper.o
 .debug_line    0x0000a308      0x372 build/default/production/_ext/412220316/drv_wifi_softap_client_cache.o
 .debug_line    0x0000a67a      0x639 build/default/production/_ext/412220316/drv_wifi_spi.o
 .debug_line    0x0000acb3      0x18e build/default/production/_ext/412220316/drv_wifi_tx_power.o
 .debug_line    0x0000ae41      0x3a6 build/default/production/_ext/412220316/drv_wifi_rtos_wrapper.o
 .debug_line    0x0000b1e7      0x2c6 build/default/production/_ext/2004362140/osal_freertos.o
 .debug_line    0x0000b4ad      0x7f6 build/default/production/_ext/1052224704/sys_command.o
 .debug_line    0x0000bca3      0x324 build/default/production/_ext/595512524/sys_console.o
 .debug_line    0x0000bfc7      0x486 build/default/production/_ext/595512524/sys_console_uart.o
 .debug_line    0x0000c44d      0xd89 build/default/production/_ext/1855423469/sys_dma.o
 .debug_line    0x0000d1d6      0x35c build/default/production/_ext/2044150628/sys_int_pic32.o
 .debug_line    0x0000d532      0x23f build/default/production/_ext/1304044280/sys_random.o
 .debug_line    0x0000d771      0x39b build/default/production/_ext/398504132/sys_reset.o
 .debug_line    0x0000db0c      0x673 build/default/production/_ext/1108686962/sys_tmr.o
 .debug_line    0x0000e17f      0x8dd build/default/production/_ext/126554269/ipv4.o
 .debug_line    0x0000ea5c     0x141e build/default/production/_ext/126554269/tcp.o
 .debug_line    0x0000fe7a      0xe44 build/default/production/_ext/126554269/udp.o
 .debug_line    0x00010cbe      0x22f build/default/production/_ext/126554269/tcpip_heap_alloc.o
 .debug_line    0x00010eed      0x3cc build/default/production/_ext/126554269/tcpip_heap_internal.o
 .debug_line    0x000112b9      0xa7f build/default/production/_ext/126554269/arp.o
 .debug_line    0x00011d38      0xcf1 build/default/production/_ext/126554269/dhcp.o
 .debug_line    0x00012a29      0xa9f build/default/production/_ext/126554269/dns.o
 .debug_line    0x000134c8      0x3b5 build/default/production/_ext/126554269/icmp.o
 .debug_line    0x0001387d      0x400 build/default/production/_ext/126554269/nbns.o
 .debug_line    0x00013c7d      0x20d build/default/production/_ext/126554269/zero_conf_helper.o
 .debug_line    0x00013e8a      0x610 build/default/production/_ext/126554269/zero_conf_link_local.o
 .debug_line    0x0001449a      0x420 build/default/production/_ext/126554269/tcpip_announce.o
 .debug_line    0x000148ba      0xa18 build/default/production/_ext/126554269/tcpip_commands.o
 .debug_line    0x000152d2      0x1a5 build/default/production/_ext/1551925347/helpers.o
 .debug_line    0x00015477      0x135 build/default/production/_ext/126554269/hash_fnv.o
 .debug_line    0x000155ac      0x1e4 build/default/production/_ext/126554269/oahash.o
 .debug_line    0x00015790      0xa99 build/default/production/_ext/126554269/tcpip_helpers.o
 .debug_line    0x00016229      0x11c build/default/production/_ext/126554269/tcpip_helper_c32.o
 .debug_line    0x00016345     0x13d6 build/default/production/_ext/126554269/tcpip_manager.o
 .debug_line    0x0001771b      0x2dc build/default/production/_ext/126554269/tcpip_notify.o
 .debug_line    0x000179f7      0x3f3 build/default/production/_ext/126554269/tcpip_packet.o
 .debug_line    0x00017dea       0x1d build/default/production/_ext/1808430591/croutine.o
 .debug_line    0x00017e07      0x1e8 build/default/production/_ext/1808430591/list.o
 .debug_line    0x00017fef      0x4a2 build/default/production/_ext/1808430591/queue.o
 .debug_line    0x00018491      0x7be build/default/production/_ext/1808430591/tasks.o
 .debug_line    0x00018c4f       0x1d build/default/production/_ext/1808430591/timers.o
 .debug_line    0x00018c6c      0x331 build/default/production/_ext/1808430591/event_groups.o
 .debug_line    0x00018f9d      0x247 build/default/production/_ext/508667646/heap_2.o
 .debug_line    0x000191e4      0x246 build/default/production/_ext/417601773/port.o
 .debug_line    0x0001942a      0x195 build/default/production/_ext/417601773/port_asm.o
 .debug_line    0x000195bf      0x567 build/default/production/_ext/1360937237/wnetcom.o
 .debug_line    0x00019b26      0x7d2 build/default/production/_ext/977502197/drv_spi_tasks.o
 .debug_line    0x0001a2f8      0x8d3 build/default/production/_ext/977502197/drv_spi_api.o
 .debug_line    0x0001abcb      0x5ac build/default/production/_ext/977502197/drv_spi_master_ebm_tasks.o
 .debug_line    0x0001b177      0x607 build/default/production/_ext/977502197/drv_spi_master_dma_tasks.o
 .debug_line    0x0001b77e      0x65e build/default/production/_ext/639803181/sys_clk.o
 .debug_line    0x0001bddc      0x8ee build/default/production/_ext/639803181/sys_clk_pic32mz.o
 .debug_line    0x0001c6ca      0x671 build/default/production/_ext/340578644/sys_devcon.o
 .debug_line    0x0001cd3b      0x5a8 build/default/production/_ext/340578644/sys_devcon_pic32mz.o
 .debug_line    0x0001d2e3      0x220 build/default/production/_ext/340578644/sys_devcon_cache_pic32mz.o
 .debug_line    0x0001d503      0x94e build/default/production/_ext/822048611/sys_ports_static.o
 .debug_line    0x0001de51      0xa9e build/default/production/_ext/1688732426/system_init.o
 .debug_line    0x0001e8ef      0x4fd build/default/production/_ext/1688732426/system_interrupt.o
 .debug_line    0x0001edec      0x1ef build/default/production/_ext/1688732426/system_exceptions.o
 .debug_line    0x0001efdb       0xc7 build/default/production/_ext/1360937237/main.o
 .debug_line    0x0001f0a2      0x405 build/default/production/_ext/1688732426/system_tasks.o
 .debug_line    0x0001f4a7      0x2e5 build/default/production/_ext/1688732426/system_interrupt_a.o
 .debug_line    0x0001f78c      0x152 build/default/production/_ext/1688732426/rtos_hooks.o
 .debug_line    0x0001f8de       0xf7 d:/program files (x86)/microchip/xc32/v2.30/bin/bin/../../lib/gcc/pic32mx/4.8.3/fpu64\libgcc.a(_udivdi3.o)
 .debug_line    0x0001f9d5       0xa6 d:/program files (x86)/microchip/xc32/v2.30/bin/bin/../../lib/gcc/pic32mx/4.8.3/../../../../pic32mx/lib/fpu64\libpic32.a(default-bootstrap-exception-handler.o)
 .debug_line    0x0001fa7b       0x93 d:/program files (x86)/microchip/xc32/v2.30/bin/bin/../../lib/gcc/pic32mx/4.8.3/../../../../pic32mx/lib/fpu64\libpic32.a(default-on-reset.o)
 .debug_line    0x0001fb0e       0x97 d:/program files (x86)/microchip/xc32/v2.30/bin/bin/../../lib/gcc/pic32mx/4.8.3/../../../../pic32mx/lib/fpu64\libpic32.a(default-on-bootstrap.o)
 .debug_line    0x0001fba5       0xa5 d:/program files (x86)/microchip/xc32/v2.30/bin/bin/../../lib/gcc/pic32mx/4.8.3/../../../../pic32mx/lib/fpu64\libpic32.a(defaultinterrupt.o)
 .debug_line    0x0001fc4a       0xa6 d:/program files (x86)/microchip/xc32/v2.30/bin/bin/../../lib/gcc/pic32mx/4.8.3/../../../../pic32mx/lib/fpu64\libpic32.a(default-cache-err-exception-handler.o)
 .debug_line    0x0001fcf0       0xae d:/program files (x86)/microchip/xc32/v2.30/bin/bin/../../lib/gcc/pic32mx/4.8.3/../../../../pic32mx/lib/fpu64\libpic32.a(default-simple-tlb-refill-exception-handler.o)
 .debug_line    0x0001fd9e       0x7c d:/program files (x86)/microchip/xc32/v2.30/bin/bin/../../lib/gcc/pic32mx/4.8.3/../../../../pic32mx/lib/fpu64\libc.a(atoi.o)
 .debug_line    0x0001fe1a       0x7e d:/program files (x86)/microchip/xc32/v2.30/bin/bin/../../lib/gcc/pic32mx/4.8.3/../../../../pic32mx/lib/fpu64\libc.a(calloc.o)
 .debug_line    0x0001fe98        0x0 d:/program files (x86)/microchip/xc32/v2.30/bin/bin/../../lib/gcc/pic32mx/4.8.3/../../../../pic32mx/lib/fpu64\libc.a(ctype.o)
 .debug_line    0x0001fe98       0x7e d:/program files (x86)/microchip/xc32/v2.30/bin/bin/../../lib/gcc/pic32mx/4.8.3/../../../../pic32mx/lib/fpu64\libc.a(ctypef.o)
 .debug_line    0x0001ff16       0x7e d:/program files (x86)/microchip/xc32/v2.30/bin/bin/../../lib/gcc/pic32mx/4.8.3/../../../../pic32mx/lib/fpu64\libc.a(malloc.o)
 .debug_line    0x0001ff94       0x7c d:/program files (x86)/microchip/xc32/v2.30/bin/bin/../../lib/gcc/pic32mx/4.8.3/../../../../pic32mx/lib/fpu64\libc.a(rand.o)
 .debug_line    0x00020010       0x7e d:/program files (x86)/microchip/xc32/v2.30/bin/bin/../../lib/gcc/pic32mx/4.8.3/../../../../pic32mx/lib/fpu64\libc.a(strchr.o)
 .debug_line    0x0002008e       0x7f d:/program files (x86)/microchip/xc32/v2.30/bin/bin/../../lib/gcc/pic32mx/4.8.3/../../../../pic32mx/lib/fpu64\libc.a(strncmp.o)
 .debug_line    0x0002010d       0x7f d:/program files (x86)/microchip/xc32/v2.30/bin/bin/../../lib/gcc/pic32mx/4.8.3/../../../../pic32mx/lib/fpu64\libc.a(strncpy.o)
 .debug_line    0x0002018c       0x7e d:/program files (x86)/microchip/xc32/v2.30/bin/bin/../../lib/gcc/pic32mx/4.8.3/../../../../pic32mx/lib/fpu64\libc.a(strtol.o)
 .debug_line    0x0002020a       0x7f d:/program files (x86)/microchip/xc32/v2.30/bin/bin/../../lib/gcc/pic32mx/4.8.3/../../../../pic32mx/lib/fpu64\libc.a(sprintf_cdnopuxX.eo)
 .debug_line    0x00020289       0x7e d:/program files (x86)/microchip/xc32/v2.30/bin/bin/../../lib/gcc/pic32mx/4.8.3/../../../../pic32mx/lib/fpu64\libc.a(sscanf_cdnopuxX.eo)
 .debug_line    0x00020307       0x81 d:/program files (x86)/microchip/xc32/v2.30/bin/bin/../../lib/gcc/pic32mx/4.8.3/../../../../pic32mx/lib/fpu64\libc.a(vsnprintf.o)
 .debug_line    0x00020388        0x0 d:/program files (x86)/microchip/xc32/v2.30/bin/bin/../../lib/gcc/pic32mx/4.8.3/../../../../pic32mx/lib/fpu64\libc.a(errno.o)
 .debug_line    0x00020388       0x7e d:/program files (x86)/microchip/xc32/v2.30/bin/bin/../../lib/gcc/pic32mx/4.8.3/../../../../pic32mx/lib/fpu64\libc.a(doprnt_cdnopuxX.eo)
 .debug_line    0x00020406       0x7e d:/program files (x86)/microchip/xc32/v2.30/bin/bin/../../lib/gcc/pic32mx/4.8.3/../../../../pic32mx/lib/fpu64\libc.a(doprnt.o)
 .debug_line    0x00020484       0x7e d:/program files (x86)/microchip/xc32/v2.30/bin/bin/../../lib/gcc/pic32mx/4.8.3/../../../../pic32mx/lib/fpu64\libc.a(doscan_cdnopuxX.eo)
 .debug_line    0x00020502       0x7d d:/program files (x86)/microchip/xc32/v2.30/bin/bin/../../lib/gcc/pic32mx/4.8.3/../../../../pic32mx/lib/fpu64\libc.a(fgetc.o)
 .debug_line    0x0002057f       0x7d d:/program files (x86)/microchip/xc32/v2.30/bin/bin/../../lib/gcc/pic32mx/4.8.3/../../../../pic32mx/lib/fpu64\libc.a(_fputc_simple.o)
 .debug_line    0x000205fc        0x0 d:/program files (x86)/microchip/xc32/v2.30/bin/bin/../../lib/gcc/pic32mx/4.8.3/../../../../pic32mx/lib/fpu64\libc.a(ldpowers.o)
 .debug_line    0x000205fc       0x7e d:/program files (x86)/microchip/xc32/v2.30/bin/bin/../../lib/gcc/pic32mx/4.8.3/../../../../pic32mx/lib/fpu64\libc.a(ungetc.o)
 .debug_line    0x0002067a        0x0 d:/program files (x86)/microchip/xc32/v2.30/bin/bin/../../lib/gcc/pic32mx/4.8.3/../../../../pic32mx/lib/fpu64\libc.a(_iob.o)
 .debug_line    0x0002067a       0x7e d:/program files (x86)/microchip/xc32/v2.30/bin/bin/../../lib/gcc/pic32mx/4.8.3/../../../../pic32mx/lib/fpu64\libc.a(filbuf.o)
 .debug_line    0x000206f8       0x7e d:/program files (x86)/microchip/xc32/v2.30/bin/bin/../../lib/gcc/pic32mx/4.8.3/../../../../pic32mx/lib/fpu64\libc.a(_flsbuf_simple.o)
 .debug_line    0x00020776       0x7e d:/program files (x86)/microchip/xc32/v2.30/bin/bin/../../lib/gcc/pic32mx/4.8.3/../../../../pic32mx/lib/fpu64\libc.a(fflush.o)
 .debug_line    0x000207f4       0x7a d:/program files (x86)/microchip/xc32/v2.30/bin/bin/../../lib/gcc/pic32mx/4.8.3/../../../../pic32mx/lib/fpu64\libmfd.a(s_frexp.o)
 .debug_line    0x0002086e       0xa1 d:/program files (x86)/microchip/xc32/v2.30/bin/bin/../../lib/gcc/pic32mx/4.8.3/fpu64\libgcc.a(_cmpdi2.o)
 .debug_line    0x0002090f      0x109 d:/program files (x86)/microchip/xc32/v2.30/bin/bin/../../lib/gcc/pic32mx/4.8.3/fpu64\libgcc.a(_umoddi3.o)
 .debug_line    0x00020a18       0x87 d:/program files (x86)/microchip/xc32/v2.30/bin/bin/../../lib/gcc/pic32mx/4.8.3/../../../../pic32mx/lib/fpu64\libpic32.a(sbrk.o)
 .debug_line    0x00020a9f       0x87 d:/program files (x86)/microchip/xc32/v2.30/bin/bin/../../lib/gcc/pic32mx/4.8.3/../../../../pic32mx/lib/fpu64\libpic32.a(read.o)
 .debug_line    0x00020b26       0x88 d:/program files (x86)/microchip/xc32/v2.30/bin/bin/../../lib/gcc/pic32mx/4.8.3/../../../../pic32mx/lib/fpu64\libpic32.a(write.o)
 .debug_line    0x00020bae        0x0 d:/program files (x86)/microchip/xc32/v2.30/bin/bin/../../lib/gcc/pic32mx/4.8.3/../../../../pic32mx/lib/fpu64\libpic32.a(xc32_uart.o)
 .debug_line    0x00020bae       0x8c d:/program files (x86)/microchip/xc32/v2.30/bin/bin/../../lib/gcc/pic32mx/4.8.3/../../../../pic32mx/lib/fpu64\libpic32.a(_mon_putc.o)

.debug_frame    0x00000000     0x9340
 *.elf(.debug_frame)
 *(.debug_frame)
 .debug_frame   0x00000000      0x1dc build/default/production/_ext/110609098/drv_spi.o
 .debug_frame   0x000001dc      0x268 build/default/production/_ext/1908449382/drv_spi_sys_queue_fifo.o
 .debug_frame   0x00000444      0x2f0 build/default/production/_ext/494209719/drv_tmr.o
 .debug_frame   0x00000734      0x2ec build/default/production/_ext/115751837/drv_usart.o
 .debug_frame   0x00000a20       0xe8 build/default/production/_ext/115751837/drv_usart_buffer_queue.o
 .debug_frame   0x00000b08       0x60 build/default/production/_ext/115751837/drv_usart_read_write.o
 .debug_frame   0x00000b68      0x214 build/default/production/_ext/412220316/drv_wifi_com.o
 .debug_frame   0x00000d7c      0x108 build/default/production/_ext/412220316/drv_wifi_commands.o
 .debug_frame   0x00000e84       0x64 build/default/production/_ext/412220316/drv_wifi_config_data.o
 .debug_frame   0x00000ee8      0x1dc build/default/production/_ext/412220316/drv_wifi_connection_algorithm.o
 .debug_frame   0x000010c4       0xe0 build/default/production/_ext/412220316/drv_wifi_connection_manager.o
 .debug_frame   0x000011a4      0x2a8 build/default/production/_ext/412220316/drv_wifi_connection_profile.o
 .debug_frame   0x0000144c       0x30 build/default/production/_ext/412220316/drv_wifi_context_loader.o
 .debug_frame   0x0000147c       0xc0 build/default/production/_ext/412220316/drv_wifi_debug_output.o
 .debug_frame   0x0000153c       0x48 build/default/production/_ext/412220316/drv_wifi_eint.o
 .debug_frame   0x00001584       0xe8 build/default/production/_ext/412220316/drv_wifi_events.o
 .debug_frame   0x0000166c      0x118 build/default/production/_ext/412220316/drv_wifi_event_handler.o
 .debug_frame   0x00001784       0x9c build/default/production/_ext/412220316/drv_wifi_init.o
 .debug_frame   0x00001820       0x70 build/default/production/_ext/412220316/drv_wifi_iwpriv.o
 .debug_frame   0x00001890      0x2a0 build/default/production/_ext/412220316/drv_wifi_mac.o
 .debug_frame   0x00001b30      0x298 build/default/production/_ext/412220316/drv_wifi_main.o
 .debug_frame   0x00001dc8       0x94 build/default/production/_ext/412220316/drv_wifi_mgmt_msg.o
 .debug_frame   0x00001e5c      0x1f8 build/default/production/_ext/412220316/drv_wifi_param_msg.o
 .debug_frame   0x00002054      0x174 build/default/production/_ext/412220316/drv_wifi_pbkdf2.o
 .debug_frame   0x000021c8      0x158 build/default/production/_ext/412220316/drv_wifi_power_save.o
 .debug_frame   0x00002320      0x1e0 build/default/production/_ext/412220316/drv_wifi_raw.o
 .debug_frame   0x00002500       0x48 build/default/production/_ext/412220316/drv_wifi_scan.o
 .debug_frame   0x00002548       0xc0 build/default/production/_ext/412220316/drv_wifi_scan_helper.o
 .debug_frame   0x00002608       0xa4 build/default/production/_ext/412220316/drv_wifi_softap_client_cache.o
 .debug_frame   0x000026ac      0x1bc build/default/production/_ext/412220316/drv_wifi_spi.o
 .debug_frame   0x00002868       0x64 build/default/production/_ext/412220316/drv_wifi_tx_power.o
 .debug_frame   0x000028cc      0x1d4 build/default/production/_ext/412220316/drv_wifi_rtos_wrapper.o
 .debug_frame   0x00002aa0      0x180 build/default/production/_ext/2004362140/osal_freertos.o
 .debug_frame   0x00002c20      0x320 build/default/production/_ext/1052224704/sys_command.o
 .debug_frame   0x00002f40      0x110 build/default/production/_ext/595512524/sys_console.o
 .debug_frame   0x00003050       0xdc build/default/production/_ext/595512524/sys_console_uart.o
 .debug_frame   0x0000312c      0x1f4 build/default/production/_ext/1855423469/sys_dma.o
 .debug_frame   0x00003320       0xa0 build/default/production/_ext/2044150628/sys_int_pic32.o
 .debug_frame   0x000033c0       0x74 build/default/production/_ext/1304044280/sys_random.o
 .debug_frame   0x00003434       0x50 build/default/production/_ext/398504132/sys_reset.o
 .debug_frame   0x00003484      0x294 build/default/production/_ext/1108686962/sys_tmr.o
 .debug_frame   0x00003718      0x28c build/default/production/_ext/126554269/ipv4.o
 .debug_frame   0x000039a4      0x7e8 build/default/production/_ext/126554269/tcp.o
 .debug_frame   0x0000418c      0x6bc build/default/production/_ext/126554269/udp.o
 .debug_frame   0x00004848       0xa8 build/default/production/_ext/126554269/tcpip_heap_alloc.o
 .debug_frame   0x000048f0      0x110 build/default/production/_ext/126554269/tcpip_heap_internal.o
 .debug_frame   0x00004a00      0x460 build/default/production/_ext/126554269/arp.o
 .debug_frame   0x00004e60      0x564 build/default/production/_ext/126554269/dhcp.o
 .debug_frame   0x000053c4      0x4c8 build/default/production/_ext/126554269/dns.o
 .debug_frame   0x0000588c       0x90 build/default/production/_ext/126554269/icmp.o
 .debug_frame   0x0000591c       0xc4 build/default/production/_ext/126554269/nbns.o
 .debug_frame   0x000059e0       0x30 build/default/production/_ext/126554269/zero_conf_helper.o
 .debug_frame   0x00005a10      0x174 build/default/production/_ext/126554269/zero_conf_link_local.o
 .debug_frame   0x00005b84       0xe4 build/default/production/_ext/126554269/tcpip_announce.o
 .debug_frame   0x00005c68      0x30c build/default/production/_ext/126554269/tcpip_commands.o
 .debug_frame   0x00005f74       0x78 build/default/production/_ext/1551925347/helpers.o
 .debug_frame   0x00005fec       0x30 build/default/production/_ext/126554269/hash_fnv.o
 .debug_frame   0x0000601c       0xc0 build/default/production/_ext/126554269/oahash.o
 .debug_frame   0x000060dc      0x6d4 build/default/production/_ext/126554269/tcpip_helpers.o
 .debug_frame   0x000067b0      0xa4c build/default/production/_ext/126554269/tcpip_manager.o
 .debug_frame   0x000071fc       0xa8 build/default/production/_ext/126554269/tcpip_notify.o
 .debug_frame   0x000072a4      0x160 build/default/production/_ext/126554269/tcpip_packet.o
 .debug_frame   0x00007404       0x60 build/default/production/_ext/1808430591/list.o
 .debug_frame   0x00007464      0x25c build/default/production/_ext/1808430591/queue.o
 .debug_frame   0x000076c0      0x4dc build/default/production/_ext/1808430591/tasks.o
 .debug_frame   0x00007b9c      0x130 build/default/production/_ext/1808430591/event_groups.o
 .debug_frame   0x00007ccc       0x70 build/default/production/_ext/508667646/heap_2.o
 .debug_frame   0x00007d3c       0xd0 build/default/production/_ext/417601773/port.o
 .debug_frame   0x00007e0c       0x48 build/default/production/_ext/1360937237/wnetcom.o
 .debug_frame   0x00007e54       0x60 build/default/production/_ext/977502197/drv_spi_tasks.o
 .debug_frame   0x00007eb4       0x44 build/default/production/_ext/977502197/drv_spi_api.o
 .debug_frame   0x00007ef8       0x30 build/default/production/_ext/977502197/drv_spi_master_ebm_tasks.o
 .debug_frame   0x00007f28       0xd8 build/default/production/_ext/977502197/drv_spi_master_dma_tasks.o
 .debug_frame   0x00008000      0x15c build/default/production/_ext/639803181/sys_clk.o
 .debug_frame   0x0000815c      0x16c build/default/production/_ext/639803181/sys_clk_pic32mz.o
 .debug_frame   0x000082c8       0xf4 build/default/production/_ext/340578644/sys_devcon.o
 .debug_frame   0x000083bc      0x278 build/default/production/_ext/340578644/sys_devcon_pic32mz.o
 .debug_frame   0x00008634      0x1fc build/default/production/_ext/822048611/sys_ports_static.o
 .debug_frame   0x00008830       0x54 build/default/production/_ext/1688732426/system_init.o
 .debug_frame   0x00008884      0x128 build/default/production/_ext/1688732426/system_interrupt.o
 .debug_frame   0x000089ac       0x28 build/default/production/_ext/1688732426/system_exceptions.o
 .debug_frame   0x000089d4       0x28 build/default/production/_ext/1360937237/main.o
 .debug_frame   0x000089fc       0x60 build/default/production/_ext/1688732426/system_tasks.o
 .debug_frame   0x00008a5c       0x40 build/default/production/_ext/1688732426/rtos_hooks.o
 .debug_frame   0x00008a9c       0x20 d:/program files (x86)/microchip/xc32/v2.30/bin/bin/../../lib/gcc/pic32mx/4.8.3/fpu64\libgcc.a(_udivdi3.o)
 .debug_frame   0x00008abc       0x2c d:/program files (x86)/microchip/xc32/v2.30/bin/bin/../../lib/gcc/pic32mx/4.8.3/../../../../pic32mx/lib/fpu64\libpic32.a(default-bootstrap-exception-handler.o)
 .debug_frame   0x00008ae8       0x20 d:/program files (x86)/microchip/xc32/v2.30/bin/bin/../../lib/gcc/pic32mx/4.8.3/../../../../pic32mx/lib/fpu64\libpic32.a(default-on-reset.o)
 .debug_frame   0x00008b08       0x20 d:/program files (x86)/microchip/xc32/v2.30/bin/bin/../../lib/gcc/pic32mx/4.8.3/../../../../pic32mx/lib/fpu64\libpic32.a(default-on-bootstrap.o)
 .debug_frame   0x00008b28       0x20 d:/program files (x86)/microchip/xc32/v2.30/bin/bin/../../lib/gcc/pic32mx/4.8.3/../../../../pic32mx/lib/fpu64\libpic32.a(defaultinterrupt.o)
 .debug_frame   0x00008b48       0x2c d:/program files (x86)/microchip/xc32/v2.30/bin/bin/../../lib/gcc/pic32mx/4.8.3/../../../../pic32mx/lib/fpu64\libpic32.a(default-cache-err-exception-handler.o)
 .debug_frame   0x00008b74       0x2c d:/program files (x86)/microchip/xc32/v2.30/bin/bin/../../lib/gcc/pic32mx/4.8.3/../../../../pic32mx/lib/fpu64\libpic32.a(default-simple-tlb-refill-exception-handler.o)
 .debug_frame   0x00008ba0       0x20 d:/program files (x86)/microchip/xc32/v2.30/bin/bin/../../lib/gcc/pic32mx/4.8.3/../../../../pic32mx/lib/fpu64\libc.a(atoi.o)
 .debug_frame   0x00008bc0       0x2c d:/program files (x86)/microchip/xc32/v2.30/bin/bin/../../lib/gcc/pic32mx/4.8.3/../../../../pic32mx/lib/fpu64\libc.a(calloc.o)
 .debug_frame   0x00008bec      0x120 d:/program files (x86)/microchip/xc32/v2.30/bin/bin/../../lib/gcc/pic32mx/4.8.3/../../../../pic32mx/lib/fpu64\libc.a(ctypef.o)
 .debug_frame   0x00008d0c       0x7c d:/program files (x86)/microchip/xc32/v2.30/bin/bin/../../lib/gcc/pic32mx/4.8.3/../../../../pic32mx/lib/fpu64\libc.a(malloc.o)
 .debug_frame   0x00008d88       0x30 d:/program files (x86)/microchip/xc32/v2.30/bin/bin/../../lib/gcc/pic32mx/4.8.3/../../../../pic32mx/lib/fpu64\libc.a(rand.o)
 .debug_frame   0x00008db8       0x20 d:/program files (x86)/microchip/xc32/v2.30/bin/bin/../../lib/gcc/pic32mx/4.8.3/../../../../pic32mx/lib/fpu64\libc.a(strchr.o)
 .debug_frame   0x00008dd8       0x20 d:/program files (x86)/microchip/xc32/v2.30/bin/bin/../../lib/gcc/pic32mx/4.8.3/../../../../pic32mx/lib/fpu64\libc.a(strncmp.o)
 .debug_frame   0x00008df8       0x20 d:/program files (x86)/microchip/xc32/v2.30/bin/bin/../../lib/gcc/pic32mx/4.8.3/../../../../pic32mx/lib/fpu64\libc.a(strncpy.o)
 .debug_frame   0x00008e18       0x78 d:/program files (x86)/microchip/xc32/v2.30/bin/bin/../../lib/gcc/pic32mx/4.8.3/../../../../pic32mx/lib/fpu64\libc.a(strtol.o)
 .debug_frame   0x00008e90       0x2c d:/program files (x86)/microchip/xc32/v2.30/bin/bin/../../lib/gcc/pic32mx/4.8.3/../../../../pic32mx/lib/fpu64\libc.a(sprintf_cdnopuxX.eo)
 .debug_frame   0x00008ebc       0x2c d:/program files (x86)/microchip/xc32/v2.30/bin/bin/../../lib/gcc/pic32mx/4.8.3/../../../../pic32mx/lib/fpu64\libc.a(sscanf_cdnopuxX.eo)
 .debug_frame   0x00008ee8       0x30 d:/program files (x86)/microchip/xc32/v2.30/bin/bin/../../lib/gcc/pic32mx/4.8.3/../../../../pic32mx/lib/fpu64\libc.a(vsnprintf.o)
 .debug_frame   0x00008f18       0x40 d:/program files (x86)/microchip/xc32/v2.30/bin/bin/../../lib/gcc/pic32mx/4.8.3/../../../../pic32mx/lib/fpu64\libc.a(doprnt_cdnopuxX.eo)
 .debug_frame   0x00008f58       0x70 d:/program files (x86)/microchip/xc32/v2.30/bin/bin/../../lib/gcc/pic32mx/4.8.3/../../../../pic32mx/lib/fpu64\libc.a(doprnt.o)
 .debug_frame   0x00008fc8       0x98 d:/program files (x86)/microchip/xc32/v2.30/bin/bin/../../lib/gcc/pic32mx/4.8.3/../../../../pic32mx/lib/fpu64\libc.a(doscan_cdnopuxX.eo)
 .debug_frame   0x00009060       0x38 d:/program files (x86)/microchip/xc32/v2.30/bin/bin/../../lib/gcc/pic32mx/4.8.3/../../../../pic32mx/lib/fpu64\libc.a(fgetc.o)
 .debug_frame   0x00009098       0x30 d:/program files (x86)/microchip/xc32/v2.30/bin/bin/../../lib/gcc/pic32mx/4.8.3/../../../../pic32mx/lib/fpu64\libc.a(_fputc_simple.o)
 .debug_frame   0x000090c8       0x20 d:/program files (x86)/microchip/xc32/v2.30/bin/bin/../../lib/gcc/pic32mx/4.8.3/../../../../pic32mx/lib/fpu64\libc.a(ungetc.o)
 .debug_frame   0x000090e8       0x44 d:/program files (x86)/microchip/xc32/v2.30/bin/bin/../../lib/gcc/pic32mx/4.8.3/../../../../pic32mx/lib/fpu64\libc.a(filbuf.o)
 .debug_frame   0x0000912c       0x38 d:/program files (x86)/microchip/xc32/v2.30/bin/bin/../../lib/gcc/pic32mx/4.8.3/../../../../pic32mx/lib/fpu64\libc.a(_flsbuf_simple.o)
 .debug_frame   0x00009164       0x34 d:/program files (x86)/microchip/xc32/v2.30/bin/bin/../../lib/gcc/pic32mx/4.8.3/../../../../pic32mx/lib/fpu64\libc.a(fflush.o)
 .debug_frame   0x00009198       0x20 d:/program files (x86)/microchip/xc32/v2.30/bin/bin/../../lib/gcc/pic32mx/4.8.3/../../../../pic32mx/lib/fpu64\libmfd.a(s_frexp.o)
 .debug_frame   0x000091b8       0x20 d:/program files (x86)/microchip/xc32/v2.30/bin/bin/../../lib/gcc/pic32mx/4.8.3/fpu64\libgcc.a(_cmpdi2.o)
 .debug_frame   0x000091d8       0x20 d:/program files (x86)/microchip/xc32/v2.30/bin/bin/../../lib/gcc/pic32mx/4.8.3/fpu64\libgcc.a(_umoddi3.o)
 .debug_frame   0x000091f8       0xa4 d:/program files (x86)/microchip/xc32/v2.30/bin/bin/../../lib/gcc/pic32mx/4.8.3/../../../../pic32mx/lib/fpu64\libpic32.a(sbrk.o)
 .debug_frame   0x0000929c       0x38 d:/program files (x86)/microchip/xc32/v2.30/bin/bin/../../lib/gcc/pic32mx/4.8.3/../../../../pic32mx/lib/fpu64\libpic32.a(read.o)
 .debug_frame   0x000092d4       0x38 d:/program files (x86)/microchip/xc32/v2.30/bin/bin/../../lib/gcc/pic32mx/4.8.3/../../../../pic32mx/lib/fpu64\libpic32.a(write.o)
 .debug_frame   0x0000930c       0x34 d:/program files (x86)/microchip/xc32/v2.30/bin/bin/../../lib/gcc/pic32mx/4.8.3/../../../../pic32mx/lib/fpu64\libpic32.a(_mon_putc.o)

.debug_str      0x00000000     0x2452
 *.elf(.debug_str)
 *(.debug_str)
 .debug_str     0x00000000      0x188 build/default/production/_ext/110609098/drv_spi.o
 .debug_str     0x00000188      0x11f build/default/production/_ext/1908449382/drv_spi_sys_queue_fifo.o
 .debug_str     0x000002a7       0xc6 build/default/production/_ext/494209719/drv_tmr.o
 .debug_str     0x0000036d      0x19b build/default/production/_ext/115751837/drv_usart.o
 .debug_str     0x00000508       0x74 build/default/production/_ext/115751837/drv_usart_buffer_queue.o
 .debug_str     0x0000057c       0x4c build/default/production/_ext/115751837/drv_usart_read_write.o
 .debug_str     0x000005c8       0x1d build/default/production/_ext/412220316/drv_wifi_com.o
 .debug_str     0x000005e5       0x3e build/default/production/_ext/412220316/drv_wifi_commands.o
 .debug_str     0x00000623        0x0 build/default/production/_ext/412220316/drv_wifi_config_data.o
 .debug_str     0x00000623       0x4d build/default/production/_ext/412220316/drv_wifi_connection_algorithm.o
 .debug_str     0x00000670        0x7 build/default/production/_ext/412220316/drv_wifi_connection_manager.o
 .debug_str     0x00000677       0x95 build/default/production/_ext/412220316/drv_wifi_connection_profile.o
 .debug_str     0x0000070c        0xb build/default/production/_ext/412220316/drv_wifi_context_loader.o
 .debug_str     0x00000717       0x49 build/default/production/_ext/412220316/drv_wifi_debug_output.o
 .debug_str     0x00000760        0xd build/default/production/_ext/412220316/drv_wifi_eint.o
 .debug_str     0x0000076d       0x2b build/default/production/_ext/412220316/drv_wifi_events.o
 .debug_str     0x00000798       0x25 build/default/production/_ext/412220316/drv_wifi_event_handler.o
 .debug_str     0x000007bd       0x26 build/default/production/_ext/412220316/drv_wifi_init.o
 .debug_str     0x000007e3       0x37 build/default/production/_ext/412220316/drv_wifi_iwpriv.o
 .debug_str     0x0000081a       0x48 build/default/production/_ext/412220316/drv_wifi_mac.o
 .debug_str     0x00000862       0x3c build/default/production/_ext/412220316/drv_wifi_main.o
 .debug_str     0x0000089e       0x10 build/default/production/_ext/412220316/drv_wifi_mgmt_msg.o
 .debug_str     0x000008ae       0x3a build/default/production/_ext/412220316/drv_wifi_param_msg.o
 .debug_str     0x000008e8       0x58 build/default/production/_ext/412220316/drv_wifi_pbkdf2.o
 .debug_str     0x00000940        0xb build/default/production/_ext/412220316/drv_wifi_power_save.o
 .debug_str     0x0000094b       0x3d build/default/production/_ext/412220316/drv_wifi_raw.o
 .debug_str     0x00000988        0x0 build/default/production/_ext/412220316/drv_wifi_scan.o
 .debug_str     0x00000988        0x0 build/default/production/_ext/412220316/drv_wifi_scan_helper.o
 .debug_str     0x00000988       0x13 build/default/production/_ext/412220316/drv_wifi_softap_client_cache.o
 .debug_str     0x0000099b       0x12 build/default/production/_ext/412220316/drv_wifi_spi.o
 .debug_str     0x000009ad        0x8 build/default/production/_ext/412220316/drv_wifi_tx_power.o
 .debug_str     0x000009b5       0x20 build/default/production/_ext/412220316/drv_wifi_rtos_wrapper.o
 .debug_str     0x000009d5       0x40 build/default/production/_ext/2004362140/osal_freertos.o
 .debug_str     0x00000a15       0x46 build/default/production/_ext/1052224704/sys_command.o
 .debug_str     0x00000a5b        0xd build/default/production/_ext/595512524/sys_console.o
 .debug_str     0x00000a68       0x18 build/default/production/_ext/595512524/sys_console_uart.o
 .debug_str     0x00000a80      0x158 build/default/production/_ext/1855423469/sys_dma.o
 .debug_str     0x00000bd8       0x2d build/default/production/_ext/2044150628/sys_int_pic32.o
 .debug_str     0x00000c05       0x1d build/default/production/_ext/1304044280/sys_random.o
 .debug_str     0x00000c22       0x17 build/default/production/_ext/398504132/sys_reset.o
 .debug_str     0x00000c39       0x6b build/default/production/_ext/1108686962/sys_tmr.o
 .debug_str     0x00000ca4       0xe8 build/default/production/_ext/126554269/ipv4.o
 .debug_str     0x00000d8c      0x1b9 build/default/production/_ext/126554269/tcp.o
 .debug_str     0x00000f45      0x167 build/default/production/_ext/126554269/udp.o
 .debug_str     0x000010ac       0x70 build/default/production/_ext/126554269/tcpip_heap_alloc.o
 .debug_str     0x0000111c       0x38 build/default/production/_ext/126554269/tcpip_heap_internal.o
 .debug_str     0x00001154      0x104 build/default/production/_ext/126554269/arp.o
 .debug_str     0x00001258       0xea build/default/production/_ext/126554269/dhcp.o
 .debug_str     0x00001342      0x15a build/default/production/_ext/126554269/dns.o
 .debug_str     0x0000149c       0x34 build/default/production/_ext/126554269/icmp.o
 .debug_str     0x000014d0       0x24 build/default/production/_ext/126554269/nbns.o
 .debug_str     0x000014f4        0x0 build/default/production/_ext/126554269/zero_conf_helper.o
 .debug_str     0x000014f4       0x6d build/default/production/_ext/126554269/zero_conf_link_local.o
 .debug_str     0x00001561       0x24 build/default/production/_ext/126554269/tcpip_announce.o
 .debug_str     0x00001585      0x18e build/default/production/_ext/126554269/tcpip_commands.o
 .debug_str     0x00001713        0x0 build/default/production/_ext/1551925347/helpers.o
 .debug_str     0x00001713        0x0 build/default/production/_ext/126554269/hash_fnv.o
 .debug_str     0x00001713        0xa build/default/production/_ext/126554269/oahash.o
 .debug_str     0x0000171d       0x85 build/default/production/_ext/126554269/tcpip_helpers.o
 .debug_str     0x000017a2      0x2da build/default/production/_ext/126554269/tcpip_manager.o
 .debug_str     0x00001a7c       0x33 build/default/production/_ext/126554269/tcpip_notify.o
 .debug_str     0x00001aaf       0x2c build/default/production/_ext/126554269/tcpip_packet.o
 .debug_str     0x00001adb        0x0 build/default/production/_ext/1808430591/croutine.o
 .debug_str     0x00001adb       0x2b build/default/production/_ext/1808430591/list.o
 .debug_str     0x00001b06      0x131 build/default/production/_ext/1808430591/queue.o
 .debug_str     0x00001c37      0x186 build/default/production/_ext/1808430591/tasks.o
 .debug_str     0x00001dbd        0x0 build/default/production/_ext/1808430591/timers.o
 .debug_str     0x00001dbd       0xe6 build/default/production/_ext/1808430591/event_groups.o
 .debug_str     0x00001ea3       0x33 build/default/production/_ext/508667646/heap_2.o
 .debug_str     0x00001ed6       0x37 build/default/production/_ext/417601773/port.o
 .debug_str     0x00001f0d        0x0 build/default/production/_ext/1360937237/wnetcom.o
 .debug_str     0x00001f0d       0x6d build/default/production/_ext/977502197/drv_spi_tasks.o
 .debug_str     0x00001f7a      0x121 build/default/production/_ext/977502197/drv_spi_api.o
 .debug_str     0x0000209b       0x49 build/default/production/_ext/977502197/drv_spi_master_ebm_tasks.o
 .debug_str     0x000020e4       0x40 build/default/production/_ext/977502197/drv_spi_master_dma_tasks.o
 .debug_str     0x00002124       0xa7 build/default/production/_ext/639803181/sys_clk.o
 .debug_str     0x000021cb      0x144 build/default/production/_ext/639803181/sys_clk_pic32mz.o
 .debug_str     0x0000230f       0x16 build/default/production/_ext/340578644/sys_devcon.o
 .debug_str     0x00002325       0x1a build/default/production/_ext/340578644/sys_devcon_pic32mz.o
 .debug_str     0x0000233f       0xa1 build/default/production/_ext/822048611/sys_ports_static.o
 .debug_str     0x000023e0       0x69 build/default/production/_ext/1688732426/system_init.o
 .debug_str     0x00002449        0x0 build/default/production/_ext/1688732426/system_interrupt.o
 .debug_str     0x00002449        0x0 build/default/production/_ext/1688732426/system_exceptions.o
 .debug_str     0x00002449        0x0 build/default/production/_ext/1360937237/main.o
 .debug_str     0x00002449        0x0 build/default/production/_ext/1688732426/system_tasks.o
 .debug_str     0x00002449        0x9 build/default/production/_ext/1688732426/rtos_hooks.o
 .debug_str     0x00002452        0x0 d:/program files (x86)/microchip/xc32/v2.30/bin/bin/../../lib/gcc/pic32mx/4.8.3/fpu64\libgcc.a(_udivdi3.o)
 .debug_str     0x00002452        0x0 d:/program files (x86)/microchip/xc32/v2.30/bin/bin/../../lib/gcc/pic32mx/4.8.3/../../../../pic32mx/lib/fpu64\libpic32.a(default-bootstrap-exception-handler.o)
 .debug_str     0x00002452        0x0 d:/program files (x86)/microchip/xc32/v2.30/bin/bin/../../lib/gcc/pic32mx/4.8.3/../../../../pic32mx/lib/fpu64\libpic32.a(default-on-reset.o)
 .debug_str     0x00002452        0x0 d:/program files (x86)/microchip/xc32/v2.30/bin/bin/../../lib/gcc/pic32mx/4.8.3/../../../../pic32mx/lib/fpu64\libpic32.a(default-on-bootstrap.o)
 .debug_str     0x00002452        0x0 d:/program files (x86)/microchip/xc32/v2.30/bin/bin/../../lib/gcc/pic32mx/4.8.3/../../../../pic32mx/lib/fpu64\libpic32.a(defaultinterrupt.o)
 .debug_str     0x00002452        0x0 d:/program files (x86)/microchip/xc32/v2.30/bin/bin/../../lib/gcc/pic32mx/4.8.3/../../../../pic32mx/lib/fpu64\libpic32.a(default-cache-err-exception-handler.o)
 .debug_str     0x00002452        0x0 d:/program files (x86)/microchip/xc32/v2.30/bin/bin/../../lib/gcc/pic32mx/4.8.3/../../../../pic32mx/lib/fpu64\libpic32.a(default-simple-tlb-refill-exception-handler.o)
 .debug_str     0x00002452        0x0 d:/program files (x86)/microchip/xc32/v2.30/bin/bin/../../lib/gcc/pic32mx/4.8.3/../../../../pic32mx/lib/fpu64\libc.a(atoi.o)
 .debug_str     0x00002452        0x0 d:/program files (x86)/microchip/xc32/v2.30/bin/bin/../../lib/gcc/pic32mx/4.8.3/../../../../pic32mx/lib/fpu64\libc.a(calloc.o)
 .debug_str     0x00002452        0x0 d:/program files (x86)/microchip/xc32/v2.30/bin/bin/../../lib/gcc/pic32mx/4.8.3/../../../../pic32mx/lib/fpu64\libc.a(ctype.o)
 .debug_str     0x00002452        0x0 d:/program files (x86)/microchip/xc32/v2.30/bin/bin/../../lib/gcc/pic32mx/4.8.3/../../../../pic32mx/lib/fpu64\libc.a(ctypef.o)
 .debug_str     0x00002452        0x0 d:/program files (x86)/microchip/xc32/v2.30/bin/bin/../../lib/gcc/pic32mx/4.8.3/../../../../pic32mx/lib/fpu64\libc.a(malloc.o)
 .debug_str     0x00002452        0x0 d:/program files (x86)/microchip/xc32/v2.30/bin/bin/../../lib/gcc/pic32mx/4.8.3/../../../../pic32mx/lib/fpu64\libc.a(rand.o)
 .debug_str     0x00002452        0x0 d:/program files (x86)/microchip/xc32/v2.30/bin/bin/../../lib/gcc/pic32mx/4.8.3/../../../../pic32mx/lib/fpu64\libc.a(strchr.o)
 .debug_str     0x00002452        0x0 d:/program files (x86)/microchip/xc32/v2.30/bin/bin/../../lib/gcc/pic32mx/4.8.3/../../../../pic32mx/lib/fpu64\libc.a(strncmp.o)
 .debug_str     0x00002452        0x0 d:/program files (x86)/microchip/xc32/v2.30/bin/bin/../../lib/gcc/pic32mx/4.8.3/../../../../pic32mx/lib/fpu64\libc.a(strncpy.o)
 .debug_str     0x00002452        0x0 d:/program files (x86)/microchip/xc32/v2.30/bin/bin/../../lib/gcc/pic32mx/4.8.3/../../../../pic32mx/lib/fpu64\libc.a(strtol.o)
 .debug_str     0x00002452        0x0 d:/program files (x86)/microchip/xc32/v2.30/bin/bin/../../lib/gcc/pic32mx/4.8.3/../../../../pic32mx/lib/fpu64\libc.a(sprintf_cdnopuxX.eo)
 .debug_str     0x00002452        0x0 d:/program files (x86)/microchip/xc32/v2.30/bin/bin/../../lib/gcc/pic32mx/4.8.3/../../../../pic32mx/lib/fpu64\libc.a(sscanf_cdnopuxX.eo)
 .debug_str     0x00002452        0x0 d:/program files (x86)/microchip/xc32/v2.30/bin/bin/../../lib/gcc/pic32mx/4.8.3/../../../../pic32mx/lib/fpu64\libc.a(vsnprintf.o)
 .debug_str     0x00002452        0x0 d:/program files (x86)/microchip/xc32/v2.30/bin/bin/../../lib/gcc/pic32mx/4.8.3/../../../../pic32mx/lib/fpu64\libc.a(errno.o)
 .debug_str     0x00002452        0x0 d:/program files (x86)/microchip/xc32/v2.30/bin/bin/../../lib/gcc/pic32mx/4.8.3/../../../../pic32mx/lib/fpu64\libc.a(doprnt_cdnopuxX.eo)
 .debug_str     0x00002452        0x0 d:/program files (x86)/microchip/xc32/v2.30/bin/bin/../../lib/gcc/pic32mx/4.8.3/../../../../pic32mx/lib/fpu64\libc.a(doprnt.o)
 .debug_str     0x00002452        0x0 d:/program files (x86)/microchip/xc32/v2.30/bin/bin/../../lib/gcc/pic32mx/4.8.3/../../../../pic32mx/lib/fpu64\libc.a(doscan_cdnopuxX.eo)
 .debug_str     0x00002452        0x0 d:/program files (x86)/microchip/xc32/v2.30/bin/bin/../../lib/gcc/pic32mx/4.8.3/../../../../pic32mx/lib/fpu64\libc.a(fgetc.o)
 .debug_str     0x00002452        0x0 d:/program files (x86)/microchip/xc32/v2.30/bin/bin/../../lib/gcc/pic32mx/4.8.3/../../../../pic32mx/lib/fpu64\libc.a(_fputc_simple.o)
 .debug_str     0x00002452        0x0 d:/program files (x86)/microchip/xc32/v2.30/bin/bin/../../lib/gcc/pic32mx/4.8.3/../../../../pic32mx/lib/fpu64\libc.a(ldpowers.o)
 .debug_str     0x00002452        0x0 d:/program files (x86)/microchip/xc32/v2.30/bin/bin/../../lib/gcc/pic32mx/4.8.3/../../../../pic32mx/lib/fpu64\libc.a(ungetc.o)
 .debug_str     0x00002452        0x0 d:/program files (x86)/microchip/xc32/v2.30/bin/bin/../../lib/gcc/pic32mx/4.8.3/../../../../pic32mx/lib/fpu64\libc.a(_iob.o)
 .debug_str     0x00002452        0x0 d:/program files (x86)/microchip/xc32/v2.30/bin/bin/../../lib/gcc/pic32mx/4.8.3/../../../../pic32mx/lib/fpu64\libc.a(filbuf.o)
 .debug_str     0x00002452        0x0 d:/program files (x86)/microchip/xc32/v2.30/bin/bin/../../lib/gcc/pic32mx/4.8.3/../../../../pic32mx/lib/fpu64\libc.a(_flsbuf_simple.o)
 .debug_str     0x00002452        0x0 d:/program files (x86)/microchip/xc32/v2.30/bin/bin/../../lib/gcc/pic32mx/4.8.3/../../../../pic32mx/lib/fpu64\libc.a(fflush.o)
 .debug_str     0x00002452        0x0 d:/program files (x86)/microchip/xc32/v2.30/bin/bin/../../lib/gcc/pic32mx/4.8.3/../../../../pic32mx/lib/fpu64\libmfd.a(s_frexp.o)
 .debug_str     0x00002452        0x0 d:/program files (x86)/microchip/xc32/v2.30/bin/bin/../../lib/gcc/pic32mx/4.8.3/fpu64\libgcc.a(_cmpdi2.o)
 .debug_str     0x00002452        0x0 d:/program files (x86)/microchip/xc32/v2.30/bin/bin/../../lib/gcc/pic32mx/4.8.3/fpu64\libgcc.a(_umoddi3.o)
 .debug_str     0x00002452        0x0 d:/program files (x86)/microchip/xc32/v2.30/bin/bin/../../lib/gcc/pic32mx/4.8.3/../../../../pic32mx/lib/fpu64\libpic32.a(sbrk.o)
 .debug_str     0x00002452        0x0 d:/program files (x86)/microchip/xc32/v2.30/bin/bin/../../lib/gcc/pic32mx/4.8.3/../../../../pic32mx/lib/fpu64\libpic32.a(read.o)
 .debug_str     0x00002452        0x0 d:/program files (x86)/microchip/xc32/v2.30/bin/bin/../../lib/gcc/pic32mx/4.8.3/../../../../pic32mx/lib/fpu64\libpic32.a(write.o)
 .debug_str     0x00002452        0x0 d:/program files (x86)/microchip/xc32/v2.30/bin/bin/../../lib/gcc/pic32mx/4.8.3/../../../../pic32mx/lib/fpu64\libpic32.a(xc32_uart.o)
 .debug_str     0x00002452        0x0 d:/program files (x86)/microchip/xc32/v2.30/bin/bin/../../lib/gcc/pic32mx/4.8.3/../../../../pic32mx/lib/fpu64\libpic32.a(_mon_putc.o)

.debug_loc      0x00000000    0x3325d
 *.elf(.debug_loc)
 *(.debug_loc)
 .debug_loc     0x00000000      0xfb6 build/default/production/_ext/110609098/drv_spi.o
 .debug_loc     0x00000fb6      0xa7d build/default/production/_ext/1908449382/drv_spi_sys_queue_fifo.o
 .debug_loc     0x00001a33     0x18f0 build/default/production/_ext/494209719/drv_tmr.o
 .debug_loc     0x00003323     0x195e build/default/production/_ext/115751837/drv_usart.o
 .debug_loc     0x00004c81      0xb2e build/default/production/_ext/115751837/drv_usart_buffer_queue.o
 .debug_loc     0x000057af      0x50b build/default/production/_ext/115751837/drv_usart_read_write.o
 .debug_loc     0x00005cba      0x609 build/default/production/_ext/412220316/drv_wifi_com.o
 .debug_loc     0x000062c3      0x7a2 build/default/production/_ext/412220316/drv_wifi_commands.o
 .debug_loc     0x00006a65      0x58c build/default/production/_ext/412220316/drv_wifi_connection_algorithm.o
 .debug_loc     0x00006ff1      0x106 build/default/production/_ext/412220316/drv_wifi_connection_manager.o
 .debug_loc     0x000070f7      0x5ad build/default/production/_ext/412220316/drv_wifi_connection_profile.o
 .debug_loc     0x000076a4       0xad build/default/production/_ext/412220316/drv_wifi_context_loader.o
 .debug_loc     0x00007751      0x712 build/default/production/_ext/412220316/drv_wifi_debug_output.o
 .debug_loc     0x00007e63       0x47 build/default/production/_ext/412220316/drv_wifi_eint.o
 .debug_loc     0x00007eaa      0x17e build/default/production/_ext/412220316/drv_wifi_events.o
 .debug_loc     0x00008028      0x523 build/default/production/_ext/412220316/drv_wifi_event_handler.o
 .debug_loc     0x0000854b      0x337 build/default/production/_ext/412220316/drv_wifi_init.o
 .debug_loc     0x00008882      0x3cc build/default/production/_ext/412220316/drv_wifi_iwpriv.o
 .debug_loc     0x00008c4e      0x6ba build/default/production/_ext/412220316/drv_wifi_mac.o
 .debug_loc     0x00009308      0x4dc build/default/production/_ext/412220316/drv_wifi_main.o
 .debug_loc     0x000097e4      0x16b build/default/production/_ext/412220316/drv_wifi_mgmt_msg.o
 .debug_loc     0x0000994f      0x3a9 build/default/production/_ext/412220316/drv_wifi_param_msg.o
 .debug_loc     0x00009cf8     0x163b build/default/production/_ext/412220316/drv_wifi_pbkdf2.o
 .debug_loc     0x0000b333       0xcd build/default/production/_ext/412220316/drv_wifi_power_save.o
 .debug_loc     0x0000b400      0x641 build/default/production/_ext/412220316/drv_wifi_raw.o
 .debug_loc     0x0000ba41       0x7a build/default/production/_ext/412220316/drv_wifi_scan.o
 .debug_loc     0x0000babb       0x9c build/default/production/_ext/412220316/drv_wifi_scan_helper.o
 .debug_loc     0x0000bb57      0x1c6 build/default/production/_ext/412220316/drv_wifi_softap_client_cache.o
 .debug_loc     0x0000bd1d      0x6d7 build/default/production/_ext/412220316/drv_wifi_spi.o
 .debug_loc     0x0000c3f4       0x91 build/default/production/_ext/412220316/drv_wifi_tx_power.o
 .debug_loc     0x0000c485      0x300 build/default/production/_ext/412220316/drv_wifi_rtos_wrapper.o
 .debug_loc     0x0000c785      0x3e6 build/default/production/_ext/2004362140/osal_freertos.o
 .debug_loc     0x0000cb6b     0x107a build/default/production/_ext/1052224704/sys_command.o
 .debug_loc     0x0000dbe5      0x390 build/default/production/_ext/595512524/sys_console.o
 .debug_loc     0x0000df75      0x29d build/default/production/_ext/595512524/sys_console_uart.o
 .debug_loc     0x0000e212     0x19e7 build/default/production/_ext/1855423469/sys_dma.o
 .debug_loc     0x0000fbf9       0x69 build/default/production/_ext/2044150628/sys_int_pic32.o
 .debug_loc     0x0000fc62       0x90 build/default/production/_ext/1304044280/sys_random.o
 .debug_loc     0x0000fcf2       0x42 build/default/production/_ext/398504132/sys_reset.o
 .debug_loc     0x0000fd34      0xa4f build/default/production/_ext/1108686962/sys_tmr.o
 .debug_loc     0x00010783     0x1902 build/default/production/_ext/126554269/ipv4.o
 .debug_loc     0x00012085     0x4d9e build/default/production/_ext/126554269/tcp.o
 .debug_loc     0x00016e23     0x307a build/default/production/_ext/126554269/udp.o
 .debug_loc     0x00019e9d      0x29e build/default/production/_ext/126554269/tcpip_heap_alloc.o
 .debug_loc     0x0001a13b      0x763 build/default/production/_ext/126554269/tcpip_heap_internal.o
 .debug_loc     0x0001a89e     0x1f26 build/default/production/_ext/126554269/arp.o
 .debug_loc     0x0001c7c4     0x22e8 build/default/production/_ext/126554269/dhcp.o
 .debug_loc     0x0001eaac     0x22d1 build/default/production/_ext/126554269/dns.o
 .debug_loc     0x00020d7d      0x21a build/default/production/_ext/126554269/icmp.o
 .debug_loc     0x00020f97      0x47e build/default/production/_ext/126554269/nbns.o
 .debug_loc     0x00021415       0xc9 build/default/production/_ext/126554269/zero_conf_helper.o
 .debug_loc     0x000214de      0x85d build/default/production/_ext/126554269/zero_conf_link_local.o
 .debug_loc     0x00021d3b      0x43c build/default/production/_ext/126554269/tcpip_announce.o
 .debug_loc     0x00022177     0x1dc3 build/default/production/_ext/126554269/tcpip_commands.o
 .debug_loc     0x00023f3a      0x2ff build/default/production/_ext/1551925347/helpers.o
 .debug_loc     0x00024239      0x137 build/default/production/_ext/126554269/hash_fnv.o
 .debug_loc     0x00024370      0x2b1 build/default/production/_ext/126554269/oahash.o
 .debug_loc     0x00024621     0x22b0 build/default/production/_ext/126554269/tcpip_helpers.o
 .debug_loc     0x000268d1     0x3104 build/default/production/_ext/126554269/tcpip_manager.o
 .debug_loc     0x000299d5      0x27a build/default/production/_ext/126554269/tcpip_notify.o
 .debug_loc     0x00029c4f      0x830 build/default/production/_ext/126554269/tcpip_packet.o
 .debug_loc     0x0002a47f       0x31 build/default/production/_ext/1808430591/list.o
 .debug_loc     0x0002a4b0      0xea5 build/default/production/_ext/1808430591/queue.o
 .debug_loc     0x0002b355     0x1492 build/default/production/_ext/1808430591/tasks.o
 .debug_loc     0x0002c7e7      0x8ea build/default/production/_ext/1808430591/event_groups.o
 .debug_loc     0x0002d0d1      0x20d build/default/production/_ext/508667646/heap_2.o
 .debug_loc     0x0002d2de      0x10d build/default/production/_ext/417601773/port.o
 .debug_loc     0x0002d3eb      0x187 build/default/production/_ext/1360937237/wnetcom.o
 .debug_loc     0x0002d572      0xb3e build/default/production/_ext/977502197/drv_spi_tasks.o
 .debug_loc     0x0002e0b0      0x9ea build/default/production/_ext/977502197/drv_spi_api.o
 .debug_loc     0x0002ea9a      0x397 build/default/production/_ext/977502197/drv_spi_master_ebm_tasks.o
 .debug_loc     0x0002ee31      0x783 build/default/production/_ext/977502197/drv_spi_master_dma_tasks.o
 .debug_loc     0x0002f5b4      0x2b6 build/default/production/_ext/639803181/sys_clk.o
 .debug_loc     0x0002f86a     0x1679 build/default/production/_ext/639803181/sys_clk_pic32mz.o
 .debug_loc     0x00030ee3       0xf0 build/default/production/_ext/340578644/sys_devcon.o
 .debug_loc     0x00030fd3      0x3fd build/default/production/_ext/340578644/sys_devcon_pic32mz.o
 .debug_loc     0x000313d0      0x7de build/default/production/_ext/822048611/sys_ports_static.o
 .debug_loc     0x00031bae       0x21 build/default/production/_ext/1688732426/system_init.o
 .debug_loc     0x00031bcf       0x4a build/default/production/_ext/1688732426/rtos_hooks.o
 .debug_loc     0x00031c19      0xa6a d:/program files (x86)/microchip/xc32/v2.30/bin/bin/../../lib/gcc/pic32mx/4.8.3/fpu64\libgcc.a(_udivdi3.o)
 .debug_loc     0x00032683       0x2c d:/program files (x86)/microchip/xc32/v2.30/bin/bin/../../lib/gcc/pic32mx/4.8.3/../../../../pic32mx/lib/fpu64\libpic32.a(default-bootstrap-exception-handler.o)
 .debug_loc     0x000326af       0x2c d:/program files (x86)/microchip/xc32/v2.30/bin/bin/../../lib/gcc/pic32mx/4.8.3/../../../../pic32mx/lib/fpu64\libpic32.a(default-cache-err-exception-handler.o)
 .debug_loc     0x000326db       0x2c d:/program files (x86)/microchip/xc32/v2.30/bin/bin/../../lib/gcc/pic32mx/4.8.3/../../../../pic32mx/lib/fpu64\libpic32.a(default-simple-tlb-refill-exception-handler.o)
 .debug_loc     0x00032707       0x29 d:/program files (x86)/microchip/xc32/v2.30/bin/bin/../../lib/gcc/pic32mx/4.8.3/fpu64\libgcc.a(_cmpdi2.o)
 .debug_loc     0x00032730      0xa3d d:/program files (x86)/microchip/xc32/v2.30/bin/bin/../../lib/gcc/pic32mx/4.8.3/fpu64\libgcc.a(_umoddi3.o)
 .debug_loc     0x0003316d       0x78 d:/program files (x86)/microchip/xc32/v2.30/bin/bin/../../lib/gcc/pic32mx/4.8.3/../../../../pic32mx/lib/fpu64\libpic32.a(sbrk.o)
 .debug_loc     0x000331e5       0x20 d:/program files (x86)/microchip/xc32/v2.30/bin/bin/../../lib/gcc/pic32mx/4.8.3/../../../../pic32mx/lib/fpu64\libpic32.a(read.o)
 .debug_loc     0x00033205       0x38 d:/program files (x86)/microchip/xc32/v2.30/bin/bin/../../lib/gcc/pic32mx/4.8.3/../../../../pic32mx/lib/fpu64\libpic32.a(write.o)
 .debug_loc     0x0003323d       0x20 d:/program files (x86)/microchip/xc32/v2.30/bin/bin/../../lib/gcc/pic32mx/4.8.3/../../../../pic32mx/lib/fpu64\libpic32.a(_mon_putc.o)

.debug_macinfo
 *.elf(.debug_macinfo)
 *(.debug_macinfo)

.debug_weaknames
 *.elf(.debug_weaknames)
 *(.debug_weaknames)

.debug_funcnames
 *.elf(.debug_funcnames)
 *(.debug_funcnames)

.debug_typenames
 *.elf(.debug_typenames)
 *(.debug_typenames)

.debug_varnames
 *.elf(.debug_varnames)
 *(.debug_varnames)

.debug_pubtypes
 *.elf(.debug_pubtypes)
 *(.debug_pubtypes)

.debug_ranges   0x00000000     0x4fd8
 *.elf(.debug_ranges)
 *(.debug_ranges)
 .debug_ranges  0x00000000       0xa0 build/default/production/_ext/110609098/drv_spi.o
 .debug_ranges  0x000000a0       0xc8 build/default/production/_ext/1908449382/drv_spi_sys_queue_fifo.o
 .debug_ranges  0x00000168      0x258 build/default/production/_ext/494209719/drv_tmr.o
 .debug_ranges  0x000003c0      0x170 build/default/production/_ext/115751837/drv_usart.o
 .debug_ranges  0x00000530       0x58 build/default/production/_ext/115751837/drv_usart_buffer_queue.o
 .debug_ranges  0x00000588       0x48 build/default/production/_ext/115751837/drv_usart_read_write.o
 .debug_ranges  0x000005d0       0xc8 build/default/production/_ext/412220316/drv_wifi_com.o
 .debug_ranges  0x00000698      0x1e8 build/default/production/_ext/412220316/drv_wifi_commands.o
 .debug_ranges  0x00000880       0x38 build/default/production/_ext/412220316/drv_wifi_config_data.o
 .debug_ranges  0x000008b8       0x88 build/default/production/_ext/412220316/drv_wifi_connection_algorithm.o
 .debug_ranges  0x00000940       0x48 build/default/production/_ext/412220316/drv_wifi_connection_manager.o
 .debug_ranges  0x00000988       0xc0 build/default/production/_ext/412220316/drv_wifi_connection_profile.o
 .debug_ranges  0x00000a48       0x40 build/default/production/_ext/412220316/drv_wifi_context_loader.o
 .debug_ranges  0x00000a88      0x230 build/default/production/_ext/412220316/drv_wifi_debug_output.o
 .debug_ranges  0x00000cb8       0x18 build/default/production/_ext/412220316/drv_wifi_eint.o
 .debug_ranges  0x00000cd0       0x58 build/default/production/_ext/412220316/drv_wifi_events.o
 .debug_ranges  0x00000d28       0xd8 build/default/production/_ext/412220316/drv_wifi_event_handler.o
 .debug_ranges  0x00000e00       0x68 build/default/production/_ext/412220316/drv_wifi_init.o
 .debug_ranges  0x00000e68       0xc0 build/default/production/_ext/412220316/drv_wifi_iwpriv.o
 .debug_ranges  0x00000f28      0x130 build/default/production/_ext/412220316/drv_wifi_mac.o
 .debug_ranges  0x00001058       0xf8 build/default/production/_ext/412220316/drv_wifi_main.o
 .debug_ranges  0x00001150       0x28 build/default/production/_ext/412220316/drv_wifi_mgmt_msg.o
 .debug_ranges  0x00001178       0x90 build/default/production/_ext/412220316/drv_wifi_param_msg.o
 .debug_ranges  0x00001208       0xa8 build/default/production/_ext/412220316/drv_wifi_pbkdf2.o
 .debug_ranges  0x000012b0       0x88 build/default/production/_ext/412220316/drv_wifi_power_save.o
 .debug_ranges  0x00001338       0x88 build/default/production/_ext/412220316/drv_wifi_raw.o
 .debug_ranges  0x000013c0       0x40 build/default/production/_ext/412220316/drv_wifi_scan.o
 .debug_ranges  0x00001400       0x40 build/default/production/_ext/412220316/drv_wifi_scan_helper.o
 .debug_ranges  0x00001440       0x60 build/default/production/_ext/412220316/drv_wifi_softap_client_cache.o
 .debug_ranges  0x000014a0       0x70 build/default/production/_ext/412220316/drv_wifi_spi.o
 .debug_ranges  0x00001510       0x20 build/default/production/_ext/412220316/drv_wifi_tx_power.o
 .debug_ranges  0x00001530       0x88 build/default/production/_ext/412220316/drv_wifi_rtos_wrapper.o
 .debug_ranges  0x000015b8       0x78 build/default/production/_ext/2004362140/osal_freertos.o
 .debug_ranges  0x00001630      0x1f8 build/default/production/_ext/1052224704/sys_command.o
 .debug_ranges  0x00001828       0x50 build/default/production/_ext/595512524/sys_console.o
 .debug_ranges  0x00001878       0x80 build/default/production/_ext/595512524/sys_console_uart.o
 .debug_ranges  0x000018f8      0x1c8 build/default/production/_ext/1855423469/sys_dma.o
 .debug_ranges  0x00001ac0       0x50 build/default/production/_ext/2044150628/sys_int_pic32.o
 .debug_ranges  0x00001b10       0x28 build/default/production/_ext/1304044280/sys_random.o
 .debug_ranges  0x00001b38       0x28 build/default/production/_ext/398504132/sys_reset.o
 .debug_ranges  0x00001b60      0x100 build/default/production/_ext/1108686962/sys_tmr.o
 .debug_ranges  0x00001c60      0x1a8 build/default/production/_ext/126554269/ipv4.o
 .debug_ranges  0x00001e08      0x8f0 build/default/production/_ext/126554269/tcp.o
 .debug_ranges  0x000026f8      0x480 build/default/production/_ext/126554269/udp.o
 .debug_ranges  0x00002b78       0x38 build/default/production/_ext/126554269/tcpip_heap_alloc.o
 .debug_ranges  0x00002bb0       0x50 build/default/production/_ext/126554269/tcpip_heap_internal.o
 .debug_ranges  0x00002c00      0x188 build/default/production/_ext/126554269/arp.o
 .debug_ranges  0x00002d88      0x328 build/default/production/_ext/126554269/dhcp.o
 .debug_ranges  0x000030b0      0x240 build/default/production/_ext/126554269/dns.o
 .debug_ranges  0x000032f0       0x40 build/default/production/_ext/126554269/icmp.o
 .debug_ranges  0x00003330       0xb8 build/default/production/_ext/126554269/nbns.o
 .debug_ranges  0x000033e8       0x10 build/default/production/_ext/126554269/zero_conf_helper.o
 .debug_ranges  0x000033f8      0x120 build/default/production/_ext/126554269/zero_conf_link_local.o
 .debug_ranges  0x00003518       0x60 build/default/production/_ext/126554269/tcpip_announce.o
 .debug_ranges  0x00003578      0x1e8 build/default/production/_ext/126554269/tcpip_commands.o
 .debug_ranges  0x00003760       0x30 build/default/production/_ext/1551925347/helpers.o
 .debug_ranges  0x00003790       0x18 build/default/production/_ext/126554269/hash_fnv.o
 .debug_ranges  0x000037a8       0x58 build/default/production/_ext/126554269/oahash.o
 .debug_ranges  0x00003800      0x250 build/default/production/_ext/126554269/tcpip_helpers.o
 .debug_ranges  0x00003a50      0x5a0 build/default/production/_ext/126554269/tcpip_manager.o
 .debug_ranges  0x00003ff0       0x30 build/default/production/_ext/126554269/tcpip_notify.o
 .debug_ranges  0x00004020       0x68 build/default/production/_ext/126554269/tcpip_packet.o
 .debug_ranges  0x00004088       0x30 build/default/production/_ext/1808430591/list.o
 .debug_ranges  0x000040b8      0x130 build/default/production/_ext/1808430591/queue.o
 .debug_ranges  0x000041e8      0x1b0 build/default/production/_ext/1808430591/tasks.o
 .debug_ranges  0x00004398       0x98 build/default/production/_ext/1808430591/event_groups.o
 .debug_ranges  0x00004430       0x58 build/default/production/_ext/508667646/heap_2.o
 .debug_ranges  0x00004488       0x48 build/default/production/_ext/417601773/port.o
 .debug_ranges  0x000044d0       0x28 build/default/production/_ext/417601773/port_asm.o
 .debug_ranges  0x000044f8       0x70 build/default/production/_ext/1360937237/wnetcom.o
 .debug_ranges  0x00004568       0xd8 build/default/production/_ext/977502197/drv_spi_tasks.o
 .debug_ranges  0x00004640       0x18 build/default/production/_ext/977502197/drv_spi_api.o
 .debug_ranges  0x00004658       0x18 build/default/production/_ext/977502197/drv_spi_master_ebm_tasks.o
 .debug_ranges  0x00004670       0x38 build/default/production/_ext/977502197/drv_spi_master_dma_tasks.o
 .debug_ranges  0x000046a8       0x78 build/default/production/_ext/639803181/sys_clk.o
 .debug_ranges  0x00004720      0x108 build/default/production/_ext/639803181/sys_clk_pic32mz.o
 .debug_ranges  0x00004828       0x68 build/default/production/_ext/340578644/sys_devcon.o
 .debug_ranges  0x00004890       0xd8 build/default/production/_ext/340578644/sys_devcon_pic32mz.o
 .debug_ranges  0x00004968       0xf8 build/default/production/_ext/822048611/sys_ports_static.o
 .debug_ranges  0x00004a60       0x18 build/default/production/_ext/1688732426/system_init.o
 .debug_ranges  0x00004a78       0x58 build/default/production/_ext/1688732426/system_interrupt.o
 .debug_ranges  0x00004ad0       0x10 build/default/production/_ext/1688732426/system_exceptions.o
 .debug_ranges  0x00004ae0       0x10 build/default/production/_ext/1360937237/main.o
 .debug_ranges  0x00004af0       0x20 build/default/production/_ext/1688732426/system_tasks.o
 .debug_ranges  0x00004b10       0x60 build/default/production/_ext/1688732426/system_interrupt_a.o
 .debug_ranges  0x00004b70       0x18 build/default/production/_ext/1688732426/rtos_hooks.o
 .debug_ranges  0x00004b88       0x98 d:/program files (x86)/microchip/xc32/v2.30/bin/bin/../../lib/gcc/pic32mx/4.8.3/fpu64\libgcc.a(_udivdi3.o)
 .debug_ranges  0x00004c20       0x10 d:/program files (x86)/microchip/xc32/v2.30/bin/bin/../../lib/gcc/pic32mx/4.8.3/../../../../pic32mx/lib/fpu64\libpic32.a(default-bootstrap-exception-handler.o)
 .debug_ranges  0x00004c30       0x10 d:/program files (x86)/microchip/xc32/v2.30/bin/bin/../../lib/gcc/pic32mx/4.8.3/../../../../pic32mx/lib/fpu64\libpic32.a(default-on-reset.o)
 .debug_ranges  0x00004c40       0x10 d:/program files (x86)/microchip/xc32/v2.30/bin/bin/../../lib/gcc/pic32mx/4.8.3/../../../../pic32mx/lib/fpu64\libpic32.a(default-on-bootstrap.o)
 .debug_ranges  0x00004c50       0x10 d:/program files (x86)/microchip/xc32/v2.30/bin/bin/../../lib/gcc/pic32mx/4.8.3/../../../../pic32mx/lib/fpu64\libpic32.a(defaultinterrupt.o)
 .debug_ranges  0x00004c60       0x10 d:/program files (x86)/microchip/xc32/v2.30/bin/bin/../../lib/gcc/pic32mx/4.8.3/../../../../pic32mx/lib/fpu64\libpic32.a(default-cache-err-exception-handler.o)
 .debug_ranges  0x00004c70       0x10 d:/program files (x86)/microchip/xc32/v2.30/bin/bin/../../lib/gcc/pic32mx/4.8.3/../../../../pic32mx/lib/fpu64\libpic32.a(default-simple-tlb-refill-exception-handler.o)
 .debug_ranges  0x00004c80       0x10 d:/program files (x86)/microchip/xc32/v2.30/bin/bin/../../lib/gcc/pic32mx/4.8.3/../../../../pic32mx/lib/fpu64\libc.a(atoi.o)
 .debug_ranges  0x00004c90       0x10 d:/program files (x86)/microchip/xc32/v2.30/bin/bin/../../lib/gcc/pic32mx/4.8.3/../../../../pic32mx/lib/fpu64\libc.a(calloc.o)
 .debug_ranges  0x00004ca0       0x90 d:/program files (x86)/microchip/xc32/v2.30/bin/bin/../../lib/gcc/pic32mx/4.8.3/../../../../pic32mx/lib/fpu64\libc.a(ctypef.o)
 .debug_ranges  0x00004d30       0x20 d:/program files (x86)/microchip/xc32/v2.30/bin/bin/../../lib/gcc/pic32mx/4.8.3/../../../../pic32mx/lib/fpu64\libc.a(malloc.o)
 .debug_ranges  0x00004d50       0x18 d:/program files (x86)/microchip/xc32/v2.30/bin/bin/../../lib/gcc/pic32mx/4.8.3/../../../../pic32mx/lib/fpu64\libc.a(rand.o)
 .debug_ranges  0x00004d68       0x10 d:/program files (x86)/microchip/xc32/v2.30/bin/bin/../../lib/gcc/pic32mx/4.8.3/../../../../pic32mx/lib/fpu64\libc.a(strchr.o)
 .debug_ranges  0x00004d78       0x10 d:/program files (x86)/microchip/xc32/v2.30/bin/bin/../../lib/gcc/pic32mx/4.8.3/../../../../pic32mx/lib/fpu64\libc.a(strncmp.o)
 .debug_ranges  0x00004d88       0x10 d:/program files (x86)/microchip/xc32/v2.30/bin/bin/../../lib/gcc/pic32mx/4.8.3/../../../../pic32mx/lib/fpu64\libc.a(strncpy.o)
 .debug_ranges  0x00004d98       0x18 d:/program files (x86)/microchip/xc32/v2.30/bin/bin/../../lib/gcc/pic32mx/4.8.3/../../../../pic32mx/lib/fpu64\libc.a(strtol.o)
 .debug_ranges  0x00004db0       0x10 d:/program files (x86)/microchip/xc32/v2.30/bin/bin/../../lib/gcc/pic32mx/4.8.3/../../../../pic32mx/lib/fpu64\libc.a(sprintf_cdnopuxX.eo)
 .debug_ranges  0x00004dc0       0x10 d:/program files (x86)/microchip/xc32/v2.30/bin/bin/../../lib/gcc/pic32mx/4.8.3/../../../../pic32mx/lib/fpu64\libc.a(sscanf_cdnopuxX.eo)
 .debug_ranges  0x00004dd0       0x10 d:/program files (x86)/microchip/xc32/v2.30/bin/bin/../../lib/gcc/pic32mx/4.8.3/../../../../pic32mx/lib/fpu64\libc.a(vsnprintf.o)
 .debug_ranges  0x00004de0       0x10 d:/program files (x86)/microchip/xc32/v2.30/bin/bin/../../lib/gcc/pic32mx/4.8.3/../../../../pic32mx/lib/fpu64\libc.a(doprnt_cdnopuxX.eo)
 .debug_ranges  0x00004df0       0x20 d:/program files (x86)/microchip/xc32/v2.30/bin/bin/../../lib/gcc/pic32mx/4.8.3/../../../../pic32mx/lib/fpu64\libc.a(doprnt.o)
 .debug_ranges  0x00004e10       0x20 d:/program files (x86)/microchip/xc32/v2.30/bin/bin/../../lib/gcc/pic32mx/4.8.3/../../../../pic32mx/lib/fpu64\libc.a(doscan_cdnopuxX.eo)
 .debug_ranges  0x00004e30       0x10 d:/program files (x86)/microchip/xc32/v2.30/bin/bin/../../lib/gcc/pic32mx/4.8.3/../../../../pic32mx/lib/fpu64\libc.a(fgetc.o)
 .debug_ranges  0x00004e40       0x10 d:/program files (x86)/microchip/xc32/v2.30/bin/bin/../../lib/gcc/pic32mx/4.8.3/../../../../pic32mx/lib/fpu64\libc.a(_fputc_simple.o)
 .debug_ranges  0x00004e50       0x10 d:/program files (x86)/microchip/xc32/v2.30/bin/bin/../../lib/gcc/pic32mx/4.8.3/../../../../pic32mx/lib/fpu64\libc.a(ungetc.o)
 .debug_ranges  0x00004e60       0x10 d:/program files (x86)/microchip/xc32/v2.30/bin/bin/../../lib/gcc/pic32mx/4.8.3/../../../../pic32mx/lib/fpu64\libc.a(filbuf.o)
 .debug_ranges  0x00004e70       0x10 d:/program files (x86)/microchip/xc32/v2.30/bin/bin/../../lib/gcc/pic32mx/4.8.3/../../../../pic32mx/lib/fpu64\libc.a(_flsbuf_simple.o)
 .debug_ranges  0x00004e80       0x10 d:/program files (x86)/microchip/xc32/v2.30/bin/bin/../../lib/gcc/pic32mx/4.8.3/../../../../pic32mx/lib/fpu64\libc.a(fflush.o)
 .debug_ranges  0x00004e90       0x10 d:/program files (x86)/microchip/xc32/v2.30/bin/bin/../../lib/gcc/pic32mx/4.8.3/../../../../pic32mx/lib/fpu64\libmfd.a(s_frexp.o)
 .debug_ranges  0x00004ea0       0xd8 d:/program files (x86)/microchip/xc32/v2.30/bin/bin/../../lib/gcc/pic32mx/4.8.3/fpu64\libgcc.a(_umoddi3.o)
 .debug_ranges  0x00004f78       0x30 d:/program files (x86)/microchip/xc32/v2.30/bin/bin/../../lib/gcc/pic32mx/4.8.3/../../../../pic32mx/lib/fpu64\libpic32.a(sbrk.o)
 .debug_ranges  0x00004fa8       0x10 d:/program files (x86)/microchip/xc32/v2.30/bin/bin/../../lib/gcc/pic32mx/4.8.3/../../../../pic32mx/lib/fpu64\libpic32.a(read.o)
 .debug_ranges  0x00004fb8       0x10 d:/program files (x86)/microchip/xc32/v2.30/bin/bin/../../lib/gcc/pic32mx/4.8.3/../../../../pic32mx/lib/fpu64\libpic32.a(write.o)
 .debug_ranges  0x00004fc8       0x10 d:/program files (x86)/microchip/xc32/v2.30/bin/bin/../../lib/gcc/pic32mx/4.8.3/../../../../pic32mx/lib/fpu64\libpic32.a(_mon_putc.o)

.gnu.attributes
                0x00000000       0x10
 *(.gnu.attributes)
 .gnu.attributes
                0x00000000       0x10 build/default/production/_ext/110609098/drv_spi.o
 .gnu.attributes
                0x00000010       0x10 build/default/production/_ext/1908449382/drv_spi_sys_queue_fifo.o
 .gnu.attributes
                0x00000020       0x10 build/default/production/_ext/494209719/drv_tmr.o
 .gnu.attributes
                0x00000030       0x10 build/default/production/_ext/115751837/drv_usart.o
 .gnu.attributes
                0x00000040       0x10 build/default/production/_ext/115751837/drv_usart_buffer_queue.o
 .gnu.attributes
                0x00000050       0x10 build/default/production/_ext/115751837/drv_usart_read_write.o
 .gnu.attributes
                0x00000060       0x10 build/default/production/_ext/412220316/drv_wifi_com.o
 .gnu.attributes
                0x00000070       0x10 build/default/production/_ext/412220316/drv_wifi_commands.o
 .gnu.attributes
                0x00000080       0x10 build/default/production/_ext/412220316/drv_wifi_config_data.o
 .gnu.attributes
                0x00000090       0x10 build/default/production/_ext/412220316/drv_wifi_connection_algorithm.o
 .gnu.attributes
                0x000000a0       0x10 build/default/production/_ext/412220316/drv_wifi_connection_manager.o
 .gnu.attributes
                0x000000b0       0x10 build/default/production/_ext/412220316/drv_wifi_connection_profile.o
 .gnu.attributes
                0x000000c0       0x10 build/default/production/_ext/412220316/drv_wifi_context_loader.o
 .gnu.attributes
                0x000000d0       0x10 build/default/production/_ext/412220316/drv_wifi_debug_output.o
 .gnu.attributes
                0x000000e0       0x10 build/default/production/_ext/412220316/drv_wifi_eint.o
 .gnu.attributes
                0x000000f0       0x10 build/default/production/_ext/412220316/drv_wifi_events.o
 .gnu.attributes
                0x00000100       0x10 build/default/production/_ext/412220316/drv_wifi_event_handler.o
 .gnu.attributes
                0x00000110       0x10 build/default/production/_ext/412220316/drv_wifi_init.o
 .gnu.attributes
                0x00000120       0x10 build/default/production/_ext/412220316/drv_wifi_iwpriv.o
 .gnu.attributes
                0x00000130       0x10 build/default/production/_ext/412220316/drv_wifi_mac.o
 .gnu.attributes
                0x00000140       0x10 build/default/production/_ext/412220316/drv_wifi_main.o
 .gnu.attributes
                0x00000150       0x10 build/default/production/_ext/412220316/drv_wifi_mgmt_msg.o
 .gnu.attributes
                0x00000160       0x10 build/default/production/_ext/412220316/drv_wifi_param_msg.o
 .gnu.attributes
                0x00000170       0x10 build/default/production/_ext/412220316/drv_wifi_pbkdf2.o
 .gnu.attributes
                0x00000180       0x10 build/default/production/_ext/412220316/drv_wifi_power_save.o
 .gnu.attributes
                0x00000190       0x10 build/default/production/_ext/412220316/drv_wifi_raw.o
 .gnu.attributes
                0x000001a0       0x10 build/default/production/_ext/412220316/drv_wifi_scan.o
 .gnu.attributes
                0x000001b0       0x10 build/default/production/_ext/412220316/drv_wifi_scan_helper.o
 .gnu.attributes
                0x000001c0       0x10 build/default/production/_ext/412220316/drv_wifi_softap_client_cache.o
 .gnu.attributes
                0x000001d0       0x10 build/default/production/_ext/412220316/drv_wifi_spi.o
 .gnu.attributes
                0x000001e0       0x10 build/default/production/_ext/412220316/drv_wifi_tx_power.o
 .gnu.attributes
                0x000001f0       0x10 build/default/production/_ext/412220316/drv_wifi_rtos_wrapper.o
 .gnu.attributes
                0x00000200       0x10 build/default/production/_ext/2004362140/osal_freertos.o
 .gnu.attributes
                0x00000210       0x10 build/default/production/_ext/1052224704/sys_command.o
 .gnu.attributes
                0x00000220       0x10 build/default/production/_ext/595512524/sys_console.o
 .gnu.attributes
                0x00000230       0x10 build/default/production/_ext/595512524/sys_console_uart.o
 .gnu.attributes
                0x00000240       0x10 build/default/production/_ext/1855423469/sys_dma.o
 .gnu.attributes
                0x00000250       0x10 build/default/production/_ext/2044150628/sys_int_pic32.o
 .gnu.attributes
                0x00000260       0x10 build/default/production/_ext/1304044280/sys_random.o
 .gnu.attributes
                0x00000270       0x10 build/default/production/_ext/398504132/sys_reset.o
 .gnu.attributes
                0x00000280       0x10 build/default/production/_ext/1108686962/sys_tmr.o
 .gnu.attributes
                0x00000290       0x10 build/default/production/_ext/126554269/ipv4.o
 .gnu.attributes
                0x000002a0       0x10 build/default/production/_ext/126554269/tcp.o
 .gnu.attributes
                0x000002b0       0x10 build/default/production/_ext/126554269/udp.o
 .gnu.attributes
                0x000002c0       0x10 build/default/production/_ext/126554269/tcpip_heap_alloc.o
 .gnu.attributes
                0x000002d0       0x10 build/default/production/_ext/126554269/tcpip_heap_internal.o
 .gnu.attributes
                0x000002e0       0x10 build/default/production/_ext/126554269/arp.o
 .gnu.attributes
                0x000002f0       0x10 build/default/production/_ext/126554269/dhcp.o
 .gnu.attributes
                0x00000300       0x10 build/default/production/_ext/126554269/dns.o
 .gnu.attributes
                0x00000310       0x10 build/default/production/_ext/126554269/icmp.o
 .gnu.attributes
                0x00000320       0x10 build/default/production/_ext/126554269/nbns.o
 .gnu.attributes
                0x00000330       0x10 build/default/production/_ext/126554269/zero_conf_helper.o
 .gnu.attributes
                0x00000340       0x10 build/default/production/_ext/126554269/zero_conf_link_local.o
 .gnu.attributes
                0x00000350       0x10 build/default/production/_ext/126554269/tcpip_announce.o
 .gnu.attributes
                0x00000360       0x10 build/default/production/_ext/126554269/tcpip_commands.o
 .gnu.attributes
                0x00000370       0x10 build/default/production/_ext/1551925347/helpers.o
 .gnu.attributes
                0x00000380       0x10 build/default/production/_ext/126554269/hash_fnv.o
 .gnu.attributes
                0x00000390       0x10 build/default/production/_ext/126554269/oahash.o
 .gnu.attributes
                0x000003a0       0x10 build/default/production/_ext/126554269/tcpip_helpers.o
 .gnu.attributes
                0x000003b0       0x10 build/default/production/_ext/126554269/tcpip_manager.o
 .gnu.attributes
                0x000003c0       0x10 build/default/production/_ext/126554269/tcpip_notify.o
 .gnu.attributes
                0x000003d0       0x10 build/default/production/_ext/126554269/tcpip_packet.o
 .gnu.attributes
                0x000003e0       0x10 build/default/production/_ext/1808430591/croutine.o
 .gnu.attributes
                0x000003f0       0x10 build/default/production/_ext/1808430591/list.o
 .gnu.attributes
                0x00000400       0x10 build/default/production/_ext/1808430591/queue.o
 .gnu.attributes
                0x00000410       0x10 build/default/production/_ext/1808430591/tasks.o
 .gnu.attributes
                0x00000420       0x10 build/default/production/_ext/1808430591/timers.o
 .gnu.attributes
                0x00000430       0x10 build/default/production/_ext/1808430591/event_groups.o
 .gnu.attributes
                0x00000440       0x10 build/default/production/_ext/508667646/heap_2.o
 .gnu.attributes
                0x00000450       0x10 build/default/production/_ext/417601773/port.o
 .gnu.attributes
                0x00000460       0x10 build/default/production/_ext/1360937237/wnetcom.o
 .gnu.attributes
                0x00000470       0x10 build/default/production/_ext/977502197/drv_spi_tasks.o
 .gnu.attributes
                0x00000480       0x10 build/default/production/_ext/977502197/drv_spi_api.o
 .gnu.attributes
                0x00000490       0x10 build/default/production/_ext/977502197/drv_spi_master_ebm_tasks.o
 .gnu.attributes
                0x000004a0       0x10 build/default/production/_ext/977502197/drv_spi_master_dma_tasks.o
 .gnu.attributes
                0x000004b0       0x10 build/default/production/_ext/639803181/sys_clk.o
 .gnu.attributes
                0x000004c0       0x10 build/default/production/_ext/639803181/sys_clk_pic32mz.o
 .gnu.attributes
                0x000004d0       0x10 build/default/production/_ext/340578644/sys_devcon.o
 .gnu.attributes
                0x000004e0       0x10 build/default/production/_ext/340578644/sys_devcon_pic32mz.o
 .gnu.attributes
                0x000004f0       0x10 build/default/production/_ext/822048611/sys_ports_static.o
 .gnu.attributes
                0x00000500       0x10 build/default/production/_ext/1688732426/system_init.o
 .gnu.attributes
                0x00000510       0x10 build/default/production/_ext/1688732426/system_interrupt.o
 .gnu.attributes
                0x00000520       0x10 build/default/production/_ext/1688732426/system_exceptions.o
 .gnu.attributes
                0x00000530       0x10 build/default/production/_ext/1360937237/main.o
 .gnu.attributes
                0x00000540       0x10 build/default/production/_ext/1688732426/system_tasks.o
 .gnu.attributes
                0x00000550       0x10 build/default/production/_ext/1688732426/rtos_hooks.o
 .gnu.attributes
                0x00000560       0x10 d:/program files (x86)/microchip/xc32/v2.30/bin/bin/../../lib/gcc/pic32mx/4.8.3/fpu64\libgcc.a(_udivdi3.o)
 .gnu.attributes
                0x00000570       0x10 d:/program files (x86)/microchip/xc32/v2.30/bin/bin/../../lib/gcc/pic32mx/4.8.3/../../../../pic32mx/lib/fpu64\libpic32.a(default-bootstrap-exception-handler.o)
 .gnu.attributes
                0x00000580       0x10 d:/program files (x86)/microchip/xc32/v2.30/bin/bin/../../lib/gcc/pic32mx/4.8.3/../../../../pic32mx/lib/fpu64\libpic32.a(default-on-reset.o)
 .gnu.attributes
                0x00000590       0x10 d:/program files (x86)/microchip/xc32/v2.30/bin/bin/../../lib/gcc/pic32mx/4.8.3/../../../../pic32mx/lib/fpu64\libpic32.a(default-on-bootstrap.o)
 .gnu.attributes
                0x000005a0       0x10 d:/program files (x86)/microchip/xc32/v2.30/bin/bin/../../lib/gcc/pic32mx/4.8.3/../../../../pic32mx/lib/fpu64\libpic32.a(defaultinterrupt.o)
 .gnu.attributes
                0x000005b0       0x10 d:/program files (x86)/microchip/xc32/v2.30/bin/bin/../../lib/gcc/pic32mx/4.8.3/../../../../pic32mx/lib/fpu64\libpic32.a(default-cache-err-exception-handler.o)
 .gnu.attributes
                0x000005c0       0x10 d:/program files (x86)/microchip/xc32/v2.30/bin/bin/../../lib/gcc/pic32mx/4.8.3/../../../../pic32mx/lib/fpu64\libpic32.a(default-simple-tlb-refill-exception-handler.o)
 .gnu.attributes
                0x000005d0       0x10 d:/program files (x86)/microchip/xc32/v2.30/bin/bin/../../lib/gcc/pic32mx/4.8.3/../../../../pic32mx/lib/fpu64\libc.a(atoi.o)
 .gnu.attributes
                0x000005e0       0x10 d:/program files (x86)/microchip/xc32/v2.30/bin/bin/../../lib/gcc/pic32mx/4.8.3/../../../../pic32mx/lib/fpu64\libc.a(calloc.o)
 .gnu.attributes
                0x000005f0       0x10 d:/program files (x86)/microchip/xc32/v2.30/bin/bin/../../lib/gcc/pic32mx/4.8.3/../../../../pic32mx/lib/fpu64\libc.a(ctype.o)
 .gnu.attributes
                0x00000600       0x10 d:/program files (x86)/microchip/xc32/v2.30/bin/bin/../../lib/gcc/pic32mx/4.8.3/../../../../pic32mx/lib/fpu64\libc.a(ctypef.o)
 .gnu.attributes
                0x00000610       0x10 d:/program files (x86)/microchip/xc32/v2.30/bin/bin/../../lib/gcc/pic32mx/4.8.3/../../../../pic32mx/lib/fpu64\libc.a(malloc.o)
 .gnu.attributes
                0x00000620       0x10 d:/program files (x86)/microchip/xc32/v2.30/bin/bin/../../lib/gcc/pic32mx/4.8.3/../../../../pic32mx/lib/fpu64\libc.a(rand.o)
 .gnu.attributes
                0x00000630       0x10 d:/program files (x86)/microchip/xc32/v2.30/bin/bin/../../lib/gcc/pic32mx/4.8.3/../../../../pic32mx/lib/fpu64\libc.a(strchr.o)
 .gnu.attributes
                0x00000640       0x10 d:/program files (x86)/microchip/xc32/v2.30/bin/bin/../../lib/gcc/pic32mx/4.8.3/../../../../pic32mx/lib/fpu64\libc.a(strncmp.o)
 .gnu.attributes
                0x00000650       0x10 d:/program files (x86)/microchip/xc32/v2.30/bin/bin/../../lib/gcc/pic32mx/4.8.3/../../../../pic32mx/lib/fpu64\libc.a(strncpy.o)
 .gnu.attributes
                0x00000660       0x10 d:/program files (x86)/microchip/xc32/v2.30/bin/bin/../../lib/gcc/pic32mx/4.8.3/../../../../pic32mx/lib/fpu64\libc.a(strtol.o)
 .gnu.attributes
                0x00000670       0x10 d:/program files (x86)/microchip/xc32/v2.30/bin/bin/../../lib/gcc/pic32mx/4.8.3/../../../../pic32mx/lib/fpu64\libc.a(sprintf_cdnopuxX.eo)
 .gnu.attributes
                0x00000680       0x10 d:/program files (x86)/microchip/xc32/v2.30/bin/bin/../../lib/gcc/pic32mx/4.8.3/../../../../pic32mx/lib/fpu64\libc.a(sscanf_cdnopuxX.eo)
 .gnu.attributes
                0x00000690       0x10 d:/program files (x86)/microchip/xc32/v2.30/bin/bin/../../lib/gcc/pic32mx/4.8.3/../../../../pic32mx/lib/fpu64\libc.a(vsnprintf.o)
 .gnu.attributes
                0x000006a0       0x10 d:/program files (x86)/microchip/xc32/v2.30/bin/bin/../../lib/gcc/pic32mx/4.8.3/../../../../pic32mx/lib/fpu64\libc.a(errno.o)
 .gnu.attributes
                0x000006b0       0x10 d:/program files (x86)/microchip/xc32/v2.30/bin/bin/../../lib/gcc/pic32mx/4.8.3/../../../../pic32mx/lib/fpu64\libc.a(doprnt_cdnopuxX.eo)
 .gnu.attributes
                0x000006c0       0x10 d:/program files (x86)/microchip/xc32/v2.30/bin/bin/../../lib/gcc/pic32mx/4.8.3/../../../../pic32mx/lib/fpu64\libc.a(doprnt.o)
 .gnu.attributes
                0x000006d0       0x10 d:/program files (x86)/microchip/xc32/v2.30/bin/bin/../../lib/gcc/pic32mx/4.8.3/../../../../pic32mx/lib/fpu64\libc.a(doscan_cdnopuxX.eo)
 .gnu.attributes
                0x000006e0       0x10 d:/program files (x86)/microchip/xc32/v2.30/bin/bin/../../lib/gcc/pic32mx/4.8.3/../../../../pic32mx/lib/fpu64\libc.a(fgetc.o)
 .gnu.attributes
                0x000006f0       0x10 d:/program files (x86)/microchip/xc32/v2.30/bin/bin/../../lib/gcc/pic32mx/4.8.3/../../../../pic32mx/lib/fpu64\libc.a(_fputc_simple.o)
 .gnu.attributes
                0x00000700       0x10 d:/program files (x86)/microchip/xc32/v2.30/bin/bin/../../lib/gcc/pic32mx/4.8.3/../../../../pic32mx/lib/fpu64\libc.a(ldpowers.o)
 .gnu.attributes
                0x00000710       0x10 d:/program files (x86)/microchip/xc32/v2.30/bin/bin/../../lib/gcc/pic32mx/4.8.3/../../../../pic32mx/lib/fpu64\libc.a(ungetc.o)
 .gnu.attributes
                0x00000720       0x10 d:/program files (x86)/microchip/xc32/v2.30/bin/bin/../../lib/gcc/pic32mx/4.8.3/../../../../pic32mx/lib/fpu64\libc.a(_iob.o)
 .gnu.attributes
                0x00000730       0x10 d:/program files (x86)/microchip/xc32/v2.30/bin/bin/../../lib/gcc/pic32mx/4.8.3/../../../../pic32mx/lib/fpu64\libc.a(filbuf.o)
 .gnu.attributes
                0x00000740       0x10 d:/program files (x86)/microchip/xc32/v2.30/bin/bin/../../lib/gcc/pic32mx/4.8.3/../../../../pic32mx/lib/fpu64\libc.a(_flsbuf_simple.o)
 .gnu.attributes
                0x00000750       0x10 d:/program files (x86)/microchip/xc32/v2.30/bin/bin/../../lib/gcc/pic32mx/4.8.3/../../../../pic32mx/lib/fpu64\libc.a(fflush.o)
 .gnu.attributes
                0x00000760       0x10 d:/program files (x86)/microchip/xc32/v2.30/bin/bin/../../lib/gcc/pic32mx/4.8.3/../../../../pic32mx/lib/fpu64\libmfd.a(s_frexp.o)
 .gnu.attributes
                0x00000770       0x10 d:/program files (x86)/microchip/xc32/v2.30/bin/bin/../../lib/gcc/pic32mx/4.8.3/fpu64\libgcc.a(_cmpdi2.o)
 .gnu.attributes
                0x00000780       0x10 d:/program files (x86)/microchip/xc32/v2.30/bin/bin/../../lib/gcc/pic32mx/4.8.3/fpu64\libgcc.a(_umoddi3.o)
 .gnu.attributes
                0x00000790       0x10 d:/program files (x86)/microchip/xc32/v2.30/bin/bin/../../lib/gcc/pic32mx/4.8.3/../../../../pic32mx/lib/fpu64\libpic32.a(sbrk.o)
 .gnu.attributes
                0x000007a0       0x10 d:/program files (x86)/microchip/xc32/v2.30/bin/bin/../../lib/gcc/pic32mx/4.8.3/../../../../pic32mx/lib/fpu64\libpic32.a(read.o)
 .gnu.attributes
                0x000007b0       0x10 d:/program files (x86)/microchip/xc32/v2.30/bin/bin/../../lib/gcc/pic32mx/4.8.3/../../../../pic32mx/lib/fpu64\libpic32.a(write.o)
 .gnu.attributes
                0x000007c0       0x10 d:/program files (x86)/microchip/xc32/v2.30/bin/bin/../../lib/gcc/pic32mx/4.8.3/../../../../pic32mx/lib/fpu64\libpic32.a(xc32_uart.o)
 .gnu.attributes
                0x000007d0       0x10 d:/program files (x86)/microchip/xc32/v2.30/bin/bin/../../lib/gcc/pic32mx/4.8.3/../../../../pic32mx/lib/fpu64\libpic32.a(_mon_putc.o)
                0x9d000000                PROVIDE (__pic32_init_cache_program_base_addr, 0x9d000000)
                0x80000000                PROVIDE (__pic32_init_cache_data_base_addr, 0x80000000)
                0xd0000000                PROVIDE (__pic32_init_sqi_kseg2_virtual_base_addr, 0xd0000000)
                0x30000000                PROVIDE (__pic32_init_sqi_kseg2_physical_base_addr, 0x30000000)
                0x0000001f                PROVIDE (__pic32_init_sqi_kseg2_entrylo0_bitset, 0x1f)
                0xd0000000                __pic32_tlb_0_entryhi = __pic32_init_sqi_kseg2_virtual_base_addr
                0x00c0001f                __pic32_tlb_0_entrylo0 = ((__pic32_init_sqi_kseg2_physical_base_addr >> 0x6) | __pic32_init_sqi_kseg2_entrylo0_bitset)
                0x00c4001f                __pic32_tlb_0_entrylo1 = (__pic32_tlb_0_entrylo0 | ((__pic32_init_sqi_kseg2_physical_base_addr + 0x1000000) >> 0x6))
                0xd2000000                __pic32_tlb_1_entryhi = (__pic32_init_sqi_kseg2_virtual_base_addr + 0x2000000)
                0x00c8001f                __pic32_tlb_1_entrylo0 = (((__pic32_init_sqi_kseg2_physical_base_addr + 0x2000000) >> 0x6) | __pic32_init_sqi_kseg2_entrylo0_bitset)
                0x00cc001f                __pic32_tlb_1_entrylo1 = (__pic32_tlb_1_entrylo0 | 0x40000)
                0xf0000000                PROVIDE (__pic32_init_sqi_kseg3_virtual_base_addr, 0xf0000000)
                0x30000000                PROVIDE (__pic32_init_sqi_kseg3_physical_base_addr, 0x30000000)
                0x00000017                PROVIDE (__pic32_init_sqi_kseg3_entrylo0_bitset, 0x17)
                0xf0000000                __pic32_tlb_2_entryhi = __pic32_init_sqi_kseg3_virtual_base_addr
                0x00c00017                __pic32_tlb_2_entrylo0 = ((__pic32_init_sqi_kseg3_physical_base_addr >> 0x6) | __pic32_init_sqi_kseg3_entrylo0_bitset)
                0x00c40017                __pic32_tlb_2_entrylo1 = (__pic32_tlb_2_entrylo0 | ((__pic32_init_sqi_kseg3_physical_base_addr + 0x1000000) >> 0x6))
                0xf2000000                __pic32_tlb_3_entryhi = (__pic32_init_sqi_kseg3_virtual_base_addr + 0x2000000)
                0x00c80017                __pic32_tlb_3_entrylo0 = (((__pic32_init_sqi_kseg3_physical_base_addr + 0x2000000) >> 0x6) | __pic32_init_sqi_kseg3_entrylo0_bitset)
                0x00cc0017                __pic32_tlb_3_entrylo1 = (__pic32_tlb_3_entrylo0 | 0x40000)
                0xc0000000                PROVIDE (__pic32_init_ebi_kseg2_virtual_base_addr, 0xc0000000)
                0x20000000                PROVIDE (__pic32_init_ebi_kseg2_physical_base_addr, 0x20000000)
                0x0000001f                PROVIDE (__pic32_init_ebi_kseg2_entrylo0_bitset, 0x1f)
                0xc0000000                __pic32_tlb_4_entryhi = __pic32_init_ebi_kseg2_virtual_base_addr
                0x0080001f                __pic32_tlb_4_entrylo0 = ((__pic32_init_ebi_kseg2_physical_base_addr >> 0x6) | __pic32_init_ebi_kseg2_entrylo0_bitset)
                0x0084001f                __pic32_tlb_4_entrylo1 = (__pic32_tlb_4_entrylo0 | ((__pic32_init_ebi_kseg2_physical_base_addr + 0x1000000) >> 0x6))
                0xc2000000                __pic32_tlb_5_entryhi = (__pic32_init_ebi_kseg2_virtual_base_addr + 0x2000000)
                0x0088001f                __pic32_tlb_5_entrylo0 = (((__pic32_init_ebi_kseg2_physical_base_addr + 0x2000000) >> 0x6) | __pic32_init_ebi_kseg2_entrylo0_bitset)
                0x008c001f                __pic32_tlb_5_entrylo1 = (__pic32_tlb_5_entrylo0 | 0x40000)
                0xe0000000                PROVIDE (__pic32_init_ebi_kseg3_virtual_base_addr, 0xe0000000)
                0x20000000                PROVIDE (__pic32_init_ebi_kseg3_physical_base_addr, 0x20000000)
                0x00000017                PROVIDE (__pic32_init_ebi_kseg3_entrylo0_bitset, 0x17)
                0xe0000000                __pic32_tlb_6_entryhi = __pic32_init_ebi_kseg3_virtual_base_addr
                0x00800017                __pic32_tlb_6_entrylo0 = ((__pic32_init_ebi_kseg3_physical_base_addr >> 0x6) | __pic32_init_ebi_kseg3_entrylo0_bitset)
                0x00840017                __pic32_tlb_6_entrylo1 = (__pic32_tlb_6_entrylo0 | ((__pic32_init_ebi_kseg3_physical_base_addr + 0x1000000) >> 0x6))
                0xe2000000                __pic32_tlb_7_entryhi = (__pic32_init_ebi_kseg3_virtual_base_addr + 0x2000000)
                0x00880017                __pic32_tlb_7_entrylo0 = (((__pic32_init_ebi_kseg3_physical_base_addr + 0x2000000) >> 0x6) | __pic32_init_ebi_kseg3_entrylo0_bitset)
                0x008c0017                __pic32_tlb_7_entrylo1 = (__pic32_tlb_7_entrylo0 | 0x40000)

.tlb_init_values
                0xbfc00670       0x60
                0xbfc00670                . = ALIGN (0x4)
                0xbfc00670                __pic32_tlb_init_values_begin = ABSOLUTE (.)
                0xbfc00670        0x4 LONG 0xd0000000 __pic32_tlb_0_entryhi
                0xbfc00674        0x4 LONG 0xc0001f __pic32_tlb_0_entrylo0
                0xbfc00678        0x4 LONG 0xc4001f __pic32_tlb_0_entrylo1
                0xbfc0067c        0x4 LONG 0xd2000000 __pic32_tlb_1_entryhi
                0xbfc00680        0x4 LONG 0xc8001f __pic32_tlb_1_entrylo0
                0xbfc00684        0x4 LONG 0xcc001f __pic32_tlb_1_entrylo1
                0xbfc00688        0x4 LONG 0xf0000000 __pic32_tlb_2_entryhi
                0xbfc0068c        0x4 LONG 0xc00017 __pic32_tlb_2_entrylo0
                0xbfc00690        0x4 LONG 0xc40017 __pic32_tlb_2_entrylo1
                0xbfc00694        0x4 LONG 0xf2000000 __pic32_tlb_3_entryhi
                0xbfc00698        0x4 LONG 0xc80017 __pic32_tlb_3_entrylo0
                0xbfc0069c        0x4 LONG 0xcc0017 __pic32_tlb_3_entrylo1
                0xbfc006a0        0x4 LONG 0xc0000000 __pic32_tlb_4_entryhi
                0xbfc006a4        0x4 LONG 0x80001f __pic32_tlb_4_entrylo0
                0xbfc006a8        0x4 LONG 0x84001f __pic32_tlb_4_entrylo1
                0xbfc006ac        0x4 LONG 0xc2000000 __pic32_tlb_5_entryhi
                0xbfc006b0        0x4 LONG 0x88001f __pic32_tlb_5_entrylo0
                0xbfc006b4        0x4 LONG 0x8c001f __pic32_tlb_5_entrylo1
                0xbfc006b8        0x4 LONG 0xe0000000 __pic32_tlb_6_entryhi
                0xbfc006bc        0x4 LONG 0x800017 __pic32_tlb_6_entrylo0
                0xbfc006c0        0x4 LONG 0x840017 __pic32_tlb_6_entrylo1
                0xbfc006c4        0x4 LONG 0xe2000000 __pic32_tlb_7_entryhi
                0xbfc006c8        0x4 LONG 0x880017 __pic32_tlb_7_entrylo0
                0xbfc006cc        0x4 LONG 0x8c0017 __pic32_tlb_7_entrylo1
                0xbfc006d0                __pic32_tlb_init_values_end = ABSOLUTE (.)
                0x00000008                __pic32_tlb_init_values_count = 0x8
LOAD d:/program files (x86)/microchip/xc32/v2.30/bin/bin/../../lib/gcc/pic32mx/4.8.3/fpu64\libgcc.a
START GROUP
LOAD d:/program files (x86)/microchip/xc32/v2.30/bin/bin/../../lib/gcc/pic32mx/4.8.3/../../../../pic32mx/lib/fpu64\libpic32.a
LOAD d:/program files (x86)/microchip/xc32/v2.30/bin/bin/../../lib/gcc/pic32mx/4.8.3/../../../../pic32mx/lib/fpu64\libdebug.a
LOAD d:/program files (x86)/microchip/xc32/v2.30/bin/bin/../../lib/gcc/pic32mx/4.8.3/../../../../pic32mx/lib/fpu64\libpic32.a
LOAD d:/program files (x86)/microchip/xc32/v2.30/bin/bin/../../lib/gcc/pic32mx/4.8.3/../../../../pic32mx/lib/fpu64\libc.a
LOAD d:/program files (x86)/microchip/xc32/v2.30/bin/bin/../../lib/gcc/pic32mx/4.8.3/../../../../pic32mx/lib/fpu64\libc.a
LOAD d:/program files (x86)/microchip/xc32/v2.30/bin/bin/../../lib/gcc/pic32mx/4.8.3/../../../../pic32mx/lib/fpu64\libmfd.a
LOAD d:/program files (x86)/microchip/xc32/v2.30/bin/bin/../../lib/gcc/pic32mx/4.8.3/../../../../pic32mx/lib/fpu64\libm.a
LOAD d:/program files (x86)/microchip/xc32/v2.30/bin/bin/../../lib/gcc/pic32mx/4.8.3/../../../../pic32mx/lib/fpu64\libe.a
LOAD d:/program files (x86)/microchip/xc32/v2.30/bin/bin/../../lib/gcc/pic32mx/4.8.3/../../../../pic32mx/lib/fpu64\libdspr2.a
LOAD d:/program files (x86)/microchip/xc32/v2.30/bin/bin/../../lib/gcc/pic32mx/4.8.3/../../../../pic32mx/lib/fpu64\libdsp.a
LOAD d:/program files (x86)/microchip/xc32/v2.30/bin/bin/../../lib/gcc/pic32mx/4.8.3/fpu64\libgcc.a
LOAD d:/program files (x86)/microchip/xc32/v2.30/bin/bin/../../lib/gcc/pic32mx/4.8.3/../../../../pic32mx/lib/fpu64\libpic32.a
END GROUP
LOAD d:/program files (x86)/microchip/xc32/v2.30/bin/bin/../../lib/gcc/pic32mx/4.8.3/fpu64\libgcc.a
OUTPUT(dist/default/production/PIC32MZ_HMC_MRF24WG.X.production.elf elf32-tradlittlemips)
LOAD stack
LOAD data_init

.reginfo        0x00000000       0x18
 .reginfo       0x00000000       0x18 d:/program files (x86)/microchip/xc32/v2.30/bin/bin/../../lib/gcc/pic32mx/4.8.3/../../../../pic32mx/lib/fpu64\debug-exception-return.o

.stack          0x8001de30      0x400
 .stack         0x8001de30      0x400 stack

.__vector_offset_BF810540_data
                0xbf810540      0x178
 .__vector_offset_BF810540_data
                0xbf810540      0x178 d:/program files (x86)/microchip/xc32/v2.30/bin/bin/../../lib/gcc/pic32mx/4.8.3/../../../../pic32mx/lib/./proc/32MZ2048EFG100\vector_offset_init.o

.__vector_offset_BF8107A4_data
                0xbf8107a4       0x98
 .__vector_offset_BF8107A4_data
                0xbf8107a4       0x98 d:/program files (x86)/microchip/xc32/v2.30/bin/bin/../../lib/gcc/pic32mx/4.8.3/../../../../pic32mx/lib/./proc/32MZ2048EFG100\vector_offset_init.o

.__vector_offset_BF810740_data
                0xbf810740       0x5c
 .__vector_offset_BF810740_data
                0xbf810740       0x5c d:/program files (x86)/microchip/xc32/v2.30/bin/bin/../../lib/gcc/pic32mx/4.8.3/../../../../pic32mx/lib/./proc/32MZ2048EFG100\vector_offset_init.o

.__vector_offset_BF8106F4_data
                0xbf8106f4       0x40
 .__vector_offset_BF8106F4_data
                0xbf8106f4       0x40 d:/program files (x86)/microchip/xc32/v2.30/bin/bin/../../lib/gcc/pic32mx/4.8.3/../../../../pic32mx/lib/./proc/32MZ2048EFG100\vector_offset_init.o

.__vector_offset_BF810874_data
                0xbf810874       0x18
 .__vector_offset_BF810874_data
                0xbf810874       0x18 d:/program files (x86)/microchip/xc32/v2.30/bin/bin/../../lib/gcc/pic32mx/4.8.3/../../../../pic32mx/lib/./proc/32MZ2048EFG100\vector_offset_init.o

.__vector_offset_BF8106D8_data
                0xbf8106d8       0x14
 .__vector_offset_BF8106D8_data
                0xbf8106d8       0x14 d:/program files (x86)/microchip/xc32/v2.30/bin/bin/../../lib/gcc/pic32mx/4.8.3/../../../../pic32mx/lib/./proc/32MZ2048EFG100\vector_offset_init.o

.__vector_offset_BF810858_data
                0xbf810858       0x14
 .__vector_offset_BF810858_data
                0xbf810858       0x14 d:/program files (x86)/microchip/xc32/v2.30/bin/bin/../../lib/gcc/pic32mx/4.8.3/../../../../pic32mx/lib/./proc/32MZ2048EFG100\vector_offset_init.o

.__vector_offset_BF810840_data
                0xbf810840        0xc
 .__vector_offset_BF810840_data
                0xbf810840        0xc d:/program files (x86)/microchip/xc32/v2.30/bin/bin/../../lib/gcc/pic32mx/4.8.3/../../../../pic32mx/lib/./proc/32MZ2048EFG100\vector_offset_init.o

.__vector_offset_BF810850_data
                0xbf810850        0x4
 .__vector_offset_BF810850_data
                0xbf810850        0x4 d:/program files (x86)/microchip/xc32/v2.30/bin/bin/../../lib/gcc/pic32mx/4.8.3/../../../../pic32mx/lib/./proc/32MZ2048EFG100\vector_offset_init.o

.__vector_offset_BF810894_data
                0xbf810894        0x4
 .__vector_offset_BF810894_data
                0xbf810894        0x4 d:/program files (x86)/microchip/xc32/v2.30/bin/bin/../../lib/gcc/pic32mx/4.8.3/../../../../pic32mx/lib/./proc/32MZ2048EFG100\vector_offset_init.o

.COHERENTBSS$   0xa0000b10      0x480
 .COHERENTBSS$  0xa0000b10      0x400 build/default/production/_ext/1052224704/sys_command.o
 .bss.readBuff.readBuff
                0xa0000f10       0x80 build/default/production/_ext/1052224704/sys_command.o

.bss            0x80000f90    0x10800
 .bss           0x80000f90    0x10000 build/default/production/_ext/508667646/heap_2.o
 .bss           0x80010f90      0x800 build/default/production/_ext/417601773/port.o
                0x80010f90                xISRStack

.bss            0x80011790      0x6c0
 .bss           0x80011790      0x3a8 build/default/production/_ext/110609098/drv_spi.o
 .bss           0x80011b38      0x318 build/default/production/_ext/126554269/tcpip_manager.o

.data           0x80011e50      0x208
 .data          0x80011e50      0x208 build/default/production/_ext/412220316/drv_wifi_debug_output.o
                0x80011e50                wpsConfigErr
                0x80011e90                wpsState
                0x80011ecc                statusCodes
                0x80011f8c                deauthDisssocReasonCodes
                0x80011ff0                connectionLostStrings
                0x80012008                connectionFailureStrings

.bss            0x80012058      0x400
 .bss           0x80012058      0x200 build/default/production/_ext/412220316/drv_wifi_commands.o
 .bss           0x80012258      0x200 build/default/production/_ext/595512524/sys_console_uart.o

.bss            0x80012458      0x200
 .bss           0x80012458      0x128 build/default/production/_ext/1052224704/sys_command.o
 .bss           0x80012580       0xd8 build/default/production/_ext/412220316/drv_wifi_config_data.o

.bss            0x80012658       0xc8
 .bss           0x80012658       0xc8 build/default/production/_ext/1808430591/tasks.o

.data           0x80012720      0x15c
 .data          0x80012720       0xb4 build/default/production/_ext/595512524/sys_console_uart.o
                0x80012720                consUartData
                0x800127b0                consUsartDevDesc
 .data          0x800127d4       0xa8 build/default/production/_ext/412220316/drv_wifi_main.o
                0x800127d4                g_drv_wifi_priv

.bss            0x8001287c       0xa4
 .bss           0x8001287c       0xa4 build/default/production/_ext/412220316/drv_wifi_main.o

.data           0x80012920      0x140
 .data          0x80012920       0xa4 d:/program files (x86)/microchip/xc32/v2.30/bin/bin/../../lib/gcc/pic32mx/4.8.3/../../../../pic32mx/lib/fpu64\libc.a(_iob.o)
                0x80012920                _Files
                0x80012924                _iob
 .data          0x800129c4       0x9c build/default/production/_ext/1688732426/system_init.o
                0x800129c4                tcpipHeapConfig
                0x800129e0                drvSpi0InitData

.bss            0x80012a60       0xf8
 .bss           0x80012a60       0x94 build/default/production/_ext/1108686962/sys_tmr.o
 .bss           0x80012af4       0x64 build/default/production/_ext/412220316/drv_wifi_mac.o

.bss            0x80012b58       0xa8
 .bss           0x80012b58       0x58 build/default/production/_ext/126554269/arp.o
 .bss           0x80012bb0       0x50 build/default/production/_ext/1360937237/wnetcom.o

.bss            0x80012c00       0x84
 .bss           0x80012c00       0x44 d:/program files (x86)/microchip/xc32/v2.30/bin/bin/../../lib/gcc/pic32mx/4.8.3/../../../../pic32mx/lib/fpu64\libc.a(_iob.o)
                0x80012c00                _sobuf
                0x80012c20                _sibuf
                0x80012c40                _outdone
 .bss           0x80012c44       0x40 build/default/production/_ext/494209719/drv_tmr.o

.bss            0x80012c84       0x70
 .bss           0x80012c84       0x3c build/default/production/_ext/412220316/drv_wifi_pbkdf2.o
 .bss           0x80012cc0       0x34 build/default/production/_ext/126554269/tcpip_commands.o

.data           0x80012cf4       0x30
 .data          0x80012cf4       0x30 build/default/production/_ext/110609098/drv_spi.o

.bss            0x80012d24       0x50
 .bss           0x80012d24       0x28 build/default/production/_ext/126554269/ipv4.o
 .bss           0x80012d4c       0x28 build/default/production/_ext/126554269/dns.o

.bss            0x80012d74       0x44
 .bss           0x80012d74       0x24 d:/program files (x86)/microchip/xc32/v2.30/bin/bin/../../lib/gcc/pic32mx/4.8.3/../../../../pic32mx/lib/fpu64\libpic32.a(sbrk.o)
                0x80012d90                _maxbrk
                0x80012d94                _minbrk
 .bss           0x80012d98       0x20 build/default/production/_ext/412220316/drv_wifi_connection_manager.o

.bss            0x80012db8       0x38
 .bss           0x80012db8       0x20 d:/program files (x86)/microchip/xc32/v2.30/bin/bin/../../lib/gcc/pic32mx/4.8.3/../../../../pic32mx/lib/fpu64\libc.a(malloc.o)
                0x80012db8                __allocx
                0x80012dc0                __alloct
                0x80012dc4                __allocp
                0x80012dc8                __allocs
 .bss           0x80012dd8       0x18 build/default/production/_ext/412220316/drv_wifi_softap_client_cache.o

.bss            0x80012df0       0x30
 .bss           0x80012df0       0x18 build/default/production/_ext/595512524/sys_console.o
 .bss           0x80012e08       0x18 build/default/production/_ext/1304044280/sys_random.o

.bss            0x80012e20       0x24
 .bss           0x80012e20       0x14 build/default/production/_ext/126554269/dhcp.o
 .bss           0x80012e34       0x10 build/default/production/_ext/412220316/drv_wifi_events.o

.data           0x80012e44       0x10
 .data          0x80012e44       0x10 build/default/production/_ext/1360937237/wnetcom.o

.bss            0x80012e58       0x1c
 .bss           0x80012e58       0x10 d:/program files (x86)/microchip/xc32/v2.30/bin/bin/../../lib/gcc/pic32mx/4.8.3/../../../../pic32mx/lib/fpu64\libc.a(rand.o)
 .bss           0x80012e68        0xc build/default/production/_ext/412220316/drv_wifi_raw.o

.bss.errno      0x80000b0c        0x4
 .bss.errno     0x80000b0c        0x4 d:/program files (x86)/microchip/xc32/v2.30/bin/bin/../../lib/gcc/pic32mx/4.8.3/../../../../pic32mx/lib/fpu64\libc.a(errno.o)
                0x80000b0c                errno

.bss            0x80012e54        0x4
 .bss           0x80012e54        0x4 d:/program files (x86)/microchip/xc32/v2.30/bin/bin/../../lib/gcc/pic32mx/4.8.3/../../../../pic32mx/lib/fpu64\libc.a(doscan_cdnopuxX.eo)

._debug_exception
                0xbfc00480       0x2c
 ._debug_exception
                0xbfc00480       0x2c d:/program files (x86)/microchip/xc32/v2.30/bin/bin/../../lib/gcc/pic32mx/4.8.3/../../../../pic32mx/lib/fpu64\debug-exception-return.o
                0xbfc00480                __DbgExecReturn

.text.vfprintf  0x9d001cd4     0x2018
 .text.vfprintf
                0x9d001cd4     0x2018 d:/program files (x86)/microchip/xc32/v2.30/bin/bin/../../lib/gcc/pic32mx/4.8.3/../../../../pic32mx/lib/fpu64\libc.a(doprnt.o)
                0x9d001cd4                vfprintf

.rodata         0x9d003cec     0x16ac
 .rodata        0x9d003cec     0x16ac build/default/production/_ext/126554269/tcpip_commands.o

.text.TCPIP_TCP_Task
                0x9d005398     0x14f8
 .text.TCPIP_TCP_Task
                0x9d005398     0x14f8 build/default/production/_ext/126554269/tcp.o
                0x9d005398                TCPIP_TCP_Task

.rodata         0x9d006890     0x13b8
 .rodata        0x9d006890     0x13b8 build/default/production/_ext/412220316/drv_wifi_debug_output.o

.text.SHA1Transform
                0x9d007c48     0x11b4
 .text.SHA1Transform
                0x9d007c48     0x11b4 build/default/production/_ext/412220316/drv_wifi_pbkdf2.o

.dinit          0x9d008dfc      0xde0
 .dinit         0x9d008dfc      0xde0 data_init

.rodata         0x9d009bdc      0xd8c
 .rodata        0x9d009bdc      0xd8c build/default/production/_ext/412220316/drv_wifi_commands.o

.text._vfprintf_cdnopuxX
                0x9d00a968      0xc8c
 .text._vfprintf_cdnopuxX
                0x9d00a968      0xc8c d:/program files (x86)/microchip/xc32/v2.30/bin/bin/../../lib/gcc/pic32mx/4.8.3/../../../../pic32mx/lib/fpu64\libc.a(doprnt_cdnopuxX.eo)
                0x9d00a968                _vfprintf_cdnopuxX

.text.Cmd_Iwconfig
                0x9d00b5f4      0xbe4
 .text.Cmd_Iwconfig
                0x9d00b5f4      0xbe4 build/default/production/_ext/412220316/drv_wifi_commands.o

.text._vfscanf_cdnopuxX
                0x9d00c1d8      0x908
 .text._vfscanf_cdnopuxX
                0x9d00c1d8      0x908 d:/program files (x86)/microchip/xc32/v2.30/bin/bin/../../lib/gcc/pic32mx/4.8.3/../../../../pic32mx/lib/fpu64\libc.a(doscan_cdnopuxX.eo)
                0x9d00c1d8                _vfscanf_cdnopuxX

.text._Command_DNS_Service
                0x9d00cae0      0x8a0
 .text._Command_DNS_Service
                0x9d00cae0      0x8a0 build/default/production/_ext/126554269/tcpip_commands.o

.text.TCPIP_STACK_Task
                0x9d00d380      0x870
 .text.TCPIP_STACK_Task
                0x9d00d380      0x870 build/default/production/_ext/126554269/tcpip_manager.o
                0x9d00d380                TCPIP_STACK_Task

.text._TcpSend  0x9d00dbf0      0x83c
 .text._TcpSend
                0x9d00dbf0      0x83c build/default/production/_ext/126554269/tcp.o

.text.TCPIP_DHCP_Task
                0x9d00e42c      0x80c
 .text.TCPIP_DHCP_Task
                0x9d00e42c      0x80c build/default/production/_ext/126554269/dhcp.o
                0x9d00e42c                TCPIP_DHCP_Task

.text.IwconfigDisplayStatus
                0x9d00ec38      0x76c
 .text.IwconfigDisplayStatus
                0x9d00ec38      0x76c build/default/production/_ext/412220316/drv_wifi_commands.o

.text.OutputDriverConfig
                0x9d00f3a4      0x754
 .text.OutputDriverConfig
                0x9d00f3a4      0x754 build/default/production/_ext/412220316/drv_wifi_debug_output.o
                0x9d00f3a4                OutputDriverConfig

.text.DRV_SPI_ISRMasterEBM8BitTasks
                0x9d00faf8      0x6f0
 .text.DRV_SPI_ISRMasterEBM8BitTasks
                0x9d00faf8      0x6f0 build/default/production/_ext/977502197/drv_spi_tasks.o
                0x9d00faf8                DRV_SPI_ISRMasterEBM8BitTasks

.text           0x9d0101e8      0x6bc
 .text          0x9d0101e8      0x6bc build/default/production/_ext/340578644/sys_devcon_cache_pic32mz.o
                0x9d0101e8                _pic32_init_cache
                0x9d0102ec                _pic32_clean_cache
                0x9d010318                _pic32_clean_dcache
                0x9d010370                _pic32_clean_dcache_nowrite
                0x9d0103c8                _pic32_clean_icache
                0x9d010420                _pic32_flush_cache
                0x9d01044c                _pic32_flush_dcache
                0x9d0104e0                _pic32_flush_icache
                0x9d010574                _pic32_lock_dcache
                0x9d0105cc                _pic32_lock_icache
                0x9d010624                _pic32_sync_icache
                0x9d010660                _pic32_get_dcache_associativity
                0x9d010694                _pic32_get_icache_associativity
                0x9d0106cc                _pic32_get_dcache_linesize
                0x9d010710                _pic32_get_icache_linesize
                0x9d010758                _pic32_get_dcache_lines_per_way
                0x9d010794                _pic32_get_icache_lines_per_way
                0x9d0107d4                _pic32_get_dcache_size
                0x9d01083c                _pic32_get_icache_size

.text.TCPIP_ZCLL_Task
                0x9d0108a4      0x600
 .text.TCPIP_ZCLL_Task
                0x9d0108a4      0x600 build/default/production/_ext/126554269/zero_conf_link_local.o
                0x9d0108a4                TCPIP_ZCLL_Task

.text.DRV_WIFI_DataRxTask
                0x9d010ea4      0x578
 .text.DRV_WIFI_DataRxTask
                0x9d010ea4      0x578 build/default/production/_ext/412220316/drv_wifi_mac.o
                0x9d010ea4                DRV_WIFI_DataRxTask

.text.TCPIP_ARP_Task
                0x9d01141c      0x538
 .text.TCPIP_ARP_Task
                0x9d01141c      0x538 build/default/production/_ext/126554269/arp.o
                0x9d01141c                TCPIP_ARP_Task

.text.SYS_CMD_Tasks
                0x9d011954      0x4f0
 .text.SYS_CMD_Tasks
                0x9d011954      0x4f0 build/default/production/_ext/1052224704/sys_command.o
                0x9d011954                SYS_CMD_Tasks

.text.DRV_WIFI_SystemInit
                0x9d011e44      0x4d8
 .text.DRV_WIFI_SystemInit
                0x9d011e44      0x4d8 build/default/production/_ext/412220316/drv_wifi_init.o
                0x9d011e44                DRV_WIFI_SystemInit

.text.DRV_WIFI_MgmtIndProcess
                0x9d01231c      0x4cc
 .text.DRV_WIFI_MgmtIndProcess
                0x9d01231c      0x4cc build/default/production/_ext/412220316/drv_wifi_event_handler.o
                0x9d01231c                DRV_WIFI_MgmtIndProcess

.text.DRV_WIFI_ConfigDataValidate
                0x9d0127e8      0x480
 .text.DRV_WIFI_ConfigDataValidate
                0x9d0127e8      0x480 build/default/production/_ext/412220316/drv_wifi_debug_output.o
                0x9d0127e8                DRV_WIFI_ConfigDataValidate

.text           0x9d012c68      0x8bc
 .text          0x9d012c68      0x464 d:/program files (x86)/microchip/xc32/v2.30/bin/bin/../../lib/gcc/pic32mx/4.8.3/fpu64\libgcc.a(_umoddi3.o)
                0x9d012c68                __umoddi3
 .text          0x9d0130cc      0x458 d:/program files (x86)/microchip/xc32/v2.30/bin/bin/../../lib/gcc/pic32mx/4.8.3/fpu64\libgcc.a(_udivdi3.o)
                0x9d0130cc                __udivdi3

.text.DRV_WIFI_DataTxTask
                0x9d013524      0x43c
 .text.DRV_WIFI_DataTxTask
                0x9d013524      0x43c build/default/production/_ext/412220316/drv_wifi_mac.o
                0x9d013524                DRV_WIFI_DataTxTask

.text._CommandArp
                0x9d013960      0x434
 .text._CommandArp
                0x9d013960      0x434 build/default/production/_ext/126554269/tcpip_commands.o

.text.WNETCOM_Tasks
                0x9d013d94      0x404
 .text.WNETCOM_Tasks
                0x9d013d94      0x404 build/default/production/_ext/1360937237/wnetcom.o
                0x9d013d94                WNETCOM_Tasks

.text.TCPIP_Helper_StringToIPv6Address
                0x9d014198      0x3e8
 .text.TCPIP_Helper_StringToIPv6Address
                0x9d014198      0x3e8 build/default/production/_ext/126554269/tcpip_helpers.o
                0x9d014198                TCPIP_Helper_StringToIPv6Address

.text._Command_StackOnOff
                0x9d014580      0x3d4
 .text._Command_StackOnOff
                0x9d014580      0x3d4 build/default/production/_ext/126554269/tcpip_commands.o

.text._DNS_Send_Query
                0x9d014954      0x3bc
 .text._DNS_Send_Query
                0x9d014954      0x3bc build/default/production/_ext/126554269/dns.o

.text.TCPIP_UDP_Task
                0x9d014d10      0x3a0
 .text.TCPIP_UDP_Task
                0x9d014d10      0x3a0 build/default/production/_ext/126554269/udp.o
                0x9d014d10                TCPIP_UDP_Task

.text.DRV_SPI_SetupHardware
                0x9d0150b0      0x394
 .text.DRV_SPI_SetupHardware
                0x9d0150b0      0x394 build/default/production/_ext/977502197/drv_spi_api.o
                0x9d0150b0                DRV_SPI_SetupHardware

.text.Console_UART_Tasks
                0x9d015444      0x388
 .text.Console_UART_Tasks
                0x9d015444      0x388 build/default/production/_ext/595512524/sys_console_uart.o
                0x9d015444                Console_UART_Tasks

.text._CommandDhcpOptions
                0x9d0157cc      0x388
 .text._CommandDhcpOptions
                0x9d0157cc      0x388 build/default/production/_ext/126554269/tcpip_commands.o

.text.TCPIP_ARP_Initialize
                0x9d015b54      0x36c
 .text.TCPIP_ARP_Initialize
                0x9d015b54      0x36c build/default/production/_ext/126554269/arp.o
                0x9d015b54                TCPIP_ARP_Initialize

.text._Command_NetInfo
                0x9d015ec0      0x36c
 .text._Command_NetInfo
                0x9d015ec0      0x36c build/default/production/_ext/126554269/tcpip_commands.o

.text.TCPIP_STACK_Initialize
                0x9d01622c      0x354
 .text.TCPIP_STACK_Initialize
                0x9d01622c      0x354 build/default/production/_ext/126554269/tcpip_manager.o
                0x9d01622c                TCPIP_STACK_Initialize

.text.TCPIP_ANNOUNCE_Task
                0x9d016580      0x340
 .text.TCPIP_ANNOUNCE_Task
                0x9d016580      0x340 build/default/production/_ext/126554269/tcpip_announce.o
                0x9d016580                TCPIP_ANNOUNCE_Task

.text.TCPIP_NBNS_Task
                0x9d0168c0      0x330
 .text.TCPIP_NBNS_Task
                0x9d0168c0      0x330 build/default/production/_ext/126554269/nbns.o
                0x9d0168c0                TCPIP_NBNS_Task

.text.TCPIP_UDP_Flush
                0x9d016bf0      0x314
 .text.TCPIP_UDP_Flush
                0x9d016bf0      0x314 build/default/production/_ext/126554269/udp.o
                0x9d016bf0                TCPIP_UDP_Flush

.text.ParseCmdBuffer
                0x9d016f04      0x30c
 .text.ParseCmdBuffer
                0x9d016f04      0x30c build/default/production/_ext/1052224704/sys_command.o

.text.TCPIP_COMMAND_Task
                0x9d017210      0x30c
 .text.TCPIP_COMMAND_Task
                0x9d017210      0x30c build/default/production/_ext/126554269/tcpip_commands.o
                0x9d017210                TCPIP_COMMAND_Task

.text.TCPIP_DNS_ClientInitialize
                0x9d01751c      0x304
 .text.TCPIP_DNS_ClientInitialize
                0x9d01751c      0x304 build/default/production/_ext/126554269/dns.o
                0x9d01751c                TCPIP_DNS_ClientInitialize

.text.SYS_Initialize
                0x9d017820      0x304
 .text.SYS_Initialize
                0x9d017820      0x304 build/default/production/_ext/1688732426/system_init.o
                0x9d017820                SYS_Initialize

.text._TCP_Open
                0x9d017b24      0x2fc
 .text._TCP_Open
                0x9d017b24      0x2fc build/default/production/_ext/126554269/tcp.o

.text.TCPIP_STACK_BringNetUp
                0x9d017e20      0x2f8
 .text.TCPIP_STACK_BringNetUp
                0x9d017e20      0x2f8 build/default/production/_ext/126554269/tcpip_manager.o

.text.DRV_WIFI_ContextLoad
                0x9d018118      0x2ec
 .text.DRV_WIFI_ContextLoad
                0x9d018118      0x2ec build/default/production/_ext/412220316/drv_wifi_context_loader.o
                0x9d018118                DRV_WIFI_ContextLoad

.text._DHCPSend
                0x9d018404      0x2ec
 .text._DHCPSend
                0x9d018404      0x2ec build/default/production/_ext/126554269/dhcp.o

.text._Command_NetworkOnOff
                0x9d0186f0      0x2e8
 .text._Command_NetworkOnOff
                0x9d0186f0      0x2e8 build/default/production/_ext/126554269/tcpip_commands.o

.text.CommandHelp
                0x9d0189d8      0x2dc
 .text.CommandHelp
                0x9d0189d8      0x2dc build/default/production/_ext/1052224704/sys_command.o

.text.TCPIP_IPV4_PacketTransmit
                0x9d018cb4      0x2dc
 .text.TCPIP_IPV4_PacketTransmit
                0x9d018cb4      0x2dc build/default/production/_ext/126554269/ipv4.o
                0x9d018cb4                TCPIP_IPV4_PacketTransmit

.text._DNS_ProcessPacket
                0x9d018f90      0x2dc
 .text._DNS_ProcessPacket
                0x9d018f90      0x2dc build/default/production/_ext/126554269/dns.o

.text.TCPIP_STACK_NetConfigSet
                0x9d01926c      0x2dc
 .text.TCPIP_STACK_NetConfigSet
                0x9d01926c      0x2dc build/default/production/_ext/126554269/tcpip_manager.o
                0x9d01926c                TCPIP_STACK_NetConfigSet

.text.DRV_SPI_Initialize
                0x9d019548      0x2d0
 .text.DRV_SPI_Initialize
                0x9d019548      0x2d0 build/default/production/_ext/110609098/drv_spi.o
                0x9d019548                DRV_SPI_Initialize

.text.OutputConnectionDebugMsg
                0x9d019818      0x2d0
 .text.OutputConnectionDebugMsg
                0x9d019818      0x2d0 build/default/production/_ext/412220316/drv_wifi_debug_output.o
                0x9d019818                OutputConnectionDebugMsg

.text.TCPIP_UDP_OptionsSet
                0x9d019ae8      0x2c8
 .text.TCPIP_UDP_OptionsSet
                0x9d019ae8      0x2c8 build/default/production/_ext/126554269/udp.o
                0x9d019ae8                TCPIP_UDP_OptionsSet

.text.xTaskCreate
                0x9d019db0      0x2c8
 .text.xTaskCreate
                0x9d019db0      0x2c8 build/default/production/_ext/1808430591/tasks.o
                0x9d019db0                xTaskCreate

.rodata         0x9d01a078      0x2b4
 .rodata        0x9d01a078      0x2b4 build/default/production/_ext/412220316/drv_wifi_event_handler.o

.text.DRV_WIFI_ProcessEvent
                0x9d01a32c      0x2b0
 .text.DRV_WIFI_ProcessEvent
                0x9d01a32c      0x2b0 build/default/production/_ext/412220316/drv_wifi_event_handler.o
                0x9d01a32c                DRV_WIFI_ProcessEvent

.text.DRV_USART_BufferAddWrite
                0x9d01a5dc      0x2ac
 .text.DRV_USART_BufferAddWrite
                0x9d01a5dc      0x2ac build/default/production/_ext/115751837/drv_usart_buffer_queue.o
                0x9d01a5dc                DRV_USART_BufferAddWrite

.text.TCPIP_IPV4_PacketFormatTx
                0x9d01a888      0x2a4
 .text.TCPIP_IPV4_PacketFormatTx
                0x9d01a888      0x2a4 build/default/production/_ext/126554269/ipv4.o
                0x9d01a888                TCPIP_IPV4_PacketFormatTx

.text.pbkdf2_sha1
                0x9d01ab2c      0x29c
 .text.pbkdf2_sha1
                0x9d01ab2c      0x29c build/default/production/_ext/412220316/drv_wifi_pbkdf2.o
                0x9d01ab2c                pbkdf2_sha1

.text.TCPIP_IPV4_Task
                0x9d01adc8      0x29c
 .text.TCPIP_IPV4_Task
                0x9d01adc8      0x29c build/default/production/_ext/126554269/ipv4.o
                0x9d01adc8                TCPIP_IPV4_Task

.text.TCPIP_TCP_ArrayPut
                0x9d01b064      0x29c
 .text.TCPIP_TCP_ArrayPut
                0x9d01b064      0x29c build/default/production/_ext/126554269/tcp.o
                0x9d01b064                TCPIP_TCP_ArrayPut

.text.malloc    0x9d01b300      0x28c
 .text.malloc   0x9d01b300      0x28c d:/program files (x86)/microchip/xc32/v2.30/bin/bin/../../lib/gcc/pic32mx/4.8.3/../../../../pic32mx/lib/fpu64\libc.a(malloc.o)
                0x9d01b300                malloc

.text.DRV_USART_BufferAddRead
                0x9d01b58c      0x278
 .text.DRV_USART_BufferAddRead
                0x9d01b58c      0x278 build/default/production/_ext/115751837/drv_usart_buffer_queue.o
                0x9d01b58c                DRV_USART_BufferAddRead

.text._Command_MacInfo
                0x9d01b804      0x278
 .text._Command_MacInfo
                0x9d01b804      0x278 build/default/production/_ext/126554269/tcpip_commands.o

.rodata         0x9d01ba7c      0x264
 .rodata        0x9d01ba7c      0x264 build/default/production/_ext/1052224704/sys_command.o
                0x9d01bcb8                sysConsoleApi

.text.xQueueGenericReceive
                0x9d01bce0      0x264
 .text.xQueueGenericReceive
                0x9d01bce0      0x264 build/default/production/_ext/1808430591/queue.o
                0x9d01bce0                xQueueGenericReceive

.text           0x9d01bf44      0x25c
 .text          0x9d01bf44      0x25c build/default/production/_ext/126554269/tcpip_helper_c32.o
                0x9d01bf44                TCPIP_Helper_htonl
                0x9d01bf50                TCPIP_Helper_htons
                0x9d01bf5c                TCPIP_Helper_htonll
                0x9d01bf70                TCPIP_Helper_CalcIPChecksum

.text._DHCPReceive
                0x9d01c1a0      0x254
 .text._DHCPReceive
                0x9d01c1a0      0x254 build/default/production/_ext/126554269/dhcp.o

.text.TCPIP_DNS_EntryQuery
                0x9d01c3f4      0x23c
 .text.TCPIP_DNS_EntryQuery
                0x9d01c3f4      0x23c build/default/production/_ext/126554269/dns.o
                0x9d01c3f4                TCPIP_DNS_EntryQuery

.text._DHCPOptionHostName
                0x9d01c630      0x234
 .text._DHCPOptionHostName
                0x9d01c630      0x234 build/default/production/_ext/126554269/dhcp.o

.text.SYS_TMR_Tasks
                0x9d01c864      0x224
 .text.SYS_TMR_Tasks
                0x9d01c864      0x224 build/default/production/_ext/1108686962/sys_tmr.o
                0x9d01c864                SYS_TMR_Tasks

.text.DRV_USART_Read
                0x9d01ca88      0x21c
 .text.DRV_USART_Read
                0x9d01ca88      0x21c build/default/production/_ext/115751837/drv_usart_read_write.o
                0x9d01ca88                DRV_USART_Read

.text._DRV_USART_BufferQueueTxTasks
                0x9d01cca4      0x20c
 .text._DRV_USART_BufferQueueTxTasks
                0x9d01cca4      0x20c build/default/production/_ext/115751837/drv_usart.o
                0x9d01cca4                _DRV_USART_BufferQueueTxTasks

.text.xQueueGenericSend
                0x9d01ceb0      0x20c
 .text.xQueueGenericSend
                0x9d01ceb0      0x20c build/default/production/_ext/1808430591/queue.o
                0x9d01ceb0                xQueueGenericSend

.text.DRV_SPI_Open
                0x9d01d0bc      0x1f8
 .text.DRV_SPI_Open
                0x9d01d0bc      0x1f8 build/default/production/_ext/110609098/drv_spi.o
                0x9d01d0bc                DRV_SPI_Open

.text._Command_AddressService
                0x9d01d2b4      0x1f8
 .text._Command_AddressService
                0x9d01d2b4      0x1f8 build/default/production/_ext/126554269/tcpip_commands.o

.rodata         0x9d01d4ac      0x1f4
 .rodata        0x9d01d4ac      0x1f4 build/default/production/_ext/412220316/drv_wifi_mac.o

.text._TCPIP_HEAP_Free
                0x9d01d6a0      0x1f4
 .text._TCPIP_HEAP_Free
                0x9d01d6a0      0x1f4 build/default/production/_ext/126554269/tcpip_heap_internal.o

.text.DRV_WIFI_INT_Handle
                0x9d01d894      0x1f0
 .text.DRV_WIFI_INT_Handle
                0x9d01d894      0x1f0 build/default/production/_ext/412220316/drv_wifi_com.o
                0x9d01d894                DRV_WIFI_INT_Handle

.text._UDPOpen  0x9d01da84      0x1f0
 .text._UDPOpen
                0x9d01da84      0x1f0 build/default/production/_ext/126554269/udp.o

.text._LoadNetworkConfig
                0x9d01dc74      0x1e8
 .text._LoadNetworkConfig
                0x9d01dc74      0x1e8 build/default/production/_ext/126554269/tcpip_manager.o

.text.TCPIP_UDP_Bind
                0x9d01de5c      0x1e4
 .text.TCPIP_UDP_Bind
                0x9d01de5c      0x1e4 build/default/production/_ext/126554269/udp.o
                0x9d01de5c                TCPIP_UDP_Bind

.text.DRV_USART_Initialize
                0x9d01e040      0x1e0
 .text.DRV_USART_Initialize
                0x9d01e040      0x1e0 build/default/production/_ext/115751837/drv_usart.o
                0x9d01e040                DRV_USART_Initialize

.text._Command_IPAddressSet
                0x9d01e220      0x1e0
 .text._Command_IPAddressSet
                0x9d01e220      0x1e0 build/default/production/_ext/126554269/tcpip_commands.o

.text.DRV_SPI_SYS_QUEUE_Initialize
                0x9d01e400      0x1dc
 .text.DRV_SPI_SYS_QUEUE_Initialize
                0x9d01e400      0x1dc build/default/production/_ext/1908449382/drv_spi_sys_queue_fifo.o
                0x9d01e400                DRV_SPI_SYS_QUEUE_Initialize

.text._DNS_IsNameResolved
                0x9d01e5dc      0x1dc
 .text._DNS_IsNameResolved
                0x9d01e5dc      0x1dc build/default/production/_ext/126554269/dns.o

.text._DNS_RESPONSE_HashEntryUpdate
                0x9d01e7b8      0x1d8
 .text._DNS_RESPONSE_HashEntryUpdate
                0x9d01e7b8      0x1d8 build/default/production/_ext/126554269/dns.o

.text.strtoul   0x9d01e990      0x1d4
 .text.strtoul  0x9d01e990      0x1d4 d:/program files (x86)/microchip/xc32/v2.30/bin/bin/../../lib/gcc/pic32mx/4.8.3/../../../../pic32mx/lib/fpu64\libc.a(strtol.o)
                0x9d01e990                strtoul

.text.scale     0x9d01eb64      0x1d4
 .text.scale    0x9d01eb64      0x1d4 d:/program files (x86)/microchip/xc32/v2.30/bin/bin/../../lib/gcc/pic32mx/4.8.3/../../../../pic32mx/lib/fpu64\libc.a(doprnt.o)

.text.TCPIP_DNS_ClientTask
                0x9d01ed38      0x1d0
 .text.TCPIP_DNS_ClientTask
                0x9d01ed38      0x1d0 build/default/production/_ext/126554269/dns.o
                0x9d01ed38                TCPIP_DNS_ClientTask

.text._DRV_USART_HardwareSetup
                0x9d01ef08      0x1cc
 .text._DRV_USART_HardwareSetup
                0x9d01ef08      0x1cc build/default/production/_ext/115751837/drv_usart.o
                0x9d01ef08                _DRV_USART_HardwareSetup

.text._UDPv4TxAckFnc
                0x9d01f0d4      0x1cc
 .text._UDPv4TxAckFnc
                0x9d01f0d4      0x1cc build/default/production/_ext/126554269/udp.o

.text.TCPIP_Helper_StringToIPAddress
                0x9d01f2a0      0x1cc
 .text.TCPIP_Helper_StringToIPAddress
                0x9d01f2a0      0x1cc build/default/production/_ext/126554269/tcpip_helpers.o
                0x9d01f2a0                TCPIP_Helper_StringToIPAddress

.text.TCPIP_ARP_EntryRemoveNet
                0x9d01f46c      0x1c8
 .text.TCPIP_ARP_EntryRemoveNet
                0x9d01f46c      0x1c8 build/default/production/_ext/126554269/arp.o
                0x9d01f46c                TCPIP_ARP_EntryRemoveNet

.text.SYS_PORTS_Initialize
                0x9d01f634      0x1c8
 .text.SYS_PORTS_Initialize
                0x9d01f634      0x1c8 build/default/production/_ext/822048611/sys_ports_static.o
                0x9d01f634                SYS_PORTS_Initialize

.text.TCPIP_UDP_OptionsGet
                0x9d01f7fc      0x1c4
 .text.TCPIP_UDP_OptionsGet
                0x9d01f7fc      0x1c4 build/default/production/_ext/126554269/udp.o
                0x9d01f7fc                TCPIP_UDP_OptionsGet

.text.DRV_SPI_BufferAddRead2
                0x9d01f9c0      0x1c0
 .text.DRV_SPI_BufferAddRead2
                0x9d01f9c0      0x1c0 build/default/production/_ext/110609098/drv_spi.o
                0x9d01f9c0                DRV_SPI_BufferAddRead2

.text.DRV_SPI_BufferAddWrite2
                0x9d01fb80      0x1c0
 .text.DRV_SPI_BufferAddWrite2
                0x9d01fb80      0x1c0 build/default/production/_ext/110609098/drv_spi.o
                0x9d01fb80                DRV_SPI_BufferAddWrite2

.rodata         0x9d01fd40      0x378
 .rodata        0x9d01fd40      0x1c0 build/default/production/_ext/1688732426/system_init.o
                0x9d01fd40                TCPIP_STACK_MODULE_CONFIG_TBL
                0x9d01fdf8                TCPIP_HOSTS_CONFIGURATION
                0x9d01fe30                tcpipDNSClientInitData
                0x9d01fe48                tcpipZCLLInitData
                0x9d01fe48                macMRF24WConfigData
                0x9d01fe48                tcpipICMPInitData
                0x9d01fe48                tcpipNBNSInitData
                0x9d01fe48                tcpipDHCPInitData
                0x9d01fe58                tcpipTCPInitData
                0x9d01fe60                tcpipUDPInitData
                0x9d01fe68                tcpipAnnounceInitData
                0x9d01fe68                tcpipARPInitData
                0x9d01fe90                sysTmrInitData
                0x9d01fe98                sysDmaInit
                0x9d01fe9c                drvUsart0InitData
                0x9d01fee4                drvTmr0InitData
 .rodata        0x9d01ff00      0x1b8 build/default/production/_ext/1360937237/wnetcom.o

.text.hmac_sha1_vector
                0x9d0200b8      0x1b0
 .text.hmac_sha1_vector
                0x9d0200b8      0x1b0 build/default/production/_ext/412220316/drv_wifi_pbkdf2.o
                0x9d0200b8                hmac_sha1_vector

.text._DNS_Resolve
                0x9d020268      0x1b0
 .text._DNS_Resolve
                0x9d020268      0x1b0 build/default/production/_ext/126554269/dns.o

.text.sha1_vector
                0x9d020418      0x1ac
 .text.sha1_vector
                0x9d020418      0x1ac build/default/production/_ext/412220316/drv_wifi_pbkdf2.o
                0x9d020418                sha1_vector

.text.TCPIP_UDP_ArrayGet
                0x9d0205c4      0x1ac
 .text.TCPIP_UDP_ArrayGet
                0x9d0205c4      0x1ac build/default/production/_ext/126554269/udp.o
                0x9d0205c4                TCPIP_UDP_ArrayGet

.text.TCPIP_TCP_Initialize
                0x9d020770      0x1a8
 .text.TCPIP_TCP_Initialize
                0x9d020770      0x1a8 build/default/production/_ext/126554269/tcp.o
                0x9d020770                TCPIP_TCP_Initialize

.text._DNS_GetAddresses
                0x9d020918      0x1a4
 .text._DNS_GetAddresses
                0x9d020918      0x1a4 build/default/production/_ext/126554269/dns.o

.text.DRV_TMR_Initialize
                0x9d020abc      0x1a0
 .text.DRV_TMR_Initialize
                0x9d020abc      0x1a0 build/default/production/_ext/494209719/drv_tmr.o
                0x9d020abc                DRV_TMR_Initialize

.text           0x9d020c5c      0x1a0
 .text          0x9d020c5c      0x1a0 d:/program files (x86)/microchip/xc32/v2.30/bin/bin/../../lib/gcc/pic32mx/4.8.3/../../../../pic32mx/lib/fpu64\libpic32.a(strcpy.o)
                0x9d020c5c                strcpy

.text.ResetModule
                0x9d020dfc      0x19c
 .text.ResetModule
                0x9d020dfc      0x19c build/default/production/_ext/412220316/drv_wifi_com.o
                0x9d020dfc                ResetModule

.text.strtol    0x9d020f98      0x19c
 .text.strtol   0x9d020f98      0x19c d:/program files (x86)/microchip/xc32/v2.30/bin/bin/../../lib/gcc/pic32mx/4.8.3/../../../../pic32mx/lib/fpu64\libc.a(strtol.o)
                0x9d020f98                strtol

.text.MRF24W_MACMulticastFilterSet
                0x9d021134      0x198
 .text.MRF24W_MACMulticastFilterSet
                0x9d021134      0x198 build/default/production/_ext/412220316/drv_wifi_main.o
                0x9d021134                MRF24W_MACMulticastFilterSet

.text._TcpCloseSocket
                0x9d0212cc      0x198
 .text._TcpCloseSocket
                0x9d0212cc      0x198 build/default/production/_ext/126554269/tcp.o

.text._ARPProbeAddress
                0x9d021464      0x198
 .text._ARPProbeAddress
                0x9d021464      0x198 build/default/production/_ext/126554269/arp.o

.text._sbrk_init
                0x9d0215fc      0x194
 .text._sbrk_init
                0x9d0215fc      0x194 d:/program files (x86)/microchip/xc32/v2.30/bin/bin/../../lib/gcc/pic32mx/4.8.3/../../../../pic32mx/lib/fpu64\libpic32.a(sbrk.o)
                0x9d0215fc                _sbrk_init

.text.TCPIP_TCP_ArrayGet
                0x9d021790      0x18c
 .text.TCPIP_TCP_ArrayGet
                0x9d021790      0x18c build/default/production/_ext/126554269/tcp.o
                0x9d021790                TCPIP_TCP_ArrayGet

.text.TCPIP_DHCP_Initialize
                0x9d02191c      0x18c
 .text.TCPIP_DHCP_Initialize
                0x9d02191c      0x18c build/default/production/_ext/126554269/dhcp.o
                0x9d02191c                TCPIP_DHCP_Initialize

.text.TCPIP_HEAP_CreateInternal
                0x9d021aa8      0x188
 .text.TCPIP_HEAP_CreateInternal
                0x9d021aa8      0x188 build/default/production/_ext/126554269/tcpip_heap_internal.o
                0x9d021aa8                TCPIP_HEAP_CreateInternal

.text._filbuf   0x9d021c30      0x188
 .text._filbuf  0x9d021c30      0x188 d:/program files (x86)/microchip/xc32/v2.30/bin/bin/../../lib/gcc/pic32mx/4.8.3/../../../../pic32mx/lib/fpu64\libc.a(filbuf.o)
                0x9d021c30                _filbuf

.text.DRV_USART_Open
                0x9d021db8      0x180
 .text.DRV_USART_Open
                0x9d021db8      0x180 build/default/production/_ext/115751837/drv_usart.o
                0x9d021db8                DRV_USART_Open

.text._ZeroconfARPPktNotify
                0x9d021f38      0x178
 .text._ZeroconfARPPktNotify
                0x9d021f38      0x178 build/default/production/_ext/126554269/zero_conf_link_local.o

.text._DRV_USART_BufferQueueRxTasks
                0x9d0220b0      0x170
 .text._DRV_USART_BufferQueueRxTasks
                0x9d0220b0      0x170 build/default/production/_ext/115751837/drv_usart.o
                0x9d0220b0                _DRV_USART_BufferQueueRxTasks

.text.SYS_DMA_ChannelSetup
                0x9d022220      0x16c
 .text.SYS_DMA_ChannelSetup
                0x9d022220      0x16c build/default/production/_ext/1855423469/sys_dma.o
                0x9d022220                SYS_DMA_ChannelSetup

.text._Tcpv4TxAckFnc
                0x9d02238c      0x16c
 .text._Tcpv4TxAckFnc
                0x9d02238c      0x16c build/default/production/_ext/126554269/tcp.o

.text._DHCPProcessReceiveData
                0x9d0224f8      0x16c
 .text._DHCPProcessReceiveData
                0x9d0224f8      0x16c build/default/production/_ext/126554269/dhcp.o

.text._Command_HeapInfo
                0x9d022664      0x16c
 .text._Command_HeapInfo
                0x9d022664      0x16c build/default/production/_ext/126554269/tcpip_commands.o

.text.TCPIP_UDP_Deinitialize
                0x9d0227d0      0x168
 .text.TCPIP_UDP_Deinitialize
                0x9d0227d0      0x168 build/default/production/_ext/126554269/udp.o
                0x9d0227d0                TCPIP_UDP_Deinitialize

.text           0x9d022938      0x2d0
 .text          0x9d022938      0x168 d:/program files (x86)/microchip/xc32/v2.30/bin/bin/../../lib/gcc/pic32mx/4.8.3/../../../../pic32mx/lib/fpu64\libpic32.a(memcpy.o)
                0x9d022938                memcpy
 .text          0x9d022aa0      0x168 d:/program files (x86)/microchip/xc32/v2.30/bin/bin/../../lib/gcc/pic32mx/4.8.3/../../../../pic32mx/lib/fpu64\libpic32.a(strlen.o)
                0x9d022aa0                strlen

.text.WriteAnalogRegisterBitBang
                0x9d022c08      0x164
 .text.WriteAnalogRegisterBitBang
                0x9d022c08      0x164 build/default/production/_ext/412220316/drv_wifi_com.o

.text.xTaskIncrementTick
                0x9d022d6c      0x164
 .text.xTaskIncrementTick
                0x9d022d6c      0x164 build/default/production/_ext/1808430591/tasks.o
                0x9d022d6c                xTaskIncrementTick

.text.TCPIP_IPV4_SelectSourceInterface
                0x9d022ed0      0x160
 .text.TCPIP_IPV4_SelectSourceInterface
                0x9d022ed0      0x160 build/default/production/_ext/126554269/ipv4.o
                0x9d022ed0                TCPIP_IPV4_SelectSourceInterface

.text._DHCPStartOperation
                0x9d023030      0x160
 .text._DHCPStartOperation
                0x9d023030      0x160 build/default/production/_ext/126554269/dhcp.o

.rodata         0x9d023190      0x160
 .rodata        0x9d023190      0x160 d:/program files (x86)/microchip/xc32/v2.30/bin/bin/../../lib/gcc/pic32mx/4.8.3/../../../../pic32mx/lib/fpu64\libc.a(ldpowers.o)
                0x9d023190                _npowers_
                0x9d023240                _powers_

.text.SYS_DMA_ChannelTransferAdd
                0x9d0232f0      0x15c
 .text.SYS_DMA_ChannelTransferAdd
                0x9d0232f0      0x15c build/default/production/_ext/1855423469/sys_dma.o
                0x9d0232f0                SYS_DMA_ChannelTransferAdd

.text._ARPSendIfPkt
                0x9d02344c      0x15c
 .text._ARPSendIfPkt
                0x9d02344c      0x15c build/default/production/_ext/126554269/arp.o

.text.read      0x9d0235a8      0x158
 .text.read     0x9d0235a8      0x158 d:/program files (x86)/microchip/xc32/v2.30/bin/bin/../../lib/gcc/pic32mx/4.8.3/../../../../pic32mx/lib/fpu64\libpic32.a(read.o)
                0x9d0235a8                read

.text.OutputConnectionContext
                0x9d023700      0x154
 .text.OutputConnectionContext
                0x9d023700      0x154 build/default/production/_ext/412220316/drv_wifi_debug_output.o
                0x9d023700                OutputConnectionContext

.text._SYS_TMR_AlarmCallback
                0x9d023854      0x154
 .text._SYS_TMR_AlarmCallback
                0x9d023854      0x154 build/default/production/_ext/1108686962/sys_tmr.o

.text.pvPortMalloc
                0x9d0239a8      0x154
 .text.pvPortMalloc
                0x9d0239a8      0x154 build/default/production/_ext/508667646/heap_2.o
                0x9d0239a8                pvPortMalloc

.text.DRV_WIFI_ConfigDataLoad
                0x9d023afc      0x150
 .text.DRV_WIFI_ConfigDataLoad
                0x9d023afc      0x150 build/default/production/_ext/412220316/drv_wifi_config_data.o
                0x9d023afc                DRV_WIFI_ConfigDataLoad

.text.TCPIP_Helper_IPv6AddressToString
                0x9d023c4c      0x150
 .text.TCPIP_Helper_IPv6AddressToString
                0x9d023c4c      0x150 build/default/production/_ext/126554269/tcpip_helpers.o
                0x9d023c4c                TCPIP_Helper_IPv6AddressToString

.text.DRV_SPI_SetupDMA
                0x9d023d9c      0x150
 .text.DRV_SPI_SetupDMA
                0x9d023d9c      0x150 build/default/production/_ext/977502197/drv_spi_tasks.o
                0x9d023d9c                DRV_SPI_SetupDMA

.text._TcpDisconnect
                0x9d023eec      0x14c
 .text._TcpDisconnect
                0x9d023eec      0x14c build/default/production/_ext/126554269/tcp.o

.text.MRF24W_MACTasks
                0x9d024038      0x148
 .text.MRF24W_MACTasks
                0x9d024038      0x148 build/default/production/_ext/412220316/drv_wifi_main.o

.text._SYS_TMR_ClientCreate
                0x9d024180      0x148
 .text._SYS_TMR_ClientCreate
                0x9d024180      0x148 build/default/production/_ext/1108686962/sys_tmr.o

.text.TCPIP_UDP_OpenServerSkt
                0x9d0242c8      0x148
 .text.TCPIP_UDP_OpenServerSkt
                0x9d0242c8      0x148 build/default/production/_ext/126554269/udp.o
                0x9d0242c8                TCPIP_UDP_OpenServerSkt

.text.xTaskResumeAll
                0x9d024410      0x148
 .text.xTaskResumeAll
                0x9d024410      0x148 build/default/production/_ext/1808430591/tasks.o
                0x9d024410                xTaskResumeAll

.text.fputc     0x9d024558      0x144
 .text.fputc    0x9d024558      0x144 d:/program files (x86)/microchip/xc32/v2.30/bin/bin/../../lib/gcc/pic32mx/4.8.3/../../../../pic32mx/lib/fpu64\libc.a(_fputc_simple.o)
                0x9d024558                fputc

.text.DisplayNodeMsg
                0x9d02469c      0x140
 .text.DisplayNodeMsg
                0x9d02469c      0x140 build/default/production/_ext/1052224704/sys_command.o

.text.TCPIP_UDP_Initialize
                0x9d0247dc      0x140
 .text.TCPIP_UDP_Initialize
                0x9d0247dc      0x140 build/default/production/_ext/126554269/udp.o
                0x9d0247dc                TCPIP_UDP_Initialize

.text._TCPIP_HEAP_Malloc
                0x9d02491c      0x140
 .text._TCPIP_HEAP_Malloc
                0x9d02491c      0x140 build/default/production/_ext/126554269/tcpip_heap_internal.o

.text.TCPIP_ICMP_Task
                0x9d024a5c      0x138
 .text.TCPIP_ICMP_Task
                0x9d024a5c      0x138 build/default/production/_ext/126554269/icmp.o
                0x9d024a5c                TCPIP_ICMP_Task

.text.TCPIP_ANNOUNCE_Initialize
                0x9d024b94      0x134
 .text.TCPIP_ANNOUNCE_Initialize
                0x9d024b94      0x134 build/default/production/_ext/126554269/tcpip_announce.o
                0x9d024b94                TCPIP_ANNOUNCE_Initialize

.text._Command_GatewayAddressSet
                0x9d024cc8      0x134
 .text._Command_GatewayAddressSet
                0x9d024cc8      0x134 build/default/production/_ext/126554269/tcpip_commands.o

.text._ARPDeleteResources
                0x9d024dfc      0x130
 .text._ARPDeleteResources
                0x9d024dfc      0x130 build/default/production/_ext/126554269/arp.o

.text._Command_MACAddressSet
                0x9d024f2c      0x130
 .text._Command_MACAddressSet
                0x9d024f2c      0x130 build/default/production/_ext/126554269/tcpip_commands.o

.text.DRV_TMR_AlarmRegister
                0x9d02505c      0x12c
 .text.DRV_TMR_AlarmRegister
                0x9d02505c      0x12c build/default/production/_ext/494209719/drv_tmr.o
                0x9d02505c                DRV_TMR_AlarmRegister

.text._flsbuf   0x9d025188      0x12c
 .text._flsbuf  0x9d025188      0x12c d:/program files (x86)/microchip/xc32/v2.30/bin/bin/../../lib/gcc/pic32mx/4.8.3/../../../../pic32mx/lib/fpu64\libc.a(_flsbuf_simple.o)
                0x9d025188                _flsbuf

.text.DRV_WIFI_MulticastFilterSet
                0x9d0252b4      0x128
 .text.DRV_WIFI_MulticastFilterSet
                0x9d0252b4      0x128 build/default/production/_ext/412220316/drv_wifi_param_msg.o
                0x9d0252b4                DRV_WIFI_MulticastFilterSet

.text.TCPIP_IPV4_ArpHandler
                0x9d0253dc      0x128
 .text.TCPIP_IPV4_ArpHandler
                0x9d0253dc      0x128 build/default/production/_ext/126554269/ipv4.o

.text.vTaskPriorityInherit
                0x9d025504      0x128
 .text.vTaskPriorityInherit
                0x9d025504      0x128 build/default/production/_ext/1808430591/tasks.o
                0x9d025504                vTaskPriorityInherit

.rodata         0x9d02562c      0x128
 .rodata        0x9d02562c      0x128 build/default/production/_ext/1688732426/system_exceptions.o

.text.fround    0x9d025754      0x128
 .text.fround   0x9d025754      0x128 d:/program files (x86)/microchip/xc32/v2.30/bin/bin/../../lib/gcc/pic32mx/4.8.3/../../../../pic32mx/lib/fpu64\libc.a(doprnt.o)

.text._OAHashFindBkt
                0x9d02587c      0x124
 .text._OAHashFindBkt
                0x9d02587c      0x124 build/default/production/_ext/126554269/oahash.o

.text.TCPIP_Helper_StringToMACAddress
                0x9d0259a0      0x124
 .text.TCPIP_Helper_StringToMACAddress
                0x9d0259a0      0x124 build/default/production/_ext/126554269/tcpip_helpers.o
                0x9d0259a0                TCPIP_Helper_StringToMACAddress

.text.vTaskDelete
                0x9d025ac4      0x124
 .text.vTaskDelete
                0x9d025ac4      0x124 build/default/production/_ext/1808430591/tasks.o
                0x9d025ac4                vTaskDelete

.text.DRV_USART_BaudSet
                0x9d025be8      0x120
 .text.DRV_USART_BaudSet
                0x9d025be8      0x120 build/default/production/_ext/115751837/drv_usart.o
                0x9d025be8                DRV_USART_BaudSet

.rodata         0x9d025d08      0x120
 .rodata        0x9d025d08      0x120 build/default/production/_ext/412220316/drv_wifi_main.o
                0x9d025dd0                DRV_MRF24W_MACObject

.text.SHA1Update
                0x9d025e28      0x120
 .text.SHA1Update
                0x9d025e28      0x120 build/default/production/_ext/412220316/drv_wifi_pbkdf2.o

.text.TCPIP_Helper_PacketCopy
                0x9d025f48      0x120
 .text.TCPIP_Helper_PacketCopy
                0x9d025f48      0x120 build/default/production/_ext/126554269/tcpip_helpers.o
                0x9d025f48                TCPIP_Helper_PacketCopy

.text           0x9d026068      0x120
 .text          0x9d026068      0x120 d:/program files (x86)/microchip/xc32/v2.30/bin/bin/../../lib/gcc/pic32mx/4.8.3/../../../../pic32mx/lib/fpu64\libpic32.a(strcmp.o)
                0x9d026068                strcmp

.text._GetMaxSegSizeOption
                0x9d026188      0x11c
 .text._GetMaxSegSizeOption
                0x9d026188      0x11c build/default/production/_ext/126554269/tcp.o

.text.TCPIP_UDP_RemoteBind
                0x9d0262a4      0x11c
 .text.TCPIP_UDP_RemoteBind
                0x9d0262a4      0x11c build/default/production/_ext/126554269/udp.o
                0x9d0262a4                TCPIP_UDP_RemoteBind

.text.TCPIP_ARP_IsResolved
                0x9d0263c0      0x11c
 .text.TCPIP_ARP_IsResolved
                0x9d0263c0      0x11c build/default/production/_ext/126554269/arp.o
                0x9d0263c0                TCPIP_ARP_IsResolved

.rodata         0x9d0264dc      0x11c
 .rodata        0x9d0264dc      0x11c build/default/production/_ext/126554269/tcpip_manager.o

.text.DRV_WIFI_RxTaskInit
                0x9d0265f8      0x118
 .text.DRV_WIFI_RxTaskInit
                0x9d0265f8      0x118 build/default/production/_ext/412220316/drv_wifi_mac.o
                0x9d0265f8                DRV_WIFI_RxTaskInit

.text._DHCPSetLeaseTimeParams
                0x9d026710      0x118
 .text._DHCPSetLeaseTimeParams
                0x9d026710      0x118 build/default/production/_ext/126554269/dhcp.o

.text._Command_PrimaryDNSAddressSet
                0x9d026828      0x114
 .text._Command_PrimaryDNSAddressSet
                0x9d026828      0x114 build/default/production/_ext/126554269/tcpip_commands.o

.text.TCPIP_Helper_PacketChecksum
                0x9d02693c      0x114
 .text.TCPIP_Helper_PacketChecksum
                0x9d02693c      0x114 build/default/production/_ext/126554269/tcpip_helpers.o
                0x9d02693c                TCPIP_Helper_PacketChecksum

.text.DRV_SPI_ISRErrorTasks
                0x9d026a50      0x110
 .text.DRV_SPI_ISRErrorTasks
                0x9d026a50      0x110 build/default/production/_ext/110609098/drv_spi.o
                0x9d026a50                DRV_SPI_ISRErrorTasks

.text.TCPIP_ARP_EntryQuery
                0x9d026b60      0x110
 .text.TCPIP_ARP_EntryQuery
                0x9d026b60      0x110 build/default/production/_ext/126554269/arp.o
                0x9d026b60                TCPIP_ARP_EntryQuery

.text.TCPIP_STACK_KillStack
                0x9d026c70      0x110
 .text.TCPIP_STACK_KillStack
                0x9d026c70      0x110 build/default/production/_ext/126554269/tcpip_manager.o

.text.DRV_SPI_MasterEBMSend8BitISR
                0x9d026d80      0x110
 .text.DRV_SPI_MasterEBMSend8BitISR
                0x9d026d80      0x110 build/default/production/_ext/977502197/drv_spi_master_ebm_tasks.o
                0x9d026d80                DRV_SPI_MasterEBMSend8BitISR

.text.SYS_CLK_Initialize
                0x9d026e90      0x110
 .text.SYS_CLK_Initialize
                0x9d026e90      0x110 build/default/production/_ext/639803181/sys_clk.o
                0x9d026e90                SYS_CLK_Initialize

.text.MRF24W_MACInitialize
                0x9d026fa0      0x10c
 .text.MRF24W_MACInitialize
                0x9d026fa0      0x10c build/default/production/_ext/412220316/drv_wifi_main.o

.text.WaitForMgmtResponseAndReadData
                0x9d0270ac      0x10c
 .text.WaitForMgmtResponseAndReadData
                0x9d0270ac      0x10c build/default/production/_ext/412220316/drv_wifi_mgmt_msg.o
                0x9d0270ac                WaitForMgmtResponseAndReadData

.text.SYS_CMD_ADDGRP
                0x9d0271b8      0x10c
 .text.SYS_CMD_ADDGRP
                0x9d0271b8      0x10c build/default/production/_ext/1052224704/sys_command.o
                0x9d0271b8                SYS_CMD_ADDGRP

.text.TCPIP_TCP_Deinitialize
                0x9d0272c4      0x10c
 .text.TCPIP_TCP_Deinitialize
                0x9d0272c4      0x10c build/default/production/_ext/126554269/tcp.o
                0x9d0272c4                TCPIP_TCP_Deinitialize

.text.TCPIP_DHCP_InfoGet
                0x9d0273d0      0x10c
 .text.TCPIP_DHCP_InfoGet
                0x9d0273d0      0x10c build/default/production/_ext/126554269/dhcp.o
                0x9d0273d0                TCPIP_DHCP_InfoGet

.text._TCPIPStackModuleRxPurge
                0x9d0274dc      0x10c
 .text._TCPIPStackModuleRxPurge
                0x9d0274dc      0x10c build/default/production/_ext/126554269/tcpip_manager.o
                0x9d0274dc                _TCPIPStackModuleRxPurge

.text._UDPv4AllocateSktTxBuffer
                0x9d0275e8      0x108
 .text._UDPv4AllocateSktTxBuffer
                0x9d0275e8      0x108 build/default/production/_ext/126554269/udp.o

.text._DHCPClose
                0x9d0276f0      0x108
 .text._DHCPClose
                0x9d0276f0      0x108 build/default/production/_ext/126554269/dhcp.o

.rodata         0x9d0277f8      0x108
 .rodata        0x9d0277f8      0x108 d:/program files (x86)/microchip/xc32/v2.30/bin/bin/../../lib/gcc/pic32mx/4.8.3/../../../../pic32mx/lib/fpu64\libc.a(doprnt.o)

.text.DRV_SPI_SYS_QUEUE_CreateQueue
                0x9d027900      0x104
 .text.DRV_SPI_SYS_QUEUE_CreateQueue
                0x9d027900      0x104 build/default/production/_ext/1908449382/drv_spi_sys_queue_fifo.o
                0x9d027900                DRV_SPI_SYS_QUEUE_CreateQueue

.text.DRV_WIFI_KeyDerive
                0x9d027a04      0x104
 .text.DRV_WIFI_KeyDerive
                0x9d027a04      0x104 build/default/production/_ext/412220316/drv_wifi_connection_manager.o
                0x9d027a04                DRV_WIFI_KeyDerive

.text.MRF24W_TxPacketSend
                0x9d027b08      0x104
 .text.MRF24W_TxPacketSend
                0x9d027b08      0x104 build/default/production/_ext/412220316/drv_wifi_mac.o
                0x9d027b08                MRF24W_TxPacketSend

.text._TcpSocketSetIdleState
                0x9d027c0c      0x104
 .text._TcpSocketSetIdleState
                0x9d027c0c      0x104 build/default/production/_ext/126554269/tcp.o

.text.TCPIP_STACK_NetConfigGet
                0x9d027d10      0x104
 .text.TCPIP_STACK_NetConfigGet
                0x9d027d10      0x104 build/default/production/_ext/126554269/tcpip_manager.o
                0x9d027d10                TCPIP_STACK_NetConfigGet

.text           0x9d027e14      0x104
 .text          0x9d027e14      0x104 build/default/production/_ext/417601773/port_asm.o
                0x9d027e14                vPortStartFirstTask

.text.SYS_DEVCON_PerformanceConfig
                0x9d027f18      0x104
 .text.SYS_DEVCON_PerformanceConfig
                0x9d027f18      0x104 build/default/production/_ext/340578644/sys_devcon_pic32mz.o
                0x9d027f18                SYS_DEVCON_PerformanceConfig

.rodata         0x9d02801c      0x104
 .rodata        0x9d02801c      0x104 d:/program files (x86)/microchip/xc32/v2.30/bin/bin/../../lib/gcc/pic32mx/4.8.3/../../../../pic32mx/lib/fpu64\libc.a(ctype.o)
                0x9d02801c                _ctype

.text.fgetc     0x9d028120      0x104
 .text.fgetc    0x9d028120      0x104 d:/program files (x86)/microchip/xc32/v2.30/bin/bin/../../lib/gcc/pic32mx/4.8.3/../../../../pic32mx/lib/fpu64\libc.a(fgetc.o)
                0x9d028120                fgetc

.text._DNS_ValidateIf
                0x9d028224      0x100
 .text._DNS_ValidateIf
                0x9d028224      0x100 build/default/production/_ext/126554269/dns.o

.text.TCPIP_TCP_ServerOpen
                0x9d028324       0xfc
 .text.TCPIP_TCP_ServerOpen
                0x9d028324       0xfc build/default/production/_ext/126554269/tcp.o
                0x9d028324                TCPIP_TCP_ServerOpen

.text.prvUnlockQueue
                0x9d028420       0xfc
 .text.prvUnlockQueue
                0x9d028420       0xfc build/default/production/_ext/1808430591/queue.o

.text.DRV_WIFI_AllTasksCreate
                0x9d02851c       0xf8
 .text.DRV_WIFI_AllTasksCreate
                0x9d02851c       0xf8 build/default/production/_ext/412220316/drv_wifi_rtos_wrapper.o
                0x9d02851c                DRV_WIFI_AllTasksCreate

.text.Console_UART_Write
                0x9d028614       0xf8
 .text.Console_UART_Write
                0x9d028614       0xf8 build/default/production/_ext/595512524/sys_console_uart.o
                0x9d028614                Console_UART_Write

.text.SYS_DMA_TasksISR
                0x9d02870c       0xf8
 .text.SYS_DMA_TasksISR
                0x9d02870c       0xf8 build/default/production/_ext/1855423469/sys_dma.o
                0x9d02870c                SYS_DMA_TasksISR

.text._UDPsetPacketInfo
                0x9d028804       0xf8
 .text._UDPsetPacketInfo
                0x9d028804       0xf8 build/default/production/_ext/126554269/udp.o

.text.prvCopyDataToQueue
                0x9d0288fc       0xf4
 .text.prvCopyDataToQueue
                0x9d0288fc       0xf4 build/default/production/_ext/1808430591/queue.o

.text.xTaskPriorityDisinherit
                0x9d0289f0       0xf4
 .text.xTaskPriorityDisinherit
                0x9d0289f0       0xf4 build/default/production/_ext/1808430591/tasks.o
                0x9d0289f0                xTaskPriorityDisinherit

.text.DRV_WIFI_Scan
                0x9d000010       0xf0
 .text.DRV_WIFI_Scan
                0x9d000010       0xf0 build/default/production/_ext/412220316/drv_wifi_scan.o
                0x9d000010                DRV_WIFI_Scan

.text.TCPIP_NBNS_Initialize
                0x9d028ae4       0xf0
 .text.TCPIP_NBNS_Initialize
                0x9d028ae4       0xf0 build/default/production/_ext/126554269/nbns.o
                0x9d028ae4                TCPIP_NBNS_Initialize

.text.RawSetIndex
                0x9d028bd4       0xec
 .text.RawSetIndex
                0x9d028bd4       0xec build/default/production/_ext/412220316/drv_wifi_raw.o
                0x9d028bd4                RawSetIndex

.text.DRV_WIFI_TaskSyncInit
                0x9d028cc0       0xec
 .text.DRV_WIFI_TaskSyncInit
                0x9d028cc0       0xec build/default/production/_ext/412220316/drv_wifi_rtos_wrapper.o
                0x9d028cc0                DRV_WIFI_TaskSyncInit

.text.SYS_TMR_SystemCountGet
                0x9d028dac       0xec
 .text.SYS_TMR_SystemCountGet
                0x9d028dac       0xec build/default/production/_ext/1108686962/sys_tmr.o
                0x9d028dac                SYS_TMR_SystemCountGet

.text.TCPIP_STACK_NetUp
                0x9d028e98       0xec
 .text.TCPIP_STACK_NetUp
                0x9d028e98       0xec build/default/production/_ext/126554269/tcpip_manager.o
                0x9d028e98                TCPIP_STACK_NetUp

.text._DRV_TMR_ClockSourceSet
                0x9d028f84       0xe8
 .text._DRV_TMR_ClockSourceSet
                0x9d028f84       0xe8 build/default/production/_ext/494209719/drv_tmr.o

.text._SYS_TMR_ClientParamSet
                0x9d02906c       0xe8
 .text._SYS_TMR_ClientParamSet
                0x9d02906c       0xe8 build/default/production/_ext/1108686962/sys_tmr.o

.text.TCPIP_IPV4_DeInitialize
                0x9d029154       0xe8
 .text.TCPIP_IPV4_DeInitialize
                0x9d029154       0xe8 build/default/production/_ext/126554269/ipv4.o
                0x9d029154                TCPIP_IPV4_DeInitialize

.text._DHCPPacketFilter
                0x9d02923c       0xe8
 .text._DHCPPacketFilter
                0x9d02923c       0xe8 build/default/production/_ext/126554269/dhcp.o

.text.TCPIP_IPV4_MacPacketSwitchTxToRx
                0x9d029324       0xe4
 .text.TCPIP_IPV4_MacPacketSwitchTxToRx
                0x9d029324       0xe4 build/default/production/_ext/126554269/ipv4.o
                0x9d029324                TCPIP_IPV4_MacPacketSwitchTxToRx

.text._DHCPOpenSocket
                0x9d029408       0xe4
 .text._DHCPOpenSocket
                0x9d029408       0xe4 build/default/production/_ext/126554269/dhcp.o

.text._TCPIP_StackSyncFunction
                0x9d0294ec       0xe4
 .text._TCPIP_StackSyncFunction
                0x9d0294ec       0xe4 build/default/production/_ext/126554269/tcpip_manager.o

.text.prvAddCurrentTaskToDelayedList
                0x9d0295d0       0xe4
 .text.prvAddCurrentTaskToDelayedList
                0x9d0295d0       0xe4 build/default/production/_ext/1808430591/tasks.o

.text.DRV_SPI_MasterEBMReceive8BitISR
                0x9d0296b4       0xe4
 .text.DRV_SPI_MasterEBMReceive8BitISR
                0x9d0296b4       0xe4 build/default/production/_ext/977502197/drv_spi_master_ebm_tasks.o
                0x9d0296b4                DRV_SPI_MasterEBMReceive8BitISR

.text._DHCPEnable
                0x9d029798       0xe0
 .text._DHCPEnable
                0x9d029798       0xe0 build/default/production/_ext/126554269/dhcp.o

.text._DNSClientSocketOpen
                0x9d029878       0xe0
 .text._DNSClientSocketOpen
                0x9d029878       0xe0 build/default/production/_ext/126554269/dns.o

.text.TCPIP_OAHASH_EntryLookup
                0x9d029958       0xe0
 .text.TCPIP_OAHASH_EntryLookup
                0x9d029958       0xe0 build/default/production/_ext/126554269/oahash.o
                0x9d029958                TCPIP_OAHASH_EntryLookup

.text.TCPIP_STACK_AddressServiceEvent
                0x9d029a38       0xe0
 .text.TCPIP_STACK_AddressServiceEvent
                0x9d029a38       0xe0 build/default/production/_ext/126554269/tcpip_manager.o
                0x9d029a38                TCPIP_STACK_AddressServiceEvent

.text.TCPIP_STACK_BringNetDown
                0x9d029b18       0xe0
 .text.TCPIP_STACK_BringNetDown
                0x9d029b18       0xe0 build/default/production/_ext/126554269/tcpip_manager.o

.text.vTaskSwitchContext
                0x9d029bf8       0xe0
 .text.vTaskSwitchContext
                0x9d029bf8       0xe0 build/default/production/_ext/1808430591/tasks.o
                0x9d029bf8                vTaskSwitchContext

.text.DRV_SPI_MasterDMASendData8BitISR
                0x9d029cd8       0xe0
 .text.DRV_SPI_MasterDMASendData8BitISR
                0x9d029cd8       0xe0 build/default/production/_ext/977502197/drv_spi_master_dma_tasks.o
                0x9d029cd8                DRV_SPI_MasterDMASendData8BitISR

.text.SYS_CMD_DELETE
                0x9d029db8       0xdc
 .text.SYS_CMD_DELETE
                0x9d029db8       0xdc build/default/production/_ext/1052224704/sys_command.o
                0x9d029db8                SYS_CMD_DELETE

.text._TcpAbort
                0x9d029e94       0xdc
 .text._TcpAbort
                0x9d029e94       0xdc build/default/production/_ext/126554269/tcp.o

.text.TCPIP_DHCP_ConnectionHandler
                0x9d029f70       0xdc
 .text.TCPIP_DHCP_ConnectionHandler
                0x9d029f70       0xdc build/default/production/_ext/126554269/dhcp.o
                0x9d029f70                TCPIP_DHCP_ConnectionHandler

.text._Command_BIOSNameSet
                0x9d02a04c       0xdc
 .text._Command_BIOSNameSet
                0x9d02a04c       0xdc build/default/production/_ext/126554269/tcpip_commands.o

.text._Command_DefaultInterfaceSet
                0x9d02a128       0xdc
 .text._Command_DefaultInterfaceSet
                0x9d02a128       0xdc build/default/production/_ext/126554269/tcpip_commands.o

.text.general_exception
                0x9d02a204       0xdc
 .text.general_exception
                0x9d02a204       0xdc d:/program files (x86)/microchip/xc32/v2.30/bin/bin/../../lib/gcc/pic32mx/4.8.3/../../../../pic32mx/lib/fpu64\libpic32.a(general-exception.o)
                0x9d02a204                _general_exception_context

.text.MgmtRxProcess
                0x9d02a2e0       0xd8
 .text.MgmtRxProcess
                0x9d02a2e0       0xd8 build/default/production/_ext/412220316/drv_wifi_com.o
                0x9d02a2e0                MgmtRxProcess

.text.DRV_WIFI_SpiWrite2
                0x9d02a3b8       0xd8
 .text.DRV_WIFI_SpiWrite2
                0x9d02a3b8       0xd8 build/default/production/_ext/412220316/drv_wifi_spi.o
                0x9d02a3b8                DRV_WIFI_SpiWrite2

.text.DRV_WIFI_SpiRead
                0x9d02a490       0xd8
 .text.DRV_WIFI_SpiRead
                0x9d02a490       0xd8 build/default/production/_ext/412220316/drv_wifi_spi.o
                0x9d02a490                DRV_WIFI_SpiRead

.text.SYS_CMD_Initialize
                0x9d02a568       0xd8
 .text.SYS_CMD_Initialize
                0x9d02a568       0xd8 build/default/production/_ext/1052224704/sys_command.o
                0x9d02a568                SYS_CMD_Initialize

.text._ARPUpdateEntry
                0x9d02a640       0xd8
 .text._ARPUpdateEntry
                0x9d02a640       0xd8 build/default/production/_ext/126554269/arp.o

.text.TCPIP_ARP_CacheEntriesNoGet
                0x9d02a718       0xd8
 .text.TCPIP_ARP_CacheEntriesNoGet
                0x9d02a718       0xd8 build/default/production/_ext/126554269/arp.o
                0x9d02a718                TCPIP_ARP_CacheEntriesNoGet

.text._TCPIP_PKT_PacketAlloc
                0x9d02a7f0       0xd8
 .text._TCPIP_PKT_PacketAlloc
                0x9d02a7f0       0xd8 build/default/production/_ext/126554269/tcpip_packet.o
                0x9d02a7f0                _TCPIP_PKT_PacketAlloc

.text.DRV_SPI_MasterDMAReceiveData8BitISR
                0x9d02a8c8       0xd8
 .text.DRV_SPI_MasterDMAReceiveData8BitISR
                0x9d02a8c8       0xd8 build/default/production/_ext/977502197/drv_spi_master_dma_tasks.o
                0x9d02a8c8                DRV_SPI_MasterDMAReceiveData8BitISR

.text._cache_err_exception_context
                0x9d02a9a0       0xd8
 .text._cache_err_exception_context
                0x9d02a9a0       0xd8 d:/program files (x86)/microchip/xc32/v2.30/bin/bin/../../lib/gcc/pic32mx/4.8.3/../../../../pic32mx/lib/fpu64\libpic32.a(cache-err-exception.o)
                0x9d02a9a0                _cache_err_exception_context

.text.simple_tlb_refill_context
                0x9d02aa78       0xd8
 .text.simple_tlb_refill_context
                0x9d02aa78       0xd8 d:/program files (x86)/microchip/xc32/v2.30/bin/bin/../../lib/gcc/pic32mx/4.8.3/../../../../pic32mx/lib/fpu64\libpic32.a(simple-tlb-refill-exception.o)
                0x9d02aa78                _simple_tlb_refill_exception_context

.text.DRV_TMR_CounterFrequencyGet
                0x9d02ab50       0xd4
 .text.DRV_TMR_CounterFrequencyGet
                0x9d02ab50       0xd4 build/default/production/_ext/494209719/drv_tmr.o
                0x9d02ab50                DRV_TMR_CounterFrequencyGet

.text._DRV_USART_BufferQueueErrorTasks
                0x9d02ac24       0xd4
 .text._DRV_USART_BufferQueueErrorTasks
                0x9d02ac24       0xd4 build/default/production/_ext/115751837/drv_usart.o
                0x9d02ac24                _DRV_USART_BufferQueueErrorTasks

.text.SYS_TMR_Initialize
                0x9d02acf8       0xd4
 .text.SYS_TMR_Initialize
                0x9d02acf8       0xd4 build/default/production/_ext/1108686962/sys_tmr.o
                0x9d02acf8                SYS_TMR_Initialize

.text._mon_putc
                0x9d02adcc       0xd4
 .text._mon_putc
                0x9d02adcc       0xd4 d:/program files (x86)/microchip/xc32/v2.30/bin/bin/../../lib/gcc/pic32mx/4.8.3/../../../../pic32mx/lib/fpu64\libpic32.a(_mon_putc.o)
                0x9d02adcc                _mon_putc

.text.RawInitStateMachine
                0x9d02aea0       0xd0
 .text.RawInitStateMachine
                0x9d02aea0       0xd0 build/default/production/_ext/412220316/drv_wifi_mac.o
                0x9d02aea0                RawInitStateMachine

.rodata         0x9d02af70       0xd0
 .rodata        0x9d02af70       0xd0 d:/program files (x86)/microchip/xc32/v2.30/bin/bin/../../lib/gcc/pic32mx/4.8.3/../../../../pic32mx/lib/fpu64\libc.a(doprnt_cdnopuxX.eo)

.text.TCPIP_ARP_EntryRemove
                0x9d02b040       0xcc
 .text.TCPIP_ARP_EntryRemove
                0x9d02b040       0xcc build/default/production/_ext/126554269/arp.o
                0x9d02b040                TCPIP_ARP_EntryRemove

.text.TCPIP_Commands_Initialize
                0x9d02b10c       0xcc
 .text.TCPIP_Commands_Initialize
                0x9d02b10c       0xcc build/default/production/_ext/126554269/tcpip_commands.o
                0x9d02b10c                TCPIP_Commands_Initialize

.text.DRV_TMR_Tasks
                0x9d02b1d8       0xc8
 .text.DRV_TMR_Tasks
                0x9d02b1d8       0xc8 build/default/production/_ext/494209719/drv_tmr.o
                0x9d02b1d8                DRV_TMR_Tasks

.text.SendMgmtMsg
                0x9d02b2a0       0xc8
 .text.SendMgmtMsg
                0x9d02b2a0       0xc8 build/default/production/_ext/412220316/drv_wifi_mgmt_msg.o
                0x9d02b2a0                SendMgmtMsg

.text.TCPIP_OAHASH_EntryLookupOrInsert
                0x9d02b368       0xc8
 .text.TCPIP_OAHASH_EntryLookupOrInsert
                0x9d02b368       0xc8 build/default/production/_ext/126554269/oahash.o
                0x9d02b368                TCPIP_OAHASH_EntryLookupOrInsert

.text._NetConfigStringToBuffer
                0x9d02b430       0xc8
 .text._NetConfigStringToBuffer
                0x9d02b430       0xc8 build/default/production/_ext/126554269/tcpip_manager.o

.text._sbrk     0x9d02b4f8       0xc8
 .text._sbrk    0x9d02b4f8       0xc8 d:/program files (x86)/microchip/xc32/v2.30/bin/bin/../../lib/gcc/pic32mx/4.8.3/../../../../pic32mx/lib/fpu64\libpic32.a(sbrk.o)
                0x9d02b4f8                _sbrk

.text._DRV_TMR_ClockPrescaleSet
                0x9d02b5c0       0xc4
 .text._DRV_TMR_ClockPrescaleSet
                0x9d02b5c0       0xc4 build/default/production/_ext/494209719/drv_tmr.o

.text.SetSecurity
                0x9d02b684       0xc4
 .text.SetSecurity
                0x9d02b684       0xc4 build/default/production/_ext/412220316/drv_wifi_connection_profile.o

.text.TCPIP_IPV4_MacPacketTransmit
                0x9d02b748       0xc4
 .text.TCPIP_IPV4_MacPacketTransmit
                0x9d02b748       0xc4 build/default/production/_ext/126554269/ipv4.o
                0x9d02b748                TCPIP_IPV4_MacPacketTransmit

.text.TCPIP_UDP_SocketInfoGet
                0x9d02b80c       0xc4
 .text.TCPIP_UDP_SocketInfoGet
                0x9d02b80c       0xc4 build/default/production/_ext/126554269/udp.o
                0x9d02b80c                TCPIP_UDP_SocketInfoGet

.text._DHCPOptionWriteSrvIdent
                0x9d02b8d0       0xc4
 .text._DHCPOptionWriteSrvIdent
                0x9d02b8d0       0xc4 build/default/production/_ext/126554269/dhcp.o

.text.DRV_SPI_MasterDMAReceiveDummy8BitISR
                0x9d02b994       0xc4
 .text.DRV_SPI_MasterDMAReceiveDummy8BitISR
                0x9d02b994       0xc4 build/default/production/_ext/977502197/drv_spi_master_dma_tasks.o
                0x9d02b994                DRV_SPI_MasterDMAReceiveDummy8BitISR

.text.DRV_SPI_SYS_QUEUE_AllocElement
                0x9d02ba58       0xc0
 .text.DRV_SPI_SYS_QUEUE_AllocElement
                0x9d02ba58       0xc0 build/default/production/_ext/1908449382/drv_spi_sys_queue_fifo.o
                0x9d02ba58                DRV_SPI_SYS_QUEUE_AllocElement

.text.WaitForMgmtResponse
                0x9d02bb18       0xc0
 .text.WaitForMgmtResponse
                0x9d02bb18       0xc0 build/default/production/_ext/412220316/drv_wifi_mgmt_msg.o
                0x9d02bb18                WaitForMgmtResponse

.text.SYS_CMD_PRINT
                0x9d02bbd8       0xc0
 .text.SYS_CMD_PRINT
                0x9d02bbd8       0xc0 build/default/production/_ext/1052224704/sys_command.o
                0x9d02bbd8                SYS_CMD_PRINT

.text._DHCPOptionProcessDns
                0x9d02bc98       0xc0
 .text._DHCPOptionProcessDns
                0x9d02bc98       0xc0 build/default/production/_ext/126554269/dhcp.o

.text.xQueueGenericReset
                0x9d02bd58       0xc0
 .text.xQueueGenericReset
                0x9d02bd58       0xc0 build/default/production/_ext/1808430591/queue.o
                0x9d02bd58                xQueueGenericReset

.text.xQueueGiveFromISR
                0x9d02be18       0xc0
 .text.xQueueGiveFromISR
                0x9d02be18       0xc0 build/default/production/_ext/1808430591/queue.o
                0x9d02be18                xQueueGiveFromISR

.text.DRV_WIFI_SpiInit
                0x9d02bed8       0xbc
 .text.DRV_WIFI_SpiInit
                0x9d02bed8       0xbc build/default/production/_ext/412220316/drv_wifi_spi.o
                0x9d02bed8                DRV_WIFI_SpiInit

.text.SendCommandPrint
                0x9d02bf94       0xbc
 .text.SendCommandPrint
                0x9d02bf94       0xbc build/default/production/_ext/1052224704/sys_command.o

.text.SYS_CMDIO_ADD
                0x9d02c050       0xbc
 .text.SYS_CMDIO_ADD
                0x9d02c050       0xbc build/default/production/_ext/1052224704/sys_command.o
                0x9d02c050                SYS_CMDIO_ADD

.text.TCPIP_UDP_ArrayPut
                0x9d02c10c       0xbc
 .text.TCPIP_UDP_ArrayPut
                0x9d02c10c       0xbc build/default/production/_ext/126554269/udp.o
                0x9d02c10c                TCPIP_UDP_ArrayPut

.text._DHCPOptionWriteIPRequest
                0x9d02c1c8       0xbc
 .text._DHCPOptionWriteIPRequest
                0x9d02c1c8       0xbc build/default/production/_ext/126554269/dhcp.o

.text.TCPIP_DNS_Disable
                0x9d02c284       0xbc
 .text.TCPIP_DNS_Disable
                0x9d02c284       0xbc build/default/production/_ext/126554269/dns.o
                0x9d02c284                TCPIP_DNS_Disable

.text.xTaskRemoveFromEventList
                0x9d02c340       0xbc
 .text.xTaskRemoveFromEventList
                0x9d02c340       0xbc build/default/production/_ext/1808430591/tasks.o
                0x9d02c340                xTaskRemoveFromEventList

.tlb.__pic32_tlb_init_ebi_sqi
                0x9d02c3fc       0xbc
 .tlb.__pic32_tlb_init_ebi_sqi
                0x9d02c3fc       0xbc d:/program files (x86)/microchip/xc32/v2.30/bin/bin/../../lib/gcc/pic32mx/4.8.3/../../../../pic32mx/lib/fpu64\libpic32.a(pic32_init_tlb_ebi_sqi.o)
                0x9d02c3fc                __pic32_tlb_init_ebi_sqi

.text.TxQueueDeinit
                0x9d02c4b8       0xb8
 .text.TxQueueDeinit
                0x9d02c4b8       0xb8 build/default/production/_ext/412220316/drv_wifi_mac.o
                0x9d02c4b8                TxQueueDeinit

.text.TCPIP_DNS_OAHASH_DeleteEntry
                0x9d02c570       0xb8
 .text.TCPIP_DNS_OAHASH_DeleteEntry
                0x9d02c570       0xb8 build/default/production/_ext/126554269/dns.o

.text.TCPIP_DNS_GetIPAddressesNumber
                0x9d02c628       0xb8
 .text.TCPIP_DNS_GetIPAddressesNumber
                0x9d02c628       0xb8 build/default/production/_ext/126554269/dns.o
                0x9d02c628                TCPIP_DNS_GetIPAddressesNumber

.text.TCPIP_PKT_DataSegmentGet
                0x9d02c6e0       0xb8
 .text.TCPIP_PKT_DataSegmentGet
                0x9d02c6e0       0xb8 build/default/production/_ext/126554269/tcpip_packet.o
                0x9d02c6e0                TCPIP_PKT_DataSegmentGet

.text.DRV_WIFI_SecurityGet
                0x9d02c798       0xb4
 .text.DRV_WIFI_SecurityGet
                0x9d02c798       0xb4 build/default/production/_ext/412220316/drv_wifi_connection_profile.o
                0x9d02c798                DRV_WIFI_SecurityGet

.text.Console_UART_Read
                0x9d02c84c       0xb4
 .text.Console_UART_Read
                0x9d02c84c       0xb4 build/default/production/_ext/595512524/sys_console_uart.o
                0x9d02c84c                Console_UART_Read

.text.TCPIP_UDP_BcastIPV4AddressSet
                0x9d02c900       0xb4
 .text.TCPIP_UDP_BcastIPV4AddressSet
                0x9d02c900       0xb4 build/default/production/_ext/126554269/udp.o
                0x9d02c900                TCPIP_UDP_BcastIPV4AddressSet

.text._ARPNotifyClients
                0x9d02c9b4       0xb4
 .text._ARPNotifyClients
                0x9d02c9b4       0xb4 build/default/production/_ext/126554269/arp.o

.text.TCPIP_DHCP_Disable
                0x9d02ca68       0xb4
 .text.TCPIP_DHCP_Disable
                0x9d02ca68       0xb4 build/default/production/_ext/126554269/dhcp.o
                0x9d02ca68                TCPIP_DHCP_Disable

.text._DNS_DeleteHash
                0x9d02cb1c       0xb4
 .text._DNS_DeleteHash
                0x9d02cb1c       0xb4 build/default/production/_ext/126554269/dns.o

.text.TCPIP_ZCLL_Initialize
                0x9d02cbd0       0xb4
 .text.TCPIP_ZCLL_Initialize
                0x9d02cbd0       0xb4 build/default/production/_ext/126554269/zero_conf_link_local.o
                0x9d02cbd0                TCPIP_ZCLL_Initialize

.text.prvIdleTask
                0x9d02cc84       0xb4
 .text.prvIdleTask
                0x9d02cc84       0xb4 build/default/production/_ext/1808430591/tasks.o

.text.RawMove   0x9d02cd38       0xb0
 .text.RawMove  0x9d02cd38       0xb0 build/default/production/_ext/412220316/drv_wifi_raw.o

.text._DNS_AddSelectionIf
                0x9d02cde8       0xb0
 .text._DNS_AddSelectionIf
                0x9d02cde8       0xb0 build/default/production/_ext/126554269/dns.o

.text._TCPIPStackInsertRxPacket
                0x9d02ce98       0xb0
 .text._TCPIPStackInsertRxPacket
                0x9d02ce98       0xb0 build/default/production/_ext/126554269/tcpip_manager.o
                0x9d02ce98                _TCPIPStackInsertRxPacket

.rodata         0x9d02cf48       0xac
 .rodata        0x9d02cf48       0xac build/default/production/_ext/412220316/drv_wifi_config_data.o

.text.isRawMoveComplete
                0x9d02cff4       0xac
 .text.isRawMoveComplete
                0x9d02cff4       0xac build/default/production/_ext/412220316/drv_wifi_raw.o
                0x9d02cff4                isRawMoveComplete

.rodata         0x9d02d0a0       0xac
 .rodata        0x9d02d0a0       0xac build/default/production/_ext/412220316/drv_wifi_spi.o

.text._DNS_Enable
                0x9d02d14c       0xac
 .text._DNS_Enable
                0x9d02d14c       0xac build/default/production/_ext/126554269/dns.o

.text.TCPIP_STACK_NetDown
                0x9d02d1f8       0xac
 .text.TCPIP_STACK_NetDown
                0x9d02d1f8       0xac build/default/production/_ext/126554269/tcpip_manager.o
                0x9d02d1f8                TCPIP_STACK_NetDown

.text.DRV_WIFI_SpiWrite
                0x9d02d2a4       0xa8
 .text.DRV_WIFI_SpiWrite
                0x9d02d2a4       0xa8 build/default/production/_ext/412220316/drv_wifi_spi.o
                0x9d02d2a4                DRV_WIFI_SpiWrite

.text.TCPIP_PKT_PacketMACFormat
                0x9d02d34c       0xa8
 .text.TCPIP_PKT_PacketMACFormat
                0x9d02d34c       0xa8 build/default/production/_ext/126554269/tcpip_packet.o
                0x9d02d34c                TCPIP_PKT_PacketMACFormat

.text           0x9d02d3f4       0xa8
 .text          0x9d02d3f4       0xa8 d:/program files (x86)/microchip/xc32/v2.30/bin/bin/../../lib/gcc/pic32mx/4.8.3/../../../../pic32mx/lib/fpu64\libpic32.a(memset.o)
                0x9d02d3f4                memset

.text.atoi      0x9d02d49c       0xa8
 .text.atoi     0x9d02d49c       0xa8 d:/program files (x86)/microchip/xc32/v2.30/bin/bin/../../lib/gcc/pic32mx/4.8.3/../../../../pic32mx/lib/fpu64\libc.a(atoi.o)
                0x9d02d49c                atoi

.text.range     0x9d02d544       0xa8
 .text.range    0x9d02d544       0xa8 d:/program files (x86)/microchip/xc32/v2.30/bin/bin/../../lib/gcc/pic32mx/4.8.3/../../../../pic32mx/lib/fpu64\libc.a(doscan_cdnopuxX.eo)

.text.DRV_WIFI_ConfigDataSave
                0x9d02d5ec       0xa4
 .text.DRV_WIFI_ConfigDataSave
                0x9d02d5ec       0xa4 build/default/production/_ext/412220316/drv_wifi_config_data.o
                0x9d02d5ec                DRV_WIFI_ConfigDataSave

.text.DRV_WIFI_ScanContextGet
                0x9d02d690       0xa4
 .text.DRV_WIFI_ScanContextGet
                0x9d02d690       0xa4 build/default/production/_ext/412220316/drv_wifi_connection_algorithm.o
                0x9d02d690                DRV_WIFI_ScanContextGet

.rodata         0x9d02d734       0xa4
 .rodata        0x9d02d734       0xa4 build/default/production/_ext/412220316/drv_wifi_connection_manager.o

.text.DRV_WIFI_SpiDmaTx
                0x9d02d7d8       0xa4
 .text.DRV_WIFI_SpiDmaTx
                0x9d02d7d8       0xa4 build/default/production/_ext/412220316/drv_wifi_spi.o
                0x9d02d7d8                DRV_WIFI_SpiDmaTx

.text.DRV_WIFI_SpiDmaRx
                0x9d02d87c       0xa4
 .text.DRV_WIFI_SpiDmaRx
                0x9d02d87c       0xa4 build/default/production/_ext/412220316/drv_wifi_spi.o
                0x9d02d87c                DRV_WIFI_SpiDmaRx

.text.TCPIP_IPV4_Initialize
                0x9d02d920       0xa4
 .text.TCPIP_IPV4_Initialize
                0x9d02d920       0xa4 build/default/production/_ext/126554269/ipv4.o
                0x9d02d920                TCPIP_IPV4_Initialize

.text.TCPIP_DNS_ClientDeinitialize
                0x9d02d9c4       0xa4
 .text.TCPIP_DNS_ClientDeinitialize
                0x9d02d9c4       0xa4 build/default/production/_ext/126554269/dns.o
                0x9d02d9c4                TCPIP_DNS_ClientDeinitialize

.text.DRV_USART_TasksReceive
                0x9d02da68       0xa0
 .text.DRV_USART_TasksReceive
                0x9d02da68       0xa0 build/default/production/_ext/115751837/drv_usart.o
                0x9d02da68                DRV_USART_TasksReceive

.text.DRV_USART_TasksTransmit
                0x9d02db08       0xa0
 .text.DRV_USART_TasksTransmit
                0x9d02db08       0xa0 build/default/production/_ext/115751837/drv_usart.o
                0x9d02db08                DRV_USART_TasksTransmit

.text.DRV_USART_TasksError
                0x9d02dba8       0xa0
 .text.DRV_USART_TasksError
                0x9d02dba8       0xa0 build/default/production/_ext/115751837/drv_usart.o
                0x9d02dba8                DRV_USART_TasksError

.text.RxDataCallback
                0x9d02dc48       0xa0
 .text.RxDataCallback
                0x9d02dc48       0xa0 build/default/production/_ext/412220316/drv_wifi_mac.o

.rodata         0x9d02dce8       0xa0
 .rodata        0x9d02dce8       0xa0 build/default/production/_ext/412220316/drv_wifi_raw.o
                0x9d02dd4c                g_RawAccessOutOfBoundsMask

.text.Console_UART_Status
                0x9d02dd88       0xa0
 .text.Console_UART_Status
                0x9d02dd88       0xa0 build/default/production/_ext/595512524/sys_console_uart.o
                0x9d02dd88                Console_UART_Status

.text._TcpClientSocketConnect
                0x9d02de28       0xa0
 .text._TcpClientSocketConnect
                0x9d02de28       0xa0 build/default/production/_ext/126554269/tcp.o

.text._TCPSendWinIncUpdate
                0x9d02dec8       0xa0
 .text._TCPSendWinIncUpdate
                0x9d02dec8       0xa0 build/default/production/_ext/126554269/tcp.o

.text.TCPIP_DNS_RemoveAll
                0x9d02df68       0xa0
 .text.TCPIP_DNS_RemoveAll
                0x9d02df68       0xa0 build/default/production/_ext/126554269/dns.o
                0x9d02df68                TCPIP_DNS_RemoveAll

.text.TCPIP_Helper_SingleListNodeRemove
                0x9d02e008       0xa0
 .text.TCPIP_Helper_SingleListNodeRemove
                0x9d02e008       0xa0 build/default/production/_ext/126554269/tcpip_helpers.o
                0x9d02e008                TCPIP_Helper_SingleListNodeRemove

.text._TCPIP_PKT_PacketFree
                0x9d02e0a8       0xa0
 .text._TCPIP_PKT_PacketFree
                0x9d02e0a8       0xa0 build/default/production/_ext/126554269/tcpip_packet.o
                0x9d02e0a8                _TCPIP_PKT_PacketFree

.text.xTaskCheckForTimeOut
                0x9d02e148       0xa0
 .text.xTaskCheckForTimeOut
                0x9d02e148       0xa0 build/default/production/_ext/1808430591/tasks.o
                0x9d02e148                xTaskCheckForTimeOut

.text.DRV_SPI_MasterDMASendDummy8BitISR
                0x9d02e1e8       0xa0
 .text.DRV_SPI_MasterDMASendDummy8BitISR
                0x9d02e1e8       0xa0 build/default/production/_ext/977502197/drv_spi_master_dma_tasks.o
                0x9d02e1e8                DRV_SPI_MasterDMASendDummy8BitISR

.text.fflush    0x9d02e288       0xa0
 .text.fflush   0x9d02e288       0xa0 d:/program files (x86)/microchip/xc32/v2.30/bin/bin/../../lib/gcc/pic32mx/4.8.3/../../../../pic32mx/lib/fpu64\libc.a(fflush.o)
                0x9d02e288                fflush

.text._DRV_USART_ErrorConditionClear
                0x9d02e328       0x9c
 .text._DRV_USART_ErrorConditionClear
                0x9d02e328       0x9c build/default/production/_ext/115751837/drv_usart.o
                0x9d02e328                _DRV_USART_ErrorConditionClear

.text.TCPIP_ARP_Probe
                0x9d02e3c4       0x9c
 .text.TCPIP_ARP_Probe
                0x9d02e3c4       0x9c build/default/production/_ext/126554269/arp.o
                0x9d02e3c4                TCPIP_ARP_Probe

.text.TCPIP_STACK_StringToMACId
                0x9d02e460       0x9c
 .text.TCPIP_STACK_StringToMACId
                0x9d02e460       0x9c build/default/production/_ext/126554269/tcpip_manager.o
                0x9d02e460                TCPIP_STACK_StringToMACId

.text.TCPIP_STACK_IPAddressIsLocalNetwork
                0x9d02e4fc       0x9c
 .text.TCPIP_STACK_IPAddressIsLocalNetwork
                0x9d02e4fc       0x9c build/default/production/_ext/126554269/tcpip_manager.o
                0x9d02e4fc                TCPIP_STACK_IPAddressIsLocalNetwork

.text._TCPIPStackModuleSignalRequest
                0x9d02e598       0x9c
 .text._TCPIPStackModuleSignalRequest
                0x9d02e598       0x9c build/default/production/_ext/126554269/tcpip_manager.o
                0x9d02e598                _TCPIPStackModuleSignalRequest

.text.write     0x9d02e634       0x9c
 .text.write    0x9d02e634       0x9c d:/program files (x86)/microchip/xc32/v2.30/bin/bin/../../lib/gcc/pic32mx/4.8.3/../../../../pic32mx/lib/fpu64\libpic32.a(write.o)
                0x9d02e634                write

.text.DRV_USART_LineControlSet
                0x9d02e6d0       0x98
 .text.DRV_USART_LineControlSet
                0x9d02e6d0       0x98 build/default/production/_ext/115751837/drv_usart.o
                0x9d02e6d0                DRV_USART_LineControlSet

.text.Read16BitWFRegister
                0x9d02e768       0x98
 .text.Read16BitWFRegister
                0x9d02e768       0x98 build/default/production/_ext/412220316/drv_wifi_com.o
                0x9d02e768                Read16BitWFRegister

.text.DRV_WIFI_ConnectionStateGet
                0x9d02e800       0x98
 .text.DRV_WIFI_ConnectionStateGet
                0x9d02e800       0x98 build/default/production/_ext/412220316/drv_wifi_connection_manager.o
                0x9d02e800                DRV_WIFI_ConnectionStateGet

.text.TCPIP_Helper_IPAddressToString
                0x9d02e898       0x98
 .text.TCPIP_Helper_IPAddressToString
                0x9d02e898       0x98 build/default/production/_ext/126554269/tcpip_helpers.o
                0x9d02e898                TCPIP_Helper_IPAddressToString

.text.TCPIP_Helper_FormatNetBIOSName
                0x9d02e930       0x98
 .text.TCPIP_Helper_FormatNetBIOSName
                0x9d02e930       0x98 build/default/production/_ext/126554269/tcpip_helpers.o
                0x9d02e930                TCPIP_Helper_FormatNetBIOSName

.text._TCPIPStackModuleRxInsert
                0x9d02e9c8       0x98
 .text._TCPIPStackModuleRxInsert
                0x9d02e9c8       0x98 build/default/production/_ext/126554269/tcpip_manager.o
                0x9d02e9c8                _TCPIPStackModuleRxInsert

.text           0x9d02ea60       0x98
 .text          0x9d02ea60       0x98 d:/program files (x86)/microchip/xc32/v2.30/bin/bin/../../lib/gcc/pic32mx/4.8.3/../../../../pic32mx/lib/fpu64\libpic32.a(memcmp.o)
                0x9d02ea60                memcmp

.text.ReadWFArray
                0x9d02eaf8       0x94
 .text.ReadWFArray
                0x9d02eaf8       0x94 build/default/production/_ext/412220316/drv_wifi_com.o
                0x9d02eaf8                ReadWFArray

.text.DRV_WIFI_ScanContextSet
                0x9d02eb8c       0x94
 .text.DRV_WIFI_ScanContextSet
                0x9d02eb8c       0x94 build/default/production/_ext/412220316/drv_wifi_connection_algorithm.o
                0x9d02eb8c                DRV_WIFI_ScanContextSet

.text.CPElementGet
                0x9d02ec20       0x94
 .text.CPElementGet
                0x9d02ec20       0x94 build/default/production/_ext/412220316/drv_wifi_connection_profile.o

.text.DRV_WIFI_Assert
                0x9d02ecb4       0x94
 .text.DRV_WIFI_Assert
                0x9d02ecb4       0x94 build/default/production/_ext/412220316/drv_wifi_debug_output.o
                0x9d02ecb4                DRV_WIFI_Assert

.text.DRV_WIFI_DeviceInfoGet
                0x9d02ed48       0x94
 .text.DRV_WIFI_DeviceInfoGet
                0x9d02ed48       0x94 build/default/production/_ext/412220316/drv_wifi_param_msg.o
                0x9d02ed48                DRV_WIFI_DeviceInfoGet

.text._TcpCleanup
                0x9d02eddc       0x94
 .text._TcpCleanup
                0x9d02eddc       0x94 build/default/production/_ext/126554269/tcp.o

.text._UDPSetNewRxPacket
                0x9d02ee70       0x94
 .text._UDPSetNewRxPacket
                0x9d02ee70       0x94 build/default/production/_ext/126554269/udp.o

.text.TCPIP_UDP_DestinationIPAddressSet
                0x9d02ef04       0x94
 .text.TCPIP_UDP_DestinationIPAddressSet
                0x9d02ef04       0x94 build/default/production/_ext/126554269/udp.o
                0x9d02ef04                TCPIP_UDP_DestinationIPAddressSet

.text._DNS_CleanCacheEntry
                0x9d02ef98       0x94
 .text._DNS_CleanCacheEntry
                0x9d02ef98       0x94 build/default/production/_ext/126554269/dns.o

.text.xQueueGenericCreate
                0x9d02f02c       0x94
 .text.xQueueGenericCreate
                0x9d02f02c       0x94 build/default/production/_ext/1808430591/queue.o
                0x9d02f02c                xQueueGenericCreate

.text.WriteWFArray
                0x9d02f0c0       0x90
 .text.WriteWFArray
                0x9d02f0c0       0x90 build/default/production/_ext/412220316/drv_wifi_com.o
                0x9d02f0c0                WriteWFArray

.text.CAElementGet
                0x9d02f150       0x90
 .text.CAElementGet
                0x9d02f150       0x90 build/default/production/_ext/412220316/drv_wifi_connection_algorithm.o

.text.MRF24W_RxPacketGet
                0x9d02f1e0       0x90
 .text.MRF24W_RxPacketGet
                0x9d02f1e0       0x90 build/default/production/_ext/412220316/drv_wifi_mac.o
                0x9d02f1e0                MRF24W_RxPacketGet

.text.MRF24W_MACClose
                0x9d02f270       0x90
 .text.MRF24W_MACClose
                0x9d02f270       0x90 build/default/production/_ext/412220316/drv_wifi_main.o

.text.SYS_CONSOLE_Status
                0x9d02f300       0x90
 .text.SYS_CONSOLE_Status
                0x9d02f300       0x90 build/default/production/_ext/595512524/sys_console.o
                0x9d02f300                SYS_CONSOLE_Status

.text.TCPIP_ARP_EntryGet
                0x9d02f390       0x90
 .text.TCPIP_ARP_EntryGet
                0x9d02f390       0x90 build/default/production/_ext/126554269/arp.o
                0x9d02f390                TCPIP_ARP_EntryGet

.text._TCPIPStackIpAddFromAnyNet
                0x9d02f420       0x90
 .text._TCPIPStackIpAddFromAnyNet
                0x9d02f420       0x90 build/default/production/_ext/126554269/tcpip_manager.o
                0x9d02f420                _TCPIPStackIpAddFromAnyNet

.text._frexpx   0x9d02f4b0       0x90
 .text._frexpx  0x9d02f4b0       0x90 d:/program files (x86)/microchip/xc32/v2.30/bin/bin/../../lib/gcc/pic32mx/4.8.3/../../../../pic32mx/lib/fpu64\libmfd.a(s_frexp.o)
                0x9d02f4b0                _frexpx

.text.Read8BitWFRegister
                0x9d02f540       0x8c
 .text.Read8BitWFRegister
                0x9d02f540       0x8c build/default/production/_ext/412220316/drv_wifi_com.o
                0x9d02f540                Read8BitWFRegister

.text.IwconfigUpdateCb
                0x9d02f5cc       0x8c
 .text.IwconfigUpdateCb
                0x9d02f5cc       0x8c build/default/production/_ext/412220316/drv_wifi_commands.o

.text.DRV_WIFI_ReconnectModeGet
                0x9d02f658       0x8c
 .text.DRV_WIFI_ReconnectModeGet
                0x9d02f658       0x8c build/default/production/_ext/412220316/drv_wifi_connection_algorithm.o
                0x9d02f658                DRV_WIFI_ReconnectModeGet

.rodata         0x9d02f6e4       0x8c
 .rodata        0x9d02f6e4       0x8c build/default/production/_ext/412220316/drv_wifi_init.o

.text.DRV_WIFI_InitTask
                0x9d02f770       0x8c
 .text.DRV_WIFI_InitTask
                0x9d02f770       0x8c build/default/production/_ext/412220316/drv_wifi_init.o
                0x9d02f770                DRV_WIFI_InitTask

.text.OSAL_SEM_Create
                0x9d02f7fc       0x8c
 .text.OSAL_SEM_Create
                0x9d02f7fc       0x8c build/default/production/_ext/2004362140/osal_freertos.o
                0x9d02f7fc                OSAL_SEM_Create

.text.TCPIP_UDP_TxOffsetSet
                0x9d02f888       0x8c
 .text.TCPIP_UDP_TxOffsetSet
                0x9d02f888       0x8c build/default/production/_ext/126554269/udp.o
                0x9d02f888                TCPIP_UDP_TxOffsetSet

.text.TCPIP_UDP_PutIsReady
                0x9d02f914       0x8c
 .text.TCPIP_UDP_PutIsReady
                0x9d02f914       0x8c build/default/production/_ext/126554269/udp.o
                0x9d02f914                TCPIP_UDP_PutIsReady

.text._DHCPNotifyClients
                0x9d02f9a0       0x8c
 .text._DHCPNotifyClients
                0x9d02f9a0       0x8c build/default/production/_ext/126554269/dhcp.o

.text._DNSDiscardName
                0x9d02fa2c       0x8c
 .text._DNSDiscardName
                0x9d02fa2c       0x8c build/default/production/_ext/126554269/dns.o

.text.TCPIP_STACK_NetAliasNameGet
                0x9d02fab8       0x8c
 .text.TCPIP_STACK_NetAliasNameGet
                0x9d02fab8       0x8c build/default/production/_ext/126554269/tcpip_manager.o
                0x9d02fab8                TCPIP_STACK_NetAliasNameGet

.text.TCPIP_STACK_NetBiosNameSet
                0x9d02fb44       0x8c
 .text.TCPIP_STACK_NetBiosNameSet
                0x9d02fb44       0x8c build/default/production/_ext/126554269/tcpip_manager.o
                0x9d02fb44                TCPIP_STACK_NetBiosNameSet

.text.rand      0x9d02fbd0       0x8c
 .text.rand     0x9d02fbd0       0x8c d:/program files (x86)/microchip/xc32/v2.30/bin/bin/../../lib/gcc/pic32mx/4.8.3/../../../../pic32mx/lib/fpu64\libc.a(rand.o)
                0x9d02fbd0                rand

.text.Write16BitWFRegister
                0x9d02fc5c       0x88
 .text.Write16BitWFRegister
                0x9d02fc5c       0x88 build/default/production/_ext/412220316/drv_wifi_com.o
                0x9d02fc5c                Write16BitWFRegister

.rodata         0x9d02fce4       0x88
 .rodata        0x9d02fce4       0x88 build/default/production/_ext/126554269/dns.o

.text.hexatob   0x9d02fd6c       0x88
 .text.hexatob  0x9d02fd6c       0x88 build/default/production/_ext/1551925347/helpers.o
                0x9d02fd6c                hexatob

.text._TCPIPStackModuleSignalGet
                0x9d02fdf4       0x88
 .text._TCPIPStackModuleSignalGet
                0x9d02fdf4       0x88 build/default/production/_ext/126554269/tcpip_manager.o
                0x9d02fdf4                _TCPIPStackModuleSignalGet

.rodata         0x9d02fe7c       0x84
 .rodata        0x9d02fe7c       0x84 build/default/production/_ext/412220316/drv_wifi_connection_profile.o

.text.DRV_WIFI_SsidSet
                0x9d02ff00       0x84
 .text.DRV_WIFI_SsidSet
                0x9d02ff00       0x84 build/default/production/_ext/412220316/drv_wifi_connection_profile.o
                0x9d02ff00                DRV_WIFI_SsidSet

.text.RawGetByte
                0x9d02ff84       0x84
 .text.RawGetByte
                0x9d02ff84       0x84 build/default/production/_ext/412220316/drv_wifi_raw.o
                0x9d02ff84                RawGetByte

.text.RawSetByte
                0x9d030008       0x84
 .text.RawSetByte
                0x9d030008       0x84 build/default/production/_ext/412220316/drv_wifi_raw.o
                0x9d030008                RawSetByte

.text.TCPIP_UDP_SourceIPAddressSet
                0x9d03008c       0x84
 .text.TCPIP_UDP_SourceIPAddressSet
                0x9d03008c       0x84 build/default/production/_ext/126554269/udp.o
                0x9d03008c                TCPIP_UDP_SourceIPAddressSet

.text._TCPIP_HEAP_MaxSize
                0x9d030110       0x84
 .text._TCPIP_HEAP_MaxSize
                0x9d030110       0x84 build/default/production/_ext/126554269/tcpip_heap_internal.o

.text.zgzc_wait_for
                0x9d030194       0x84
 .text.zgzc_wait_for
                0x9d030194       0x84 build/default/production/_ext/126554269/zero_conf_helper.o
                0x9d030194                zgzc_wait_for

.text.TCPIP_STACK_NetHandleGet
                0x9d030218       0x84
 .text.TCPIP_STACK_NetHandleGet
                0x9d030218       0x84 build/default/production/_ext/126554269/tcpip_manager.o
                0x9d030218                TCPIP_STACK_NetHandleGet

.text           0x9d03029c       0x84
 .text          0x9d03029c       0x84 d:/program files (x86)/microchip/xc32/v2.30/bin/bin/../../lib/gcc/pic32mx/4.8.3/../../../../pic32mx/lib/fpu64\libpic32.a(pic32_data_init.o)
                0x9d03029c                __pic32_data_init

.text.vsnprintf
                0x9d030320       0x84
 .text.vsnprintf
                0x9d030320       0x84 d:/program files (x86)/microchip/xc32/v2.30/bin/bin/../../lib/gcc/pic32mx/4.8.3/../../../../pic32mx/lib/fpu64\libc.a(vsnprintf.o)
                0x9d030320                vsnprintf

.text.Write8BitWFRegister
                0x9d0303a4       0x80
 .text.Write8BitWFRegister
                0x9d0303a4       0x80 build/default/production/_ext/412220316/drv_wifi_com.o
                0x9d0303a4                Write8BitWFRegister

.text.ReadCommandCharacter
                0x9d030424       0x80
 .text.ReadCommandCharacter
                0x9d030424       0x80 build/default/production/_ext/1052224704/sys_command.o

.text.SYS_CONSOLE_Write
                0x9d0304a4       0x80
 .text.SYS_CONSOLE_Write
                0x9d0304a4       0x80 build/default/production/_ext/595512524/sys_console.o
                0x9d0304a4                SYS_CONSOLE_Write

.text._TCPIP_HEAP_Delete
                0x9d030524       0x80
 .text._TCPIP_HEAP_Delete
                0x9d030524       0x80 build/default/production/_ext/126554269/tcpip_heap_internal.o

.text.TCPIP_DNS_OAHASH_KeyCopy
                0x9d0305a4       0x80
 .text.TCPIP_DNS_OAHASH_KeyCopy
                0x9d0305a4       0x80 build/default/production/_ext/126554269/dns.o

.text.TCPIP_ICMP_Initialize
                0x9d030624       0x80
 .text.TCPIP_ICMP_Initialize
                0x9d030624       0x80 build/default/production/_ext/126554269/icmp.o
                0x9d030624                TCPIP_ICMP_Initialize

.text.TCPIP_Helper_MACAddressToString
                0x9d0306a4       0x80
 .text.TCPIP_Helper_MACAddressToString
                0x9d0306a4       0x80 build/default/production/_ext/126554269/tcpip_helpers.o
                0x9d0306a4                TCPIP_Helper_MACAddressToString

.text.DRV_SPI_SetVTable
                0x9d030724       0x80
 .text.DRV_SPI_SetVTable
                0x9d030724       0x80 build/default/production/_ext/977502197/drv_spi_api.o
                0x9d030724                DRV_SPI_SetVTable

.text.MRF24W_MACDeinitialize
                0x9d0307a4       0x7c
 .text.MRF24W_MACDeinitialize
                0x9d0307a4       0x7c build/default/production/_ext/412220316/drv_wifi_main.o

.rodata         0x9d030820       0x7c
 .rodata        0x9d030820       0x7c build/default/production/_ext/412220316/drv_wifi_scan.o

.text.DRV_WIFI_ScanResultGet
                0x9d03089c       0x7c
 .text.DRV_WIFI_ScanResultGet
                0x9d03089c       0x7c build/default/production/_ext/412220316/drv_wifi_scan.o
                0x9d03089c                DRV_WIFI_ScanResultGet

.text.CommandCleanup
                0x9d030918       0x7c
 .text.CommandCleanup
                0x9d030918       0x7c build/default/production/_ext/1052224704/sys_command.o

.text._TCP_EphemeralPortAllocate
                0x9d030994       0x7c
 .text._TCP_EphemeralPortAllocate
                0x9d030994       0x7c build/default/production/_ext/126554269/tcp.o

.text._UDPAllocateEphemeralPort
                0x9d030a10       0x7c
 .text._UDPAllocateEphemeralPort
                0x9d030a10       0x7c build/default/production/_ext/126554269/udp.o

.text.TCPIP_ARP_Deinitialize
                0x9d030a8c       0x7c
 .text.TCPIP_ARP_Deinitialize
                0x9d030a8c       0x7c build/default/production/_ext/126554269/arp.o
                0x9d030a8c                TCPIP_ARP_Deinitialize

.text.TCPIP_ARP_HandlerRegister
                0x9d030b08       0x7c
 .text.TCPIP_ARP_HandlerRegister
                0x9d030b08       0x7c build/default/production/_ext/126554269/arp.o
                0x9d030b08                TCPIP_ARP_HandlerRegister

.text.DRV_TMR_CounterValueGet
                0x9d030b84       0x78
 .text.DRV_TMR_CounterValueGet
                0x9d030b84       0x78 build/default/production/_ext/494209719/drv_tmr.o
                0x9d030b84                DRV_TMR_CounterValueGet

.text.StartRawMoveTimer
                0x9d030bfc       0x78
 .text.StartRawMoveTimer
                0x9d030bfc       0x78 build/default/production/_ext/412220316/drv_wifi_mac.o
                0x9d030bfc                StartRawMoveTimer

.text.SYS_CONSOLE_Read
                0x9d030c74       0x78
 .text.SYS_CONSOLE_Read
                0x9d030c74       0x78 build/default/production/_ext/595512524/sys_console.o
                0x9d030c74                SYS_CONSOLE_Read

.text._TxSktGetLockedV4Pkt
                0x9d030cec       0x78
 .text._TxSktGetLockedV4Pkt
                0x9d030cec       0x78 build/default/production/_ext/126554269/udp.o

.text._DHCPOptionProcessRouter
                0x9d030d64       0x78
 .text._DHCPOptionProcessRouter
                0x9d030d64       0x78 build/default/production/_ext/126554269/dhcp.o

.text.TCPIP_DHCP_IsEnabled
                0x9d030ddc       0x78
 .text.TCPIP_DHCP_IsEnabled
                0x9d030ddc       0x78 build/default/production/_ext/126554269/dhcp.o
                0x9d030ddc                TCPIP_DHCP_IsEnabled

.text.TCPIP_DHCP_HandlerRegister
                0x9d030e54       0x78
 .text.TCPIP_DHCP_HandlerRegister
                0x9d030e54       0x78 build/default/production/_ext/126554269/dhcp.o
                0x9d030e54                TCPIP_DHCP_HandlerRegister

.text._TCPIP_MacEventCB
                0x9d030ecc       0x78
 .text._TCPIP_MacEventCB
                0x9d030ecc       0x78 build/default/production/_ext/126554269/tcpip_manager.o

.text.TCPIP_PKT_Initialize
                0x9d030f44       0x78
 .text.TCPIP_PKT_Initialize
                0x9d030f44       0x78 build/default/production/_ext/126554269/tcpip_packet.o
                0x9d030f44                TCPIP_PKT_Initialize

.text.vTaskStartScheduler
                0x9d030fbc       0x78
 .text.vTaskStartScheduler
                0x9d030fbc       0x78 build/default/production/_ext/1808430591/tasks.o
                0x9d030fbc                vTaskStartScheduler

.text.DRV_SPI_SYS_QUEUE_FreeElement
                0x9d031034       0x74
 .text.DRV_SPI_SYS_QUEUE_FreeElement
                0x9d031034       0x74 build/default/production/_ext/1908449382/drv_spi_sys_queue_fifo.o
                0x9d031034                DRV_SPI_SYS_QUEUE_FreeElement

.text.DRV_WIFI_PsPollEnable
                0x9d0310a8       0x74
 .text.DRV_WIFI_PsPollEnable
                0x9d0310a8       0x74 build/default/production/_ext/412220316/drv_wifi_power_save.o
                0x9d0310a8                DRV_WIFI_PsPollEnable

.text._TcpSocketSetSourceInterface
                0x9d03111c       0x74
 .text._TcpSocketSetSourceInterface
                0x9d03111c       0x74 build/default/production/_ext/126554269/tcp.o

.text._TcpSwapHeader
                0x9d031190       0x74
 .text._TcpSwapHeader
                0x9d031190       0x74 build/default/production/_ext/126554269/tcp.o

.text._DHCPOptionProcessSubNet
                0x9d031204       0x74
 .text._DHCPOptionProcessSubNet
                0x9d031204       0x74 build/default/production/_ext/126554269/dhcp.o

.text.TCPIP_Helper_StringToPowerMode
                0x9d031278       0x74
 .text.TCPIP_Helper_StringToPowerMode
                0x9d031278       0x74 build/default/production/_ext/126554269/tcpip_helpers.o
                0x9d031278                TCPIP_Helper_StringToPowerMode

.text._TCPIPStackAnyNetLinked
                0x9d0312ec       0x74
 .text._TCPIPStackAnyNetLinked
                0x9d0312ec       0x74 build/default/production/_ext/126554269/tcpip_manager.o
                0x9d0312ec                _TCPIPStackAnyNetLinked

.text._TCPIPStackSignalHandlerRegister
                0x9d031360       0x74
 .text._TCPIPStackSignalHandlerRegister
                0x9d031360       0x74 build/default/production/_ext/126554269/tcpip_manager.o
                0x9d031360                _TCPIPStackSignalHandlerRegister

.text.strncpy   0x9d0313d4       0x74
 .text.strncpy  0x9d0313d4       0x74 d:/program files (x86)/microchip/xc32/v2.30/bin/bin/../../lib/gcc/pic32mx/4.8.3/../../../../pic32mx/lib/fpu64\libc.a(strncpy.o)
                0x9d0313d4                strncpy

.text.ungetc    0x9d031448       0x74
 .text.ungetc   0x9d031448       0x74 d:/program files (x86)/microchip/xc32/v2.30/bin/bin/../../lib/gcc/pic32mx/4.8.3/../../../../pic32mx/lib/fpu64\libc.a(ungetc.o)
                0x9d031448                ungetc

.text._DRV_SPI_SYS_QUEUE_LockQueue
                0x9d000110       0x70
 .text._DRV_SPI_SYS_QUEUE_LockQueue
                0x9d000110       0x70 build/default/production/_ext/1908449382/drv_spi_sys_queue_fifo.o
                0x9d000110                _DRV_SPI_SYS_QUEUE_LockQueue

.text.Cmd_LoadConfig
                0x9d000190       0x70
 .text.Cmd_LoadConfig
                0x9d000190       0x70 build/default/production/_ext/412220316/drv_wifi_commands.o

.text.DRV_WIFI_ChannelListGet
                0x9d0314bc       0x70
 .text.DRV_WIFI_ChannelListGet
                0x9d0314bc       0x70 build/default/production/_ext/412220316/drv_wifi_connection_algorithm.o
                0x9d0314bc                DRV_WIFI_ChannelListGet

.text.DRV_WIFI_SsidGet
                0x9d03152c       0x70
 .text.DRV_WIFI_SsidGet
                0x9d03152c       0x70 build/default/production/_ext/412220316/drv_wifi_connection_profile.o
                0x9d03152c                DRV_WIFI_SsidGet

.rodata         0x9d03159c       0x70
 .rodata        0x9d03159c       0x70 build/default/production/_ext/412220316/drv_wifi_context_loader.o

.text.CommandQuit
                0x9d03160c       0x70
 .text.CommandQuit
                0x9d03160c       0x70 build/default/production/_ext/1052224704/sys_command.o

.text._SYS_TMR_ClientCheckSrvLock
                0x9d03167c       0x70
 .text._SYS_TMR_ClientCheckSrvLock
                0x9d03167c       0x70 build/default/production/_ext/1108686962/sys_tmr.o

.text._UDPClose
                0x9d0316ec       0x70
 .text._UDPClose
                0x9d0316ec       0x70 build/default/production/_ext/126554269/udp.o

.text._ARPSetEntry
                0x9d03175c       0x70
 .text._ARPSetEntry
                0x9d03175c       0x70 build/default/production/_ext/126554269/arp.o

.text._ARPRemoveEntry
                0x9d0317cc       0x70
 .text._ARPRemoveEntry
                0x9d0317cc       0x70 build/default/production/_ext/126554269/arp.o

.rodata         0x9d03183c       0x70
 .rodata        0x9d03183c       0x70 build/default/production/_ext/126554269/dhcp.o

.text.TCPIP_Helper_ProtectedSingleListNodeRemove
                0x9d0318ac       0x70
 .text.TCPIP_Helper_ProtectedSingleListNodeRemove
                0x9d0318ac       0x70 build/default/production/_ext/126554269/tcpip_helpers.o
                0x9d0318ac                TCPIP_Helper_ProtectedSingleListNodeRemove

.text.vPortFree
                0x9d03191c       0x70
 .text.vPortFree
                0x9d03191c       0x70 build/default/production/_ext/508667646/heap_2.o
                0x9d03191c                vPortFree

.text.SYS_Tasks
                0x9d03198c       0x70
 .text.SYS_Tasks
                0x9d03198c       0x70 build/default/production/_ext/1688732426/system_tasks.o
                0x9d03198c                SYS_Tasks

.text.strncmp   0x9d0319fc       0x70
 .text.strncmp  0x9d0319fc       0x70 d:/program files (x86)/microchip/xc32/v2.30/bin/bin/../../lib/gcc/pic32mx/4.8.3/../../../../pic32mx/lib/fpu64\libc.a(strncmp.o)
                0x9d0319fc                strncmp

.text._DRV_SPI_SYS_QUEUE_UnlockQueue
                0x9d031a6c       0x6c
 .text._DRV_SPI_SYS_QUEUE_UnlockQueue
                0x9d031a6c       0x6c build/default/production/_ext/1908449382/drv_spi_sys_queue_fifo.o
                0x9d031a6c                _DRV_SPI_SYS_QUEUE_UnlockQueue

.text.MRF24W_MACOpen
                0x9d031ad8       0x6c
 .text.MRF24W_MACOpen
                0x9d031ad8       0x6c build/default/production/_ext/412220316/drv_wifi_main.o

.text.GetParamMsgSend
                0x9d031b44       0x6c
 .text.GetParamMsgSend
                0x9d031b44       0x6c build/default/production/_ext/412220316/drv_wifi_param_msg.o
                0x9d031b44                GetParamMsgSend

.text._DRV_WIFI_SpiDmaTx
                0x9d031bb0       0x6c
 .text._DRV_WIFI_SpiDmaTx
                0x9d031bb0       0x6c build/default/production/_ext/412220316/drv_wifi_spi.o

.text._DRV_WIFI_SpiDmaRx
                0x9d031c1c       0x6c
 .text._DRV_WIFI_SpiDmaRx
                0x9d031c1c       0x6c build/default/production/_ext/412220316/drv_wifi_spi.o

.text.SYS_CONSOLE_Initialize
                0x9d031c88       0x6c
 .text.SYS_CONSOLE_Initialize
                0x9d031c88       0x6c build/default/production/_ext/595512524/sys_console.o
                0x9d031c88                SYS_CONSOLE_Initialize

.text.SYS_DMA_Initialize
                0x9d031cf4       0x6c
 .text.SYS_DMA_Initialize
                0x9d031cf4       0x6c build/default/production/_ext/1855423469/sys_dma.o
                0x9d031cf4                SYS_DMA_Initialize

.text._TcpSocketKill
                0x9d031d60       0x6c
 .text._TcpSocketKill
                0x9d031d60       0x6c build/default/production/_ext/126554269/tcp.o

.text.TCPIP_UDP_SocketNetSet
                0x9d031dcc       0x6c
 .text.TCPIP_UDP_SocketNetSet
                0x9d031dcc       0x6c build/default/production/_ext/126554269/udp.o
                0x9d031dcc                TCPIP_UDP_SocketNetSet

.text._DHCPCleanup
                0x9d031e38       0x6c
 .text._DHCPCleanup
                0x9d031e38       0x6c build/default/production/_ext/126554269/dhcp.o

.text._DNSGetData
                0x9d031ea4       0x6c
 .text._DNSGetData
                0x9d031ea4       0x6c build/default/production/_ext/126554269/dns.o

.text._TCPIP_AnnounceCleanup
                0x9d031f10       0x6c
 .text._TCPIP_AnnounceCleanup
                0x9d031f10       0x6c build/default/production/_ext/126554269/tcpip_announce.o

.text.TCPIP_ANNOUNCE_Deinitialize
                0x9d031f7c       0x6c
 .text.TCPIP_ANNOUNCE_Deinitialize
                0x9d031f7c       0x6c build/default/production/_ext/126554269/tcpip_announce.o
                0x9d031f7c                TCPIP_ANNOUNCE_Deinitialize

.text.TCPIP_STACK_IsBcastAddress
                0x9d031fe8       0x6c
 .text.TCPIP_STACK_IsBcastAddress
                0x9d031fe8       0x6c build/default/production/_ext/126554269/tcpip_manager.o
                0x9d031fe8                TCPIP_STACK_IsBcastAddress

.text._TCPIP_PKT_SocketAlloc
                0x9d032054       0x6c
 .text._TCPIP_PKT_SocketAlloc
                0x9d032054       0x6c build/default/production/_ext/126554269/tcpip_packet.o
                0x9d032054                _TCPIP_PKT_SocketAlloc

.text.vApplicationSetupTickTimerInterrupt
                0x9d0320c0       0x6c
 .text.vApplicationSetupTickTimerInterrupt
                0x9d0320c0       0x6c build/default/production/_ext/417601773/port.o
                0x9d0320c0                vApplicationSetupTickTimerInterrupt

.text._DRV_TMR_Resume
                0x9d03212c       0x68
 .text._DRV_TMR_Resume
                0x9d03212c       0x68 build/default/production/_ext/494209719/drv_tmr.o

.text.DRV_WIFI_Disconnect
                0x9d032194       0x68
 .text.DRV_WIFI_Disconnect
                0x9d032194       0x68 build/default/production/_ext/412220316/drv_wifi_connection_manager.o
                0x9d032194                DRV_WIFI_Disconnect

.rodata         0x9d0321fc       0xd0
 .rodata        0x9d0321fc       0x68 build/default/production/_ext/412220316/drv_wifi_mgmt_msg.o
 .rodata        0x9d032264       0x68 build/default/production/_ext/412220316/drv_wifi_param_msg.o

.text.Console_UART_Flush
                0x9d0322cc       0x68
 .text.Console_UART_Flush
                0x9d0322cc       0x68 build/default/production/_ext/595512524/sys_console_uart.o
                0x9d0322cc                Console_UART_Flush

.text.SYS_RANDOM_Initialize
                0x9d032334       0x68
 .text.SYS_RANDOM_Initialize
                0x9d032334       0x68 build/default/production/_ext/1304044280/sys_random.o
                0x9d032334                SYS_RANDOM_Initialize

.text.TCPIP_UDP_OpenClientSkt
                0x9d03239c       0x68
 .text.TCPIP_UDP_OpenClientSkt
                0x9d03239c       0x68 build/default/production/_ext/126554269/udp.o
                0x9d03239c                TCPIP_UDP_OpenClientSkt

.text.TCPIP_ARP_HashEntryDelete
                0x9d032404       0x68
 .text.TCPIP_ARP_HashEntryDelete
                0x9d032404       0x68 build/default/production/_ext/126554269/arp.o
                0x9d032404                TCPIP_ARP_HashEntryDelete

.text._DHCPSetRunFail
                0x9d03246c       0x68
 .text._DHCPSetRunFail
                0x9d03246c       0x68 build/default/production/_ext/126554269/dhcp.o

.text._DHCPSetTimeout
                0x9d0324d4       0x68
 .text._DHCPSetTimeout
                0x9d0324d4       0x68 build/default/production/_ext/126554269/dhcp.o

.text.TCPIP_DNS_RemoveEntry
                0x9d03253c       0x68
 .text.TCPIP_DNS_RemoveEntry
                0x9d03253c       0x68 build/default/production/_ext/126554269/dns.o
                0x9d03253c                TCPIP_DNS_RemoveEntry

.text._ZCLLEnable
                0x9d0325a4       0x68
 .text._ZCLLEnable
                0x9d0325a4       0x68 build/default/production/_ext/126554269/zero_conf_link_local.o

.text.TCPIP_ZCLL_Enable
                0x9d03260c       0x68
 .text.TCPIP_ZCLL_Enable
                0x9d03260c       0x68 build/default/production/_ext/126554269/zero_conf_link_local.o
                0x9d03260c                TCPIP_ZCLL_Enable

.text.TCPIP_Helper_ProtectedSingleListDeinitialize
                0x9d032674       0x68
 .text.TCPIP_Helper_ProtectedSingleListDeinitialize
                0x9d032674       0x68 build/default/production/_ext/126554269/tcpip_helpers.o
                0x9d032674                TCPIP_Helper_ProtectedSingleListDeinitialize

.text._sprintf_cdnopuxX
                0x9d0326dc       0x68
 .text._sprintf_cdnopuxX
                0x9d0326dc       0x68 d:/program files (x86)/microchip/xc32/v2.30/bin/bin/../../lib/gcc/pic32mx/4.8.3/../../../../pic32mx/lib/fpu64\libc.a(sprintf_cdnopuxX.eo)
                0x9d0326dc                _sprintf_cdnopuxX

.text._DRV_TMR_ModuleObj
                0x9d032744       0x64
 .text._DRV_TMR_ModuleObj
                0x9d032744       0x64 build/default/production/_ext/494209719/drv_tmr.o

.text.DRV_TMR_AlarmDisable
                0x9d0327a8       0x64
 .text.DRV_TMR_AlarmDisable
                0x9d0327a8       0x64 build/default/production/_ext/494209719/drv_tmr.o
                0x9d0327a8                DRV_TMR_AlarmDisable

.text.DRV_TMR_Start
                0x9d03280c       0x64
 .text.DRV_TMR_Start
                0x9d03280c       0x64 build/default/production/_ext/494209719/drv_tmr.o
                0x9d03280c                DRV_TMR_Start

.rodata         0x9d032870       0x64
 .rodata        0x9d032870       0x64 build/default/production/_ext/412220316/drv_wifi_com.o

.text.DRV_WIFI_ReconnectModeSet
                0x9d0328d4       0x64
 .text.DRV_WIFI_ReconnectModeSet
                0x9d0328d4       0x64 build/default/production/_ext/412220316/drv_wifi_connection_algorithm.o
                0x9d0328d4                DRV_WIFI_ReconnectModeSet

.text.DRV_WIFI_UserEventSet
                0x9d032938       0x64
 .text.DRV_WIFI_UserEventSet
                0x9d032938       0x64 build/default/production/_ext/412220316/drv_wifi_events.o
                0x9d032938                DRV_WIFI_UserEventSet

.text.MRF24W_MACParametersGet
                0x9d03299c       0x64
 .text.MRF24W_MACParametersGet
                0x9d03299c       0x64 build/default/production/_ext/412220316/drv_wifi_main.o

.text.ConfigureLowPowerMode
                0x9d032a00       0x64
 .text.ConfigureLowPowerMode
                0x9d032a00       0x64 build/default/production/_ext/412220316/drv_wifi_power_save.o
                0x9d032a00                ConfigureLowPowerMode

.text.SendCommandCharacter
                0x9d032a64       0x64
 .text.SendCommandCharacter
                0x9d032a64       0x64 build/default/production/_ext/1052224704/sys_command.o

.text.TCPIP_IPV4_Cleanup
                0x9d032ac8       0x64
 .text.TCPIP_IPV4_Cleanup
                0x9d032ac8       0x64 build/default/production/_ext/126554269/ipv4.o

.text.TCPIP_UDP_SignalHandlerRegister
                0x9d032b2c       0x64
 .text.TCPIP_UDP_SignalHandlerRegister
                0x9d032b2c       0x64 build/default/production/_ext/126554269/udp.o
                0x9d032b2c                TCPIP_UDP_SignalHandlerRegister

.text.TCPIP_DHCP_Deinitialize
                0x9d032b90       0x64
 .text.TCPIP_DHCP_Deinitialize
                0x9d032b90       0x64 build/default/production/_ext/126554269/dhcp.o
                0x9d032b90                TCPIP_DHCP_Deinitialize

.text.TCPIP_DNS_ClientInfoGet
                0x9d032bf4       0x64
 .text.TCPIP_DNS_ClientInfoGet
                0x9d032bf4       0x64 build/default/production/_ext/126554269/dns.o
                0x9d032bf4                TCPIP_DNS_ClientInfoGet

.text.TCPIP_ZCLL_Disable
                0x9d032c58       0x64
 .text.TCPIP_ZCLL_Disable
                0x9d032c58       0x64 build/default/production/_ext/126554269/zero_conf_link_local.o
                0x9d032c58                TCPIP_ZCLL_Disable

.text.TCPIP_Commands_Deinitialize
                0x9d032cbc       0x64
 .text.TCPIP_Commands_Deinitialize
                0x9d032cbc       0x64 build/default/production/_ext/126554269/tcpip_commands.o
                0x9d032cbc                TCPIP_Commands_Deinitialize

.text._TCPIPStackModuleRxExtract
                0x9d032d20       0x64
 .text._TCPIPStackModuleRxExtract
                0x9d032d20       0x64 build/default/production/_ext/126554269/tcpip_manager.o
                0x9d032d20                _TCPIPStackModuleRxExtract

.text.DRV_SPI_SYS_QUEUE_AllocElementLock
                0x9d032d84       0x60
 .text.DRV_SPI_SYS_QUEUE_AllocElementLock
                0x9d032d84       0x60 build/default/production/_ext/1908449382/drv_spi_sys_queue_fifo.o
                0x9d032d84                DRV_SPI_SYS_QUEUE_AllocElementLock

.text.DRV_SPI_SYS_QUEUE_EnqueueLock
                0x9d032de4       0x60
 .text.DRV_SPI_SYS_QUEUE_EnqueueLock
                0x9d032de4       0x60 build/default/production/_ext/1908449382/drv_spi_sys_queue_fifo.o
                0x9d032de4                DRV_SPI_SYS_QUEUE_EnqueueLock

.text.DRV_WIFI_SecurityTypeGet
                0x9d032e44       0x60
 .text.DRV_WIFI_SecurityTypeGet
                0x9d032e44       0x60 build/default/production/_ext/412220316/drv_wifi_connection_profile.o
                0x9d032e44                DRV_WIFI_SecurityTypeGet

.text.DRV_WIFI_ScanStart
                0x9d032ea4       0x60
 .text.DRV_WIFI_ScanStart
                0x9d032ea4       0x60 build/default/production/_ext/412220316/drv_wifi_scan_helper.o
                0x9d032ea4                DRV_WIFI_ScanStart

.text.IPv4RegisterFilter
                0x9d032f04       0x60
 .text.IPv4RegisterFilter
                0x9d032f04       0x60 build/default/production/_ext/126554269/ipv4.o
                0x9d032f04                IPv4RegisterFilter

.text._UDPUpdatePacketLock
                0x9d032f64       0x60
 .text._UDPUpdatePacketLock
                0x9d032f64       0x60 build/default/production/_ext/126554269/udp.o

.text.TCPIP_UDP_GetIsReady
                0x9d032fc4       0x60
 .text.TCPIP_UDP_GetIsReady
                0x9d032fc4       0x60 build/default/production/_ext/126554269/udp.o
                0x9d032fc4                TCPIP_UDP_GetIsReady

.text.TCPIP_ARP_CallbacksRegister
                0x9d033024       0x60
 .text.TCPIP_ARP_CallbacksRegister
                0x9d033024       0x60 build/default/production/_ext/126554269/arp.o
                0x9d033024                TCPIP_ARP_CallbacksRegister

.text._DHCPOptionProcessMsgType
                0x9d033084       0x60
 .text._DHCPOptionProcessMsgType
                0x9d033084       0x60 build/default/production/_ext/126554269/dhcp.o

.text._DNSClientCleanup
                0x9d0330e4       0x60
 .text._DNSClientCleanup
                0x9d0330e4       0x60 build/default/production/_ext/126554269/dns.o

.text.ANNOUNCE_Notify
                0x9d033144       0x60
 .text.ANNOUNCE_Notify
                0x9d033144       0x60 build/default/production/_ext/126554269/tcpip_announce.o

.text.TCPIP_OAHASH_EntriesRemoveAll
                0x9d0331a4       0x60
 .text.TCPIP_OAHASH_EntriesRemoveAll
                0x9d0331a4       0x60 build/default/production/_ext/126554269/oahash.o
                0x9d0331a4                TCPIP_OAHASH_EntriesRemoveAll

.rodata         0x9d033204       0x60
 .rodata        0x9d033204       0x60 build/default/production/_ext/126554269/tcpip_helpers.o

.text.TCPIP_Helper_ProtectedSingleListTailAdd
                0x9d033264       0x60
 .text.TCPIP_Helper_ProtectedSingleListTailAdd
                0x9d033264       0x60 build/default/production/_ext/126554269/tcpip_helpers.o
                0x9d033264                TCPIP_Helper_ProtectedSingleListTailAdd

.text.TCPIP_Helper_ProtectedSingleListHeadRemove
                0x9d0332c4       0x60
 .text.TCPIP_Helper_ProtectedSingleListHeadRemove
                0x9d0332c4       0x60 build/default/production/_ext/126554269/tcpip_helpers.o
                0x9d0332c4                TCPIP_Helper_ProtectedSingleListHeadRemove

.text.vTaskExitCritical
                0x9d033324       0x60
 .text.vTaskExitCritical
                0x9d033324       0x60 build/default/production/_ext/1808430591/tasks.o
                0x9d033324                vTaskExitCritical

.text.pxPortInitialiseStack
                0x9d033384       0x60
 .text.pxPortInitialiseStack
                0x9d033384       0x60 build/default/production/_ext/417601773/port.o
                0x9d033384                pxPortInitialiseStack

.text.SYS_PORTS_PinWrite
                0x9d0333e4       0x60
 .text.SYS_PORTS_PinWrite
                0x9d0333e4       0x60 build/default/production/_ext/822048611/sys_ports_static.o
                0x9d0333e4                SYS_PORTS_PinWrite

.text.wspace    0x9d033444       0x60
 .text.wspace   0x9d033444       0x60 d:/program files (x86)/microchip/xc32/v2.30/bin/bin/../../lib/gcc/pic32mx/4.8.3/../../../../pic32mx/lib/fpu64\libc.a(doscan_cdnopuxX.eo)

.text.DRV_TMR_AlarmEnable
                0x9d0334a4       0x5c
 .text.DRV_TMR_AlarmEnable
                0x9d0334a4       0x5c build/default/production/_ext/494209719/drv_tmr.o
                0x9d0334a4                DRV_TMR_AlarmEnable

.text.DRV_WIFI_PendingEventHandle
                0x9d033500       0x5c
 .text.DRV_WIFI_PendingEventHandle
                0x9d033500       0x5c build/default/production/_ext/412220316/drv_wifi_event_handler.o
                0x9d033500                DRV_WIFI_PendingEventHandle

.text.RxQueueDeinit
                0x9d03355c       0x5c
 .text.RxQueueDeinit
                0x9d03355c       0x5c build/default/production/_ext/412220316/drv_wifi_mac.o
                0x9d03355c                RxQueueDeinit

.text.SYS_DMA_ChannelAllocate
                0x9d0335b8       0x5c
 .text.SYS_DMA_ChannelAllocate
                0x9d0335b8       0x5c build/default/production/_ext/1855423469/sys_dma.o
                0x9d0335b8                SYS_DMA_ChannelAllocate

.text._TCPSocketTxFreeSize
                0x9d033614       0x5c
 .text._TCPSocketTxFreeSize
                0x9d033614       0x5c build/default/production/_ext/126554269/tcp.o

.text._TCPIP_HEAP_BufferMapNonCached
                0x9d033670       0x5c
 .text._TCPIP_HEAP_BufferMapNonCached
                0x9d033670       0x5c build/default/production/_ext/126554269/tcpip_heap_alloc.o
                0x9d033670                _TCPIP_HEAP_BufferMapNonCached

.text._DNS_NetIsValid
                0x9d0336cc       0x5c
 .text._DNS_NetIsValid
                0x9d0336cc       0x5c build/default/production/_ext/126554269/dns.o

.text.fnv_32_hash
                0x9d033728       0x5c
 .text.fnv_32_hash
                0x9d033728       0x5c build/default/production/_ext/126554269/hash_fnv.o
                0x9d033728                fnv_32_hash

.text.TCPIP_STACK_MACIdToNet
                0x9d033784       0x5c
 .text.TCPIP_STACK_MACIdToNet
                0x9d033784       0x5c build/default/production/_ext/126554269/tcpip_manager.o
                0x9d033784                TCPIP_STACK_MACIdToNet

.text.vListInsert
                0x9d0337e0       0x5c
 .text.vListInsert
                0x9d0337e0       0x5c build/default/production/_ext/1808430591/list.o
                0x9d0337e0                vListInsert

.text.xPortStartScheduler
                0x9d03383c       0x5c
 .text.xPortStartScheduler
                0x9d03383c       0x5c build/default/production/_ext/417601773/port.o
                0x9d03383c                xPortStartScheduler

.text.DRV_SPI_SYS_QUEUE_Dequeue
                0x9d033898       0x58
 .text.DRV_SPI_SYS_QUEUE_Dequeue
                0x9d033898       0x58 build/default/production/_ext/1908449382/drv_spi_sys_queue_fifo.o
                0x9d033898                DRV_SPI_SYS_QUEUE_Dequeue

.text.DRV_TMR_Open
                0x9d0338f0       0x58
 .text.DRV_TMR_Open
                0x9d0338f0       0x58 build/default/production/_ext/494209719/drv_tmr.o
                0x9d0338f0                DRV_TMR_Open

.text.WpaKeySet
                0x9d033948       0x58
 .text.WpaKeySet
                0x9d033948       0x58 build/default/production/_ext/412220316/drv_wifi_connection_manager.o
                0x9d033948                WpaKeySet

.text.CPElementSet
                0x9d0339a0       0x58
 .text.CPElementSet
                0x9d0339a0       0x58 build/default/production/_ext/412220316/drv_wifi_connection_profile.o

.text.DRV_WIFI_ReinforceWep
                0x9d0339f8       0x58
 .text.DRV_WIFI_ReinforceWep
                0x9d0339f8       0x58 build/default/production/_ext/412220316/drv_wifi_event_handler.o

.text.SendCommandMessage
                0x9d033a50       0x58
 .text.SendCommandMessage
                0x9d033a50       0x58 build/default/production/_ext/1052224704/sys_command.o

.text.TCPIP_IPV4_CheckPktTx
                0x9d033aa8       0x58
 .text.TCPIP_IPV4_CheckPktTx
                0x9d033aa8       0x58 build/default/production/_ext/126554269/ipv4.o

.text._DHCPOptionProcessLease
                0x9d033b00       0x58
 .text._DHCPOptionProcessLease
                0x9d033b00       0x58 build/default/production/_ext/126554269/dhcp.o

.text._DHCPOptionProcessRenewT
                0x9d033b58       0x58
 .text._DHCPOptionProcessRenewT
                0x9d033b58       0x58 build/default/production/_ext/126554269/dhcp.o

.text._DHCPOptionProcessRebindT
                0x9d033bb0       0x58
 .text._DHCPOptionProcessRebindT
                0x9d033bb0       0x58 build/default/production/_ext/126554269/dhcp.o

.text.TCPIP_ZCLL_Deinitialize
                0x9d033c08       0x58
 .text.TCPIP_ZCLL_Deinitialize
                0x9d033c08       0x58 build/default/production/_ext/126554269/zero_conf_link_local.o
                0x9d033c08                TCPIP_ZCLL_Deinitialize

.text.TCPIP_Helper_ProtectedSingleListRemoveAll
                0x9d033c60       0x58
 .text.TCPIP_Helper_ProtectedSingleListRemoveAll
                0x9d033c60       0x58 build/default/production/_ext/126554269/tcpip_helpers.o
                0x9d033c60                TCPIP_Helper_ProtectedSingleListRemoveAll

.text._TCPIPSignalEntrySetNotify
                0x9d033cb8       0x58
 .text._TCPIPSignalEntrySetNotify
                0x9d033cb8       0x58 build/default/production/_ext/126554269/tcpip_manager.o

.text.TCPIP_STACK_InitializeDataGet
                0x9d033d10       0x58
 .text.TCPIP_STACK_InitializeDataGet
                0x9d033d10       0x58 build/default/production/_ext/126554269/tcpip_manager.o
                0x9d033d10                TCPIP_STACK_InitializeDataGet

.text.TCPIP_STACK_NetByAddress
                0x9d033d68       0x58
 .text.TCPIP_STACK_NetByAddress
                0x9d033d68       0x58 build/default/production/_ext/126554269/tcpip_manager.o
                0x9d033d68                TCPIP_STACK_NetByAddress

.text.TCPIP_Notification_Remove
                0x9d033dc0       0x58
 .text.TCPIP_Notification_Remove
                0x9d033dc0       0x58 build/default/production/_ext/126554269/tcpip_notify.o
                0x9d033dc0                TCPIP_Notification_Remove

.text.xQueueCreateMutex
                0x9d033e18       0x58
 .text.xQueueCreateMutex
                0x9d033e18       0x58 build/default/production/_ext/1808430591/queue.o
                0x9d033e18                xQueueCreateMutex

.text.vTaskDelay
                0x9d033e70       0x58
 .text.vTaskDelay
                0x9d033e70       0x58 build/default/production/_ext/1808430591/tasks.o
                0x9d033e70                vTaskDelay

.text.SYS_DEVCON_SystemUnlock
                0x9d033ec8       0x58
 .text.SYS_DEVCON_SystemUnlock
                0x9d033ec8       0x58 build/default/production/_ext/340578644/sys_devcon.o
                0x9d033ec8                SYS_DEVCON_SystemUnlock

.text.TCPIP_STACK_Init
                0x9d033f20       0x58
 .text.TCPIP_STACK_Init
                0x9d033f20       0x58 build/default/production/_ext/1688732426/system_init.o
                0x9d033f20                TCPIP_STACK_Init

.text.ResetPll  0x9d033f78       0x54
 .text.ResetPll
                0x9d033f78       0x54 build/default/production/_ext/412220316/drv_wifi_com.o
                0x9d033f78                ResetPll

.text.DRV_WIFI_MRF24W_ISR
                0x9d033fcc       0x54
 .text.DRV_WIFI_MRF24W_ISR
                0x9d033fcc       0x54 build/default/production/_ext/412220316/drv_wifi_events.o
                0x9d033fcc                DRV_WIFI_MRF24W_ISR

.text.AllocateDataTxBuffer
                0x9d034020       0x54
 .text.AllocateDataTxBuffer
                0x9d034020       0x54 build/default/production/_ext/412220316/drv_wifi_raw.o
                0x9d034020                AllocateDataTxBuffer

.text.SYS_INT_SourceDisable
                0x9d034074       0x54
 .text.SYS_INT_SourceDisable
                0x9d034074       0x54 build/default/production/_ext/2044150628/sys_int_pic32.o
                0x9d034074                SYS_INT_SourceDisable

.text._TCP_PortIsAvailable
                0x9d0340c8       0x54
 .text._TCP_PortIsAvailable
                0x9d0340c8       0x54 build/default/production/_ext/126554269/tcp.o

.text._UDPFreeTxResources
                0x9d03411c       0x54
 .text._UDPFreeTxResources
                0x9d03411c       0x54 build/default/production/_ext/126554269/udp.o

.text.TCPIP_ZCLL_ServiceEnable
                0x9d034170       0x54
 .text.TCPIP_ZCLL_ServiceEnable
                0x9d034170       0x54 build/default/production/_ext/126554269/zero_conf_link_local.o
                0x9d034170                TCPIP_ZCLL_ServiceEnable

.text.TCPIP_STACK_AddressServiceSelect
                0x9d0341c4       0x54
 .text.TCPIP_STACK_AddressServiceSelect
                0x9d0341c4       0x54 build/default/production/_ext/126554269/tcpip_manager.o
                0x9d0341c4                TCPIP_STACK_AddressServiceSelect

.text.vPortIncrementTick
                0x9d034218       0x54
 .text.vPortIncrementTick
                0x9d034218       0x54 build/default/production/_ext/417601773/port.o
                0x9d034218                vPortIncrementTick

.text.main_entry
                0x9d03426c       0x54
 .text.main_entry
                0x9d03426c       0x54 C:\Users\KIKI\AppData\Local\Temp\ccW6W84J.o
                0x9d0342a0                __crt0_exit

.text._sscanf_cdnopuxX
                0x9d0342c0       0x54
 .text._sscanf_cdnopuxX
                0x9d0342c0       0x54 d:/program files (x86)/microchip/xc32/v2.30/bin/bin/../../lib/gcc/pic32mx/4.8.3/../../../../pic32mx/lib/fpu64\libc.a(sscanf_cdnopuxX.eo)
                0x9d0342c0                _sscanf_cdnopuxX

.text._DRV_TMR_Suspend
                0x9d034314       0x50
 .text._DRV_TMR_Suspend
                0x9d034314       0x50 build/default/production/_ext/494209719/drv_tmr.o

.text.ConsoleFlush
                0x9d034364       0x50
 .text.ConsoleFlush
                0x9d034364       0x50 build/default/production/_ext/412220316/drv_wifi_commands.o

.text.CAElementSet
                0x9d0343b4       0x50
 .text.CAElementSet
                0x9d0343b4       0x50 build/default/production/_ext/412220316/drv_wifi_connection_algorithm.o

.text.DRV_WIFI_Connect
                0x9d034404       0x50
 .text.DRV_WIFI_Connect
                0x9d034404       0x50 build/default/production/_ext/412220316/drv_wifi_connection_manager.o
                0x9d034404                DRV_WIFI_Connect

.text._MRF24W_MACEventSetMask
                0x9d034454       0x50
 .text._MRF24W_MACEventSetMask
                0x9d034454       0x50 build/default/production/_ext/412220316/drv_wifi_events.o
                0x9d034454                _MRF24W_MACEventSetMask

.text.SetParamMsgSend
                0x9d0344a4       0x50
 .text.SetParamMsgSend
                0x9d0344a4       0x50 build/default/production/_ext/412220316/drv_wifi_param_msg.o
                0x9d0344a4                SetParamMsgSend

.text.DRV_WIFI_RtsThresholdSet
                0x9d0344f4       0x50
 .text.DRV_WIFI_RtsThresholdSet
                0x9d0344f4       0x50 build/default/production/_ext/412220316/drv_wifi_param_msg.o
                0x9d0344f4                DRV_WIFI_RtsThresholdSet

.text.EnsureWFisAwake
                0x9d034544       0x50
 .text.EnsureWFisAwake
                0x9d034544       0x50 build/default/production/_ext/412220316/drv_wifi_power_save.o
                0x9d034544                EnsureWFisAwake

.text._TCPSetSourceAddress
                0x9d034594       0x50
 .text._TCPSetSourceAddress
                0x9d034594       0x50 build/default/production/_ext/126554269/tcp.o

.text._TCPSetHalfFlushFlag
                0x9d0345e4       0x50
 .text._TCPSetHalfFlushFlag
                0x9d0345e4       0x50 build/default/production/_ext/126554269/tcp.o

.text._TcpFlush
                0x9d034634       0x50
 .text._TcpFlush
                0x9d034634       0x50 build/default/production/_ext/126554269/tcp.o

.text.TCPIP_UDP_Close
                0x9d034684       0x50
 .text.TCPIP_UDP_Close
                0x9d034684       0x50 build/default/production/_ext/126554269/udp.o
                0x9d034684                TCPIP_UDP_Close

.text._DHCPOptionWriteParamRequest
                0x9d0346d4       0x50
 .text._DHCPOptionWriteParamRequest
                0x9d0346d4       0x50 build/default/production/_ext/126554269/dhcp.o

.text._DHCPOptionProcessSrvIdent
                0x9d034724       0x50
 .text._DHCPOptionProcessSrvIdent
                0x9d034724       0x50 build/default/production/_ext/126554269/dhcp.o

.text.TCPIP_DNS_OAHASH_KeyHash
                0x9d034774       0x50
 .text.TCPIP_DNS_OAHASH_KeyHash
                0x9d034774       0x50 build/default/production/_ext/126554269/dns.o

.text.TCPIP_NBNS_Deinitialize
                0x9d0347c4       0x50
 .text.TCPIP_NBNS_Deinitialize
                0x9d0347c4       0x50 build/default/production/_ext/126554269/nbns.o
                0x9d0347c4                TCPIP_NBNS_Deinitialize

.text._ZCLLDisable
                0x9d034814       0x50
 .text._ZCLLDisable
                0x9d034814       0x50 build/default/production/_ext/126554269/zero_conf_link_local.o

.text.TCPIP_STACK_NetMACStatisticsGet
                0x9d034864       0x50
 .text.TCPIP_STACK_NetMACStatisticsGet
                0x9d034864       0x50 build/default/production/_ext/126554269/tcpip_manager.o
                0x9d034864                TCPIP_STACK_NetMACStatisticsGet

.text.TCPIP_STACK_NetMACRegisterStatisticsGet
                0x9d0348b4       0x50
 .text.TCPIP_STACK_NetMACRegisterStatisticsGet
                0x9d0348b4       0x50 build/default/production/_ext/126554269/tcpip_manager.o
                0x9d0348b4                TCPIP_STACK_NetMACRegisterStatisticsGet

.text.TCPIP_Notification_Add
                0x9d034904       0x50
 .text.TCPIP_Notification_Add
                0x9d034904       0x50 build/default/production/_ext/126554269/tcpip_notify.o
                0x9d034904                TCPIP_Notification_Add

.text._TCPIP_PKT_PacketAcknowledge
                0x9d034954       0x50
 .text._TCPIP_PKT_PacketAcknowledge
                0x9d034954       0x50 build/default/production/_ext/126554269/tcpip_packet.o
                0x9d034954                _TCPIP_PKT_PacketAcknowledge

.text.prvCopyDataFromQueue
                0x9d0349a4       0x50
 .text.prvCopyDataFromQueue
                0x9d0349a4       0x50 build/default/production/_ext/1808430591/queue.o

.text.DRV_SPI_ISRDMAMasterSendEventHandler8bit
                0x9d0349f4       0x50
 .text.DRV_SPI_ISRDMAMasterSendEventHandler8bit
                0x9d0349f4       0x50 build/default/production/_ext/977502197/drv_spi_master_dma_tasks.o
                0x9d0349f4                DRV_SPI_ISRDMAMasterSendEventHandler8bit

.text.DRV_SPI_ISRDMAMasterReceiveEventHandler8bit
                0x9d034a44       0x50
 .text.DRV_SPI_ISRDMAMasterReceiveEventHandler8bit
                0x9d034a44       0x50 build/default/production/_ext/977502197/drv_spi_master_dma_tasks.o
                0x9d034a44                DRV_SPI_ISRDMAMasterReceiveEventHandler8bit

.text._SYS_CLK_PeripheralClockRead
                0x9d034a94       0x50
 .text._SYS_CLK_PeripheralClockRead
                0x9d034a94       0x50 build/default/production/_ext/639803181/sys_clk_pic32mz.o
                0x9d034a94                _SYS_CLK_PeripheralClockRead

.text.sbrk      0x9d034ae4       0x50
 .text.sbrk     0x9d034ae4       0x50 d:/program files (x86)/microchip/xc32/v2.30/bin/bin/../../lib/gcc/pic32mx/4.8.3/../../../../pic32mx/lib/fpu64\libpic32.a(sbrk.o)
                0x9d034ae4                sbrk

.text.PowerSaveTask
                0x9d034b34       0x4c
 .text.PowerSaveTask
                0x9d034b34       0x4c build/default/production/_ext/412220316/drv_wifi_com.o
                0x9d034b34                PowerSaveTask

.text.DRV_WIFI_AdhocContextSet
                0x9d034b80       0x4c
 .text.DRV_WIFI_AdhocContextSet
                0x9d034b80       0x4c build/default/production/_ext/412220316/drv_wifi_connection_algorithm.o
                0x9d034b80                DRV_WIFI_AdhocContextSet

.text.DRV_WIFI_PendingEventClear
                0x9d034bcc       0x4c
 .text.DRV_WIFI_PendingEventClear
                0x9d034bcc       0x4c build/default/production/_ext/412220316/drv_wifi_event_handler.o

.text.StopRawMoveTimer
                0x9d034c18       0x4c
 .text.StopRawMoveTimer
                0x9d034c18       0x4c build/default/production/_ext/412220316/drv_wifi_mac.o
                0x9d034c18                StopRawMoveTimer

.text.RawRead   0x9d034c64       0x4c
 .text.RawRead  0x9d034c64       0x4c build/default/production/_ext/412220316/drv_wifi_raw.o
                0x9d034c64                RawRead

.text.RawWrite  0x9d034cb0       0x4c
 .text.RawWrite
                0x9d034cb0       0x4c build/default/production/_ext/412220316/drv_wifi_raw.o
                0x9d034cb0                RawWrite

.rodata         0x9d034cfc       0x4c
 .rodata        0x9d034cfc       0x4c build/default/production/_ext/412220316/drv_wifi_rtos_wrapper.o

.text.OSAL_SEM_PostISR
                0x9d034d48       0x4c
 .text.OSAL_SEM_PostISR
                0x9d034d48       0x4c build/default/production/_ext/2004362140/osal_freertos.o
                0x9d034d48                OSAL_SEM_PostISR

.text.SYS_CONSOLE_Tasks
                0x9d034d94       0x4c
 .text.SYS_CONSOLE_Tasks
                0x9d034d94       0x4c build/default/production/_ext/595512524/sys_console.o
                0x9d034d94                SYS_CONSOLE_Tasks

.text.UARTDeviceEventHandler
                0x9d034de0       0x4c
 .text.UARTDeviceEventHandler
                0x9d034de0       0x4c build/default/production/_ext/595512524/sys_console_uart.o
                0x9d034de0                UARTDeviceEventHandler

.text.SYS_RESET_SoftwareReset
                0x9d034e2c       0x4c
 .text.SYS_RESET_SoftwareReset
                0x9d034e2c       0x4c build/default/production/_ext/398504132/sys_reset.o
                0x9d034e2c                SYS_RESET_SoftwareReset

.text.SYS_TMR_TickCountGetLong
                0x9d034e78       0x4c
 .text.SYS_TMR_TickCountGetLong
                0x9d034e78       0x4c build/default/production/_ext/1108686962/sys_tmr.o
                0x9d034e78                SYS_TMR_TickCountGetLong

.text.TCPIP_UDP_Discard
                0x9d034ec4       0x4c
 .text.TCPIP_UDP_Discard
                0x9d034ec4       0x4c build/default/production/_ext/126554269/udp.o
                0x9d034ec4                TCPIP_UDP_Discard

.text._TCPIP_HEAP_Calloc
                0x9d034f10       0x4c
 .text._TCPIP_HEAP_Calloc
                0x9d034f10       0x4c build/default/production/_ext/126554269/tcpip_heap_internal.o

.text._ARPRemoveCacheEntries
                0x9d034f5c       0x4c
 .text._ARPRemoveCacheEntries
                0x9d034f5c       0x4c build/default/production/_ext/126554269/arp.o

.text.TCPIP_NBNS_Cleanup
                0x9d034fa8       0x4c
 .text.TCPIP_NBNS_Cleanup
                0x9d034fa8       0x4c build/default/production/_ext/126554269/nbns.o

.text.TCPIP_Helper_ProtectedSingleListInitialize
                0x9d034ff4       0x4c
 .text.TCPIP_Helper_ProtectedSingleListInitialize
                0x9d034ff4       0x4c build/default/production/_ext/126554269/tcpip_helpers.o
                0x9d034ff4                TCPIP_Helper_ProtectedSingleListInitialize

.text.TCPIP_STACK_NetAddressMacSet
                0x9d035040       0x4c
 .text.TCPIP_STACK_NetAddressMacSet
                0x9d035040       0x4c build/default/production/_ext/126554269/tcpip_manager.o
                0x9d035040                TCPIP_STACK_NetAddressMacSet

.text.TCPIP_STACK_MACIdToString
                0x9d03508c       0x4c
 .text.TCPIP_STACK_MACIdToString
                0x9d03508c       0x4c build/default/production/_ext/126554269/tcpip_manager.o
                0x9d03508c                TCPIP_STACK_MACIdToString

.text.TCPIP_STACK_DNSServiceCanStart
                0x9d0350d8       0x4c
 .text.TCPIP_STACK_DNSServiceCanStart
                0x9d0350d8       0x4c build/default/production/_ext/126554269/tcpip_manager.o
                0x9d0350d8                TCPIP_STACK_DNSServiceCanStart

.text._TCPIPStackSignalHandlerSetParams
                0x9d035124       0x4c
 .text._TCPIPStackSignalHandlerSetParams
                0x9d035124       0x4c build/default/production/_ext/126554269/tcpip_manager.o
                0x9d035124                _TCPIPStackSignalHandlerSetParams

.text.TCPIP_Notification_RemoveAll
                0x9d035170       0x4c
 .text.TCPIP_Notification_RemoveAll
                0x9d035170       0x4c build/default/production/_ext/126554269/tcpip_notify.o
                0x9d035170                TCPIP_Notification_RemoveAll

.text.calloc    0x9d0351bc       0x4c
 .text.calloc   0x9d0351bc       0x4c d:/program files (x86)/microchip/xc32/v2.30/bin/bin/../../lib/gcc/pic32mx/4.8.3/../../../../pic32mx/lib/fpu64\libc.a(calloc.o)
                0x9d0351bc                calloc

.text.DRV_TMR_Close
                0x9d035208       0x48
 .text.DRV_TMR_Close
                0x9d035208       0x48 build/default/production/_ext/494209719/drv_tmr.o
                0x9d035208                DRV_TMR_Close

.text.DRV_WIFI_INT_SourceEnable
                0x9d035250       0x48
 .text.DRV_WIFI_INT_SourceEnable
                0x9d035250       0x48 build/default/production/_ext/412220316/drv_wifi_eint.o
                0x9d035250                DRV_WIFI_INT_SourceEnable

.text.DRV_WIFI_PendingEventSet
                0x9d035298       0x48
 .text.DRV_WIFI_PendingEventSet
                0x9d035298       0x48 build/default/production/_ext/412220316/drv_wifi_event_handler.o
                0x9d035298                DRV_WIFI_PendingEventSet

.text.DRV_WIFI_Deinitialize
                0x9d0352e0       0x48
 .text.DRV_WIFI_Deinitialize
                0x9d0352e0       0x48 build/default/production/_ext/412220316/drv_wifi_init.o
                0x9d0352e0                DRV_WIFI_Deinitialize

.text.MRF24W_MACTxPacket
                0x9d035328       0x48
 .text.MRF24W_MACTxPacket
                0x9d035328       0x48 build/default/production/_ext/412220316/drv_wifi_main.o

.text.OSAL_CRIT_Enter
                0x9d035370       0x48
 .text.OSAL_CRIT_Enter
                0x9d035370       0x48 build/default/production/_ext/2004362140/osal_freertos.o
                0x9d035370                OSAL_CRIT_Enter

.text._UDPIsAvailablePort
                0x9d0353b8       0x48
 .text._UDPIsAvailablePort
                0x9d0353b8       0x48 build/default/production/_ext/126554269/udp.o

.text.TCPIP_HEAP_Create
                0x9d035400       0x48
 .text.TCPIP_HEAP_Create
                0x9d035400       0x48 build/default/production/_ext/126554269/tcpip_heap_alloc.o
                0x9d035400                TCPIP_HEAP_Create

.text.TCPIP_ARP_HandlerDeRegister
                0x9d035448       0x48
 .text.TCPIP_ARP_HandlerDeRegister
                0x9d035448       0x48 build/default/production/_ext/126554269/arp.o
                0x9d035448                TCPIP_ARP_HandlerDeRegister

.text._DHCPOptionWriteMsgType
                0x9d035490       0x48
 .text._DHCPOptionWriteMsgType
                0x9d035490       0x48 build/default/production/_ext/126554269/dhcp.o

.text.TCPIP_Helper_SingleListAppend
                0x9d0354d8       0x48
 .text.TCPIP_Helper_SingleListAppend
                0x9d0354d8       0x48 build/default/production/_ext/126554269/tcpip_helpers.o
                0x9d0354d8                TCPIP_Helper_SingleListAppend

.text.TCPIP_STACK_IPAddToNet
                0x9d035520       0x48
 .text.TCPIP_STACK_IPAddToNet
                0x9d035520       0x48 build/default/production/_ext/126554269/tcpip_manager.o
                0x9d035520                TCPIP_STACK_IPAddToNet

.text.TCPIP_STACK_NetworkAddressSet
                0x9d035568       0x48
 .text.TCPIP_STACK_NetworkAddressSet
                0x9d035568       0x48 build/default/production/_ext/126554269/tcpip_manager.o
                0x9d035568                TCPIP_STACK_NetworkAddressSet

.text.TCPIP_STACK_NetAddressSet
                0x9d0355b0       0x48
 .text.TCPIP_STACK_NetAddressSet
                0x9d0355b0       0x48 build/default/production/_ext/126554269/tcpip_manager.o
                0x9d0355b0                TCPIP_STACK_NetAddressSet

.text.vTaskEnterCritical
                0x9d0355f8       0x48
 .text.vTaskEnterCritical
                0x9d0355f8       0x48 build/default/production/_ext/1808430591/tasks.o
                0x9d0355f8                vTaskEnterCritical

.text.SYS_CLK_SecondaryOscillatorEnable
                0x9d035640       0x48
 .text.SYS_CLK_SecondaryOscillatorEnable
                0x9d035640       0x48 build/default/production/_ext/639803181/sys_clk.o
                0x9d035640                SYS_CLK_SecondaryOscillatorEnable

.text.SYS_DEVCON_SystemLock
                0x9d035688       0x48
 .text.SYS_DEVCON_SystemLock
                0x9d035688       0x48 build/default/production/_ext/340578644/sys_devcon.o
                0x9d035688                SYS_DEVCON_SystemLock

.text._SYS_Tasks
                0x9d0356d0       0x48
 .text._SYS_Tasks
                0x9d0356d0       0x48 build/default/production/_ext/1688732426/system_tasks.o

.text._bootstrap_exception_handler
                0x9d035718       0x48
 .text._bootstrap_exception_handler
                0x9d035718       0x48 d:/program files (x86)/microchip/xc32/v2.30/bin/bin/../../lib/gcc/pic32mx/4.8.3/../../../../pic32mx/lib/fpu64\libpic32.a(default-bootstrap-exception-handler.o)
                0x9d035718                _bootstrap_exception_handler

.text._cache_err_exception_handler
                0x9d035760       0x48
 .text._cache_err_exception_handler
                0x9d035760       0x48 d:/program files (x86)/microchip/xc32/v2.30/bin/bin/../../lib/gcc/pic32mx/4.8.3/../../../../pic32mx/lib/fpu64\libpic32.a(default-cache-err-exception-handler.o)
                0x9d035760                _cache_err_exception_handler

.text._simple_tlb_refill_exception_handler
                0x9d0357a8       0x48
 .text._simple_tlb_refill_exception_handler
                0x9d0357a8       0x48 d:/program files (x86)/microchip/xc32/v2.30/bin/bin/../../lib/gcc/pic32mx/4.8.3/../../../../pic32mx/lib/fpu64\libpic32.a(default-simple-tlb-refill-exception-handler.o)
                0x9d0357a8                _simple_tlb_refill_exception_handler

.text.ConnectionProfileCreate
                0x9d0357f0       0x44
 .text.ConnectionProfileCreate
                0x9d0357f0       0x44 build/default/production/_ext/412220316/drv_wifi_connection_profile.o
                0x9d0357f0                ConnectionProfileCreate

.text.MRF24W_MACEventDeInit
                0x9d035834       0x44
 .text.MRF24W_MACEventDeInit
                0x9d035834       0x44 build/default/production/_ext/412220316/drv_wifi_events.o
                0x9d035834                MRF24W_MACEventDeInit

.text.RxTxUnLockTimerStart
                0x9d035878       0x44
 .text.RxTxUnLockTimerStart
                0x9d035878       0x44 build/default/production/_ext/412220316/drv_wifi_mac.o
                0x9d035878                RxTxUnLockTimerStart

.text.SendPowerModeMsg
                0x9d0358bc       0x44
 .text.SendPowerModeMsg
                0x9d0358bc       0x44 build/default/production/_ext/412220316/drv_wifi_power_save.o

.text.OSAL_CRIT_Leave
                0x9d035900       0x44
 .text.OSAL_CRIT_Leave
                0x9d035900       0x44 build/default/production/_ext/2004362140/osal_freertos.o
                0x9d035900                OSAL_CRIT_Leave

.text.IsCommandReady
                0x9d035944       0x44
 .text.IsCommandReady
                0x9d035944       0x44 build/default/production/_ext/1052224704/sys_command.o

.text.Ipv4DeRegisterFilter
                0x9d035988       0x44
 .text.Ipv4DeRegisterFilter
                0x9d035988       0x44 build/default/production/_ext/126554269/ipv4.o
                0x9d035988                Ipv4DeRegisterFilter

.text.TCPIP_TCP_IsConnected
                0x9d0359cc       0x44
 .text.TCPIP_TCP_IsConnected
                0x9d0359cc       0x44 build/default/production/_ext/126554269/tcp.o
                0x9d0359cc                TCPIP_TCP_IsConnected

.text.TCPIP_UDP_TxPointerGet
                0x9d035a10       0x44
 .text.TCPIP_UDP_TxPointerGet
                0x9d035a10       0x44 build/default/production/_ext/126554269/udp.o
                0x9d035a10                TCPIP_UDP_TxPointerGet

.text._SwapARPPacket
                0x9d035a54       0x44
 .text._SwapARPPacket
                0x9d035a54       0x44 build/default/production/_ext/126554269/arp.o

.text.TCPIP_DHCP_HandlerDeRegister
                0x9d035a98       0x44
 .text.TCPIP_DHCP_HandlerDeRegister
                0x9d035a98       0x44 build/default/production/_ext/126554269/dhcp.o
                0x9d035a98                TCPIP_DHCP_HandlerDeRegister

.text._TCPIP_STACK_TickHandler
                0x9d035adc       0x44
 .text._TCPIP_STACK_TickHandler
                0x9d035adc       0x44 build/default/production/_ext/126554269/tcpip_manager.o

.text.TCPIP_STACK_NetMask
                0x9d035b20       0x44
 .text.TCPIP_STACK_NetMask
                0x9d035b20       0x44 build/default/production/_ext/126554269/tcpip_manager.o
                0x9d035b20                TCPIP_STACK_NetMask

.text.TCPIP_STACK_NetIsBcastAddress
                0x9d035b64       0x44
 .text.TCPIP_STACK_NetIsBcastAddress
                0x9d035b64       0x44 build/default/production/_ext/126554269/tcpip_manager.o
                0x9d035b64                TCPIP_STACK_NetIsBcastAddress

.text.TCPIP_STACK_NetIsLinked
                0x9d035ba8       0x44
 .text.TCPIP_STACK_NetIsLinked
                0x9d035ba8       0x44 build/default/production/_ext/126554269/tcpip_manager.o
                0x9d035ba8                TCPIP_STACK_NetIsLinked

.text.TCPIP_STACK_NetAddressMac
                0x9d035bec       0x44
 .text.TCPIP_STACK_NetAddressMac
                0x9d035bec       0x44 build/default/production/_ext/126554269/tcpip_manager.o
                0x9d035bec                TCPIP_STACK_NetAddressMac

.text.uxListRemove
                0x9d035c30       0x44
 .text.uxListRemove
                0x9d035c30       0x44 build/default/production/_ext/1808430591/list.o
                0x9d035c30                uxListRemove

.text           0x9d035c74       0x44
 .text          0x9d035c74       0x44 d:/program files (x86)/microchip/xc32/v2.30/bin/bin/../../lib/gcc/pic32mx/4.8.3/../../../../pic32mx/lib/fpu64\pic32_software_reset.o
                0x9d035c74                __pic32_software_reset

.text.DRV_SPI_SYS_QUEUE_Enqueue
                0x9d035cb8       0x40
 .text.DRV_SPI_SYS_QUEUE_Enqueue
                0x9d035cb8       0x40 build/default/production/_ext/1908449382/drv_spi_sys_queue_fifo.o
                0x9d035cb8                DRV_SPI_SYS_QUEUE_Enqueue

.text.DRV_WIFI_PsPollDisable
                0x9d035cf8       0x40
 .text.DRV_WIFI_PsPollDisable
                0x9d035cf8       0x40 build/default/production/_ext/412220316/drv_wifi_power_save.o
                0x9d035cf8                DRV_WIFI_PsPollDisable

.text.DRV_WIFI_HibernateEnable
                0x9d035d38       0x40
 .text.DRV_WIFI_HibernateEnable
                0x9d035d38       0x40 build/default/production/_ext/412220316/drv_wifi_power_save.o
                0x9d035d38                DRV_WIFI_HibernateEnable

.text.OSAL_SEM_Pend
                0x9d035d78       0x40
 .text.OSAL_SEM_Pend
                0x9d035d78       0x40 build/default/production/_ext/2004362140/osal_freertos.o
                0x9d035d78                OSAL_SEM_Pend

.text.OSAL_MUTEX_Lock
                0x9d035db8       0x40
 .text.OSAL_MUTEX_Lock
                0x9d035db8       0x40 build/default/production/_ext/2004362140/osal_freertos.o
                0x9d035db8                OSAL_MUTEX_Lock

.rodata         0x9d035df8       0x40
 .rodata        0x9d035df8       0x40 build/default/production/_ext/126554269/ipv4.o

.text.TCPIP_ICMP_Deinitialize
                0x9d035e38       0x40
 .text.TCPIP_ICMP_Deinitialize
                0x9d035e38       0x40 build/default/production/_ext/126554269/icmp.o
                0x9d035e38                TCPIP_ICMP_Deinitialize

.text._ZCLLCleanup
                0x9d035e78       0x40
 .text._ZCLLCleanup
                0x9d035e78       0x40 build/default/production/_ext/126554269/zero_conf_link_local.o

.text           0x9d035eb8       0x40
 .text          0x9d035eb8       0x40 d:/program files (x86)/microchip/xc32/v2.30/bin/bin/../../lib/gcc/pic32mx/4.8.3/fpu64\libgcc.a(_cmpdi2.o)
                0x9d035eb8                __cmpdi2

.text._DRV_SPI_RootDriverDeinitialization
                0x9d035ef8       0x3c
 .text._DRV_SPI_RootDriverDeinitialization
                0x9d035ef8       0x3c build/default/production/_ext/110609098/drv_spi.o

.text.DRV_WIFI_DataCacheClean
                0x9d035f34       0x3c
 .text.DRV_WIFI_DataCacheClean
                0x9d035f34       0x3c build/default/production/_ext/412220316/drv_wifi_com.o
                0x9d035f34                DRV_WIFI_DataCacheClean

.text.Cmd_Init  0x9d035f70       0x3c
 .text.Cmd_Init
                0x9d035f70       0x3c build/default/production/_ext/412220316/drv_wifi_commands.o
                0x9d035f70                Cmd_Init

.text.DataRxTx_Handle
                0x9d035fac       0x3c
 .text.DataRxTx_Handle
                0x9d035fac       0x3c build/default/production/_ext/412220316/drv_wifi_main.o

.text.DRV_WIFI_RtsThresholdGet
                0x9d035fe8       0x3c
 .text.DRV_WIFI_RtsThresholdGet
                0x9d035fe8       0x3c build/default/production/_ext/412220316/drv_wifi_param_msg.o
                0x9d035fe8                DRV_WIFI_RtsThresholdGet

.text.OSAL_MUTEX_Create
                0x9d036024       0x3c
 .text.OSAL_MUTEX_Create
                0x9d036024       0x3c build/default/production/_ext/2004362140/osal_freertos.o
                0x9d036024                OSAL_MUTEX_Create

.text.Console_UART_ReadC
                0x9d036060       0x3c
 .text.Console_UART_ReadC
                0x9d036060       0x3c build/default/production/_ext/595512524/sys_console_uart.o
                0x9d036060                Console_UART_ReadC

.text.SYS_TMR_ObjectDelete
                0x9d03609c       0x3c
 .text.SYS_TMR_ObjectDelete
                0x9d03609c       0x3c build/default/production/_ext/1108686962/sys_tmr.o
                0x9d03609c                SYS_TMR_ObjectDelete

.text._TCPIsGetReady
                0x9d0360d8       0x3c
 .text._TCPIsGetReady
                0x9d0360d8       0x3c build/default/production/_ext/126554269/tcp.o

.text._UDPTxPktValid
                0x9d036114       0x3c
 .text._UDPTxPktValid
                0x9d036114       0x3c build/default/production/_ext/126554269/udp.o

.text._UDPFreeRxQueue
                0x9d036150       0x3c
 .text._UDPFreeRxQueue
                0x9d036150       0x3c build/default/production/_ext/126554269/udp.o

.text._ARPTxAckFnc
                0x9d03618c       0x3c
 .text._ARPTxAckFnc
                0x9d03618c       0x3c build/default/production/_ext/126554269/arp.o

.text.TCPIP_ARP_HashKeyHash
                0x9d0361c8       0x3c
 .text.TCPIP_ARP_HashKeyHash
                0x9d0361c8       0x3c build/default/production/_ext/126554269/arp.o
                0x9d0361c8                TCPIP_ARP_HashKeyHash

.text.TCPIP_DNS_IsResolved
                0x9d036204       0x3c
 .text.TCPIP_DNS_IsResolved
                0x9d036204       0x3c build/default/production/_ext/126554269/dns.o
                0x9d036204                TCPIP_DNS_IsResolved

.text.TCPIP_OAHASH_Initialize
                0x9d036240       0x3c
 .text.TCPIP_OAHASH_Initialize
                0x9d036240       0x3c build/default/production/_ext/126554269/oahash.o
                0x9d036240                TCPIP_OAHASH_Initialize

.text.TCPIP_Helper_SingleListHeadRemove
                0x9d03627c       0x3c
 .text.TCPIP_Helper_SingleListHeadRemove
                0x9d03627c       0x3c build/default/production/_ext/126554269/tcpip_helpers.o
                0x9d03627c                TCPIP_Helper_SingleListHeadRemove

.text._TCPIPSignalEntryNotify
                0x9d0362b8       0x3c
 .text._TCPIPSignalEntryNotify
                0x9d0362b8       0x3c build/default/production/_ext/126554269/tcpip_manager.o

.text._TCPIPStackSetConfigAddress
                0x9d0362f4       0x3c
 .text._TCPIPStackSetConfigAddress
                0x9d0362f4       0x3c build/default/production/_ext/126554269/tcpip_manager.o
                0x9d0362f4                _TCPIPStackSetConfigAddress

.text.TCPIP_STACK_Deinitialize
                0x9d036330       0x3c
 .text.TCPIP_STACK_Deinitialize
                0x9d036330       0x3c build/default/production/_ext/126554269/tcpip_manager.o
                0x9d036330                TCPIP_STACK_Deinitialize

.text.uxPortSetInterruptMaskFromISR
                0x9d03636c       0x3c
 .text.uxPortSetInterruptMaskFromISR
                0x9d03636c       0x3c build/default/production/_ext/417601773/port.o
                0x9d03636c                uxPortSetInterruptMaskFromISR

.text._general_exception_handler
                0x9d0363a8       0x3c
 .text._general_exception_handler
                0x9d0363a8       0x3c build/default/production/_ext/1688732426/system_exceptions.o
                0x9d0363a8                _general_exception_handler

.text.DRV_WIFI_SecurityWepSet
                0x9d0363e4       0x38
 .text.DRV_WIFI_SecurityWepSet
                0x9d0363e4       0x38 build/default/production/_ext/412220316/drv_wifi_connection_profile.o
                0x9d0363e4                DRV_WIFI_SecurityWepSet

.text._MRF24W_MACProcess
                0x9d03641c       0x38
 .text._MRF24W_MACProcess
                0x9d03641c       0x38 build/default/production/_ext/412220316/drv_wifi_main.o

.text.hmac_sha1
                0x9d036454       0x38
 .text.hmac_sha1
                0x9d036454       0x38 build/default/production/_ext/412220316/drv_wifi_pbkdf2.o
                0x9d036454                hmac_sha1

.text.DRV_WIFI_SoftAPClientCache_Init
                0x9d03648c       0x38
 .text.DRV_WIFI_SoftAPClientCache_Init
                0x9d03648c       0x38 build/default/production/_ext/412220316/drv_wifi_softap_client_cache.o
                0x9d03648c                DRV_WIFI_SoftAPClientCache_Init

.text.CommandReset
                0x9d0364c4       0x38
 .text.CommandReset
                0x9d0364c4       0x38 build/default/production/_ext/1052224704/sys_command.o

.text._ARPAllocateTxPacket
                0x9d0364fc       0x38
 .text._ARPAllocateTxPacket
                0x9d0364fc       0x38 build/default/production/_ext/126554269/arp.o

.text.TCPIP_ARP_CallbacksDeregister
                0x9d036534       0x38
 .text.TCPIP_ARP_CallbacksDeregister
                0x9d036534       0x38 build/default/production/_ext/126554269/arp.o
                0x9d036534                TCPIP_ARP_CallbacksDeregister

.text.TCPIP_DHCP_Enable
                0x9d03656c       0x38
 .text.TCPIP_DHCP_Enable
                0x9d03656c       0x38 build/default/production/_ext/126554269/dhcp.o
                0x9d03656c                TCPIP_DHCP_Enable

.text.TCPIP_DHCP_Renew
                0x9d0365a4       0x38
 .text.TCPIP_DHCP_Renew
                0x9d0365a4       0x38 build/default/production/_ext/126554269/dhcp.o
                0x9d0365a4                TCPIP_DHCP_Renew

.text.TCPIP_DHCP_Request
                0x9d0365dc       0x38
 .text.TCPIP_DHCP_Request
                0x9d0365dc       0x38 build/default/production/_ext/126554269/dhcp.o
                0x9d0365dc                TCPIP_DHCP_Request

.text.TCPIP_STACK_IndexToNet
                0x9d036614       0x38
 .text.TCPIP_STACK_IndexToNet
                0x9d036614       0x38 build/default/production/_ext/126554269/tcpip_manager.o
                0x9d036614                TCPIP_STACK_IndexToNet

.text.TCPIP_STACK_AddressServiceDefaultSet
                0x9d03664c       0x38
 .text.TCPIP_STACK_AddressServiceDefaultSet
                0x9d03664c       0x38 build/default/production/_ext/126554269/tcpip_manager.o
                0x9d03664c                TCPIP_STACK_AddressServiceDefaultSet

.text.TCPIP_PKT_PayloadLen
                0x9d036684       0x38
 .text.TCPIP_PKT_PayloadLen
                0x9d036684       0x38 build/default/production/_ext/126554269/tcpip_packet.o
                0x9d036684                TCPIP_PKT_PayloadLen

.text.prvResetNextTaskUnblockTime
                0x9d0366bc       0x38
 .text.prvResetNextTaskUnblockTime
                0x9d0366bc       0x38 build/default/production/_ext/1808430591/tasks.o

.text.vTaskPlaceOnEventList
                0x9d0366f4       0x38
 .text.vTaskPlaceOnEventList
                0x9d0366f4       0x38 build/default/production/_ext/1808430591/tasks.o
                0x9d0366f4                vTaskPlaceOnEventList

.text.DRV_SPI_SYS_QUEUE_Deinitialize
                0x9d03672c       0x34
 .text.DRV_SPI_SYS_QUEUE_Deinitialize
                0x9d03672c       0x34 build/default/production/_ext/1908449382/drv_spi_sys_queue_fifo.o
                0x9d03672c                DRV_SPI_SYS_QUEUE_Deinitialize

.text.DRV_WIFI_TimerTaskRun
                0x9d036760       0x34
 .text.DRV_WIFI_TimerTaskRun
                0x9d036760       0x34 build/default/production/_ext/412220316/drv_wifi_com.o
                0x9d036760                DRV_WIFI_TimerTaskRun

.text.DRV_WIFI_ConfigDataDelete
                0x9d036794       0x34
 .text.DRV_WIFI_ConfigDataDelete
                0x9d036794       0x34 build/default/production/_ext/412220316/drv_wifi_config_data.o
                0x9d036794                DRV_WIFI_ConfigDataDelete

.text.DRV_WIFI_NetworkTypeSet
                0x9d0367c8       0x34
 .text.DRV_WIFI_NetworkTypeSet
                0x9d0367c8       0x34 build/default/production/_ext/412220316/drv_wifi_connection_profile.o
                0x9d0367c8                DRV_WIFI_NetworkTypeSet

.text.SetWepKeyType
                0x9d0367fc       0x34
 .text.SetWepKeyType
                0x9d0367fc       0x34 build/default/production/_ext/412220316/drv_wifi_connection_profile.o
                0x9d0367fc                SetWepKeyType

.text.DRV_WIFI_PendingEventGet
                0x9d036830       0x34
 .text.DRV_WIFI_PendingEventGet
                0x9d036830       0x34 build/default/production/_ext/412220316/drv_wifi_event_handler.o
                0x9d036830                DRV_WIFI_PendingEventGet

.text.DRV_WIFI_SpiClose
                0x9d036864       0x34
 .text.DRV_WIFI_SpiClose
                0x9d036864       0x34 build/default/production/_ext/412220316/drv_wifi_spi.o
                0x9d036864                DRV_WIFI_SpiClose

.text._TcpSocketChk
                0x9d036898       0x34
 .text._TcpSocketChk
                0x9d036898       0x34 build/default/production/_ext/126554269/tcp.o

.text.TCPIP_TCP_GetIsReady
                0x9d0368cc       0x34
 .text.TCPIP_TCP_GetIsReady
                0x9d0368cc       0x34 build/default/production/_ext/126554269/tcp.o
                0x9d0368cc                TCPIP_TCP_GetIsReady

.text._UDPSocketDcpt
                0x9d036900       0x34
 .text._UDPSocketDcpt
                0x9d036900       0x34 build/default/production/_ext/126554269/udp.o

.text.TCPIP_Helper_ProtectedSingleListLock
                0x9d036934       0x34
 .text.TCPIP_Helper_ProtectedSingleListLock
                0x9d036934       0x34 build/default/production/_ext/126554269/tcpip_helpers.o
                0x9d036934                TCPIP_Helper_ProtectedSingleListLock

.text.TCPIP_Helper_ProtectedSingleListUnlock
                0x9d036968       0x34
 .text.TCPIP_Helper_ProtectedSingleListUnlock
                0x9d036968       0x34 build/default/production/_ext/126554269/tcpip_helpers.o
                0x9d036968                TCPIP_Helper_ProtectedSingleListUnlock

.text.TCPIP_STACK_NetAddressBcast
                0x9d03699c       0x34
 .text.TCPIP_STACK_NetAddressBcast
                0x9d03699c       0x34 build/default/production/_ext/126554269/tcpip_manager.o
                0x9d03699c                TCPIP_STACK_NetAddressBcast

.text.TCPIP_STACK_DNSServiceSelect
                0x9d0369d0       0x34
 .text.TCPIP_STACK_DNSServiceSelect
                0x9d0369d0       0x34 build/default/production/_ext/126554269/tcpip_manager.o
                0x9d0369d0                TCPIP_STACK_DNSServiceSelect

.text.TCPIP_STACK_NetAddress
                0x9d036a04       0x34
 .text.TCPIP_STACK_NetAddress
                0x9d036a04       0x34 build/default/production/_ext/126554269/tcpip_manager.o
                0x9d036a04                TCPIP_STACK_NetAddress

.text._TCPIPStackHandleToNetLinked
                0x9d036a38       0x34
 .text._TCPIPStackHandleToNetLinked
                0x9d036a38       0x34 build/default/production/_ext/126554269/tcpip_manager.o
                0x9d036a38                _TCPIPStackHandleToNetLinked

.text.TCPIP_STACK_NetIsReady
                0x9d036a6c       0x34
 .text.TCPIP_STACK_NetIsReady
                0x9d036a6c       0x34 build/default/production/_ext/126554269/tcpip_manager.o
                0x9d036a6c                TCPIP_STACK_NetIsReady

.text.xQueueCreateCountingSemaphore
                0x9d036aa0       0x34
 .text.xQueueCreateCountingSemaphore
                0x9d036aa0       0x34 build/default/production/_ext/1808430591/queue.o
                0x9d036aa0                xQueueCreateCountingSemaphore

.text.IntHandlerExternalInterruptInstance0
                0x9d036ad4       0x34
 .text.IntHandlerExternalInterruptInstance0
                0x9d036ad4       0x34 build/default/production/_ext/1688732426/system_interrupt.o
                0x9d036ad4                IntHandlerExternalInterruptInstance0

.text.SetListenInterval
                0x9d036b08       0x30
 .text.SetListenInterval
                0x9d036b08       0x30 build/default/production/_ext/412220316/drv_wifi_connection_algorithm.o
                0x9d036b08                SetListenInterval

.text.SetDtimInterval
                0x9d036b38       0x30
 .text.SetDtimInterval
                0x9d036b38       0x30 build/default/production/_ext/412220316/drv_wifi_connection_algorithm.o
                0x9d036b38                SetDtimInterval

.text.MRF24W_MACEventInit
                0x9d036b68       0x30
 .text.MRF24W_MACEventInit
                0x9d036b68       0x30 build/default/production/_ext/412220316/drv_wifi_events.o
                0x9d036b68                MRF24W_MACEventInit

.text.DRV_WIFI_Deferred_ISR
                0x9d036b98       0x30
 .text.DRV_WIFI_Deferred_ISR
                0x9d036b98       0x30 build/default/production/_ext/412220316/drv_wifi_events.o
                0x9d036b98                DRV_WIFI_Deferred_ISR

.text.RawMoveScratchTimeoutHandler
                0x9d036bc8       0x30
 .text.RawMoveScratchTimeoutHandler
                0x9d036bc8       0x30 build/default/production/_ext/412220316/drv_wifi_mac.o

.text.RawMoveDataTxTimeoutHandler
                0x9d036bf8       0x30
 .text.RawMoveDataTxTimeoutHandler
                0x9d036bf8       0x30 build/default/production/_ext/412220316/drv_wifi_mac.o

.text.RawMoveDataRxTimeoutHandler
                0x9d036c28       0x30
 .text.RawMoveDataRxTimeoutHandler
                0x9d036c28       0x30 build/default/production/_ext/412220316/drv_wifi_mac.o

.text.DRV_WIFI_MACTask
                0x9d036c58       0x30
 .text.DRV_WIFI_MACTask
                0x9d036c58       0x30 build/default/production/_ext/412220316/drv_wifi_main.o
                0x9d036c58                DRV_WIFI_MACTask

.text.DeallocateDataRxBuffer
                0x9d036c88       0x30
 .text.DeallocateDataRxBuffer
                0x9d036c88       0x30 build/default/production/_ext/412220316/drv_wifi_raw.o
                0x9d036c88                DeallocateDataRxBuffer

.text.OSAL_SEM_Delete
                0x9d036cb8       0x30
 .text.OSAL_SEM_Delete
                0x9d036cb8       0x30 build/default/production/_ext/2004362140/osal_freertos.o
                0x9d036cb8                OSAL_SEM_Delete

.text.OSAL_SEM_Post
                0x9d036ce8       0x30
 .text.OSAL_SEM_Post
                0x9d036ce8       0x30 build/default/production/_ext/2004362140/osal_freertos.o
                0x9d036ce8                OSAL_SEM_Post

.text.OSAL_MUTEX_Unlock
                0x9d036d18       0x30
 .text.OSAL_MUTEX_Unlock
                0x9d036d18       0x30 build/default/production/_ext/2004362140/osal_freertos.o
                0x9d036d18                OSAL_MUTEX_Unlock

.text.SYS_CMDIO_GET_HANDLE
                0x9d036d48       0x30
 .text.SYS_CMDIO_GET_HANDLE
                0x9d036d48       0x30 build/default/production/_ext/1052224704/sys_command.o
                0x9d036d48                SYS_CMDIO_GET_HANDLE

.text.popQueue  0x9d036d78       0x30
 .text.popQueue
                0x9d036d78       0x30 build/default/production/_ext/595512524/sys_console_uart.o

.text._TCPIP_HEAP_FreeSize
                0x9d036da8       0x30
 .text._TCPIP_HEAP_FreeSize
                0x9d036da8       0x30 build/default/production/_ext/126554269/tcpip_heap_internal.o

.text._DHCPSocketRxSignalHandler
                0x9d036dd8       0x30
 .text._DHCPSocketRxSignalHandler
                0x9d036dd8       0x30 build/default/production/_ext/126554269/dhcp.o

.text.TCPIP_DHCP_IsActive
                0x9d036e08       0x30
 .text.TCPIP_DHCP_IsActive
                0x9d036e08       0x30 build/default/production/_ext/126554269/dhcp.o
                0x9d036e08                TCPIP_DHCP_IsActive

.text._DNSSocketRxSignalHandler
                0x9d036e38       0x30
 .text._DNSSocketRxSignalHandler
                0x9d036e38       0x30 build/default/production/_ext/126554269/dns.o

.text.TCPIP_ICMP_Cleanup
                0x9d036e68       0x30
 .text.TCPIP_ICMP_Cleanup
                0x9d036e68       0x30 build/default/production/_ext/126554269/icmp.o

.text.NBNSSocketRxSignalHandler
                0x9d036e98       0x30
 .text.NBNSSocketRxSignalHandler
                0x9d036e98       0x30 build/default/production/_ext/126554269/nbns.o

.text._TCPIP_AnnounceSocketRxSignalHandler
                0x9d036ec8       0x30
 .text._TCPIP_AnnounceSocketRxSignalHandler
                0x9d036ec8       0x30 build/default/production/_ext/126554269/tcpip_announce.o

.text.TCPIP_OAHASH_EntryRemove
                0x9d036ef8       0x30
 .text.TCPIP_OAHASH_EntryRemove
                0x9d036ef8       0x30 build/default/production/_ext/126554269/oahash.o
                0x9d036ef8                TCPIP_OAHASH_EntryRemove

.text.TCPIP_Helper_SingleListTailAdd
                0x9d036f28       0x30
 .text.TCPIP_Helper_SingleListTailAdd
                0x9d036f28       0x30 build/default/production/_ext/126554269/tcpip_helpers.o
                0x9d036f28                TCPIP_Helper_SingleListTailAdd

.text.TCPIP_STACK_NetAddressGatewaySet
                0x9d036f58       0x30
 .text.TCPIP_STACK_NetAddressGatewaySet
                0x9d036f58       0x30 build/default/production/_ext/126554269/tcpip_manager.o
                0x9d036f58                TCPIP_STACK_NetAddressGatewaySet

.text.TCPIP_STACK_NetAddressGet
                0x9d036f88       0x30
 .text.TCPIP_STACK_NetAddressGet
                0x9d036f88       0x30 build/default/production/_ext/126554269/tcpip_manager.o
                0x9d036f88                TCPIP_STACK_NetAddressGet

.text.TCPIP_STACK_NetMaskGet
                0x9d036fb8       0x30
 .text.TCPIP_STACK_NetMaskGet
                0x9d036fb8       0x30 build/default/production/_ext/126554269/tcpip_manager.o
                0x9d036fb8                TCPIP_STACK_NetMaskGet

.text.TCPIP_STACK_NetworkIsLinked
                0x9d036fe8       0x30
 .text.TCPIP_STACK_NetworkIsLinked
                0x9d036fe8       0x30 build/default/production/_ext/126554269/tcpip_manager.o
                0x9d036fe8                TCPIP_STACK_NetworkIsLinked

.text.vListInsertEnd
                0x9d037018       0x30
 .text.vListInsertEnd
                0x9d037018       0x30 build/default/production/_ext/1808430591/list.o
                0x9d037018                vListInsertEnd

.text.SYS_PORTS_PinSet
                0x9d037048       0x30
 .text.SYS_PORTS_PinSet
                0x9d037048       0x30 build/default/production/_ext/822048611/sys_ports_static.o
                0x9d037048                SYS_PORTS_PinSet

.text.SYS_PORTS_PinClear
                0x9d037078       0x30
 .text.SYS_PORTS_PinClear
                0x9d037078       0x30 build/default/production/_ext/822048611/sys_ports_static.o
                0x9d037078                SYS_PORTS_PinClear

.text.free      0x9d0370a8       0x30
 .text.free     0x9d0370a8       0x30 d:/program files (x86)/microchip/xc32/v2.30/bin/bin/../../lib/gcc/pic32mx/4.8.3/../../../../pic32mx/lib/fpu64\libc.a(malloc.o)
                0x9d0370a8                free

.text.DRV_USART_BufferEventHandlerSet
                0x9d0370d8       0x2c
 .text.DRV_USART_BufferEventHandlerSet
                0x9d0370d8       0x2c build/default/production/_ext/115751837/drv_usart_buffer_queue.o
                0x9d0370d8                DRV_USART_BufferEventHandlerSet

.text.DRV_WIFI_INT_Init
                0x9d037104       0x2c
 .text.DRV_WIFI_INT_Init
                0x9d037104       0x2c build/default/production/_ext/412220316/drv_wifi_eint.o
                0x9d037104                DRV_WIFI_INT_Init

.text._MRF24W_MACEventAcknowledge
                0x9d037130       0x2c
 .text._MRF24W_MACEventAcknowledge
                0x9d037130       0x2c build/default/production/_ext/412220316/drv_wifi_events.o
                0x9d037130                _MRF24W_MACEventAcknowledge

.text.SignalTxStateMachine
                0x9d03715c       0x2c
 .text.SignalTxStateMachine
                0x9d03715c       0x2c build/default/production/_ext/412220316/drv_wifi_main.o
                0x9d03715c                SignalTxStateMachine

.text.SignalRxStateMachine
                0x9d037188       0x2c
 .text.SignalRxStateMachine
                0x9d037188       0x2c build/default/production/_ext/412220316/drv_wifi_main.o
                0x9d037188                SignalRxStateMachine

.text.DRV_WIFI_MultiCastFilterEnable
                0x9d0371b4       0x2c
 .text.DRV_WIFI_MultiCastFilterEnable
                0x9d0371b4       0x2c build/default/production/_ext/412220316/drv_wifi_param_msg.o
                0x9d0371b4                DRV_WIFI_MultiCastFilterEnable

.text.DRV_WIFI_HostKeyDeriveModeSet
                0x9d0371e0       0x2c
 .text.DRV_WIFI_HostKeyDeriveModeSet
                0x9d0371e0       0x2c build/default/production/_ext/412220316/drv_wifi_param_msg.o
                0x9d0371e0                DRV_WIFI_HostKeyDeriveModeSet

.text.DRV_WIFI_SemInit
                0x9d03720c       0x2c
 .text.DRV_WIFI_SemInit
                0x9d03720c       0x2c build/default/production/_ext/412220316/drv_wifi_rtos_wrapper.o
                0x9d03720c                DRV_WIFI_SemInit

.text.DRV_WIFI_TaskCreate
                0x9d037238       0x2c
 .text.DRV_WIFI_TaskCreate
                0x9d037238       0x2c build/default/production/_ext/412220316/drv_wifi_rtos_wrapper.o
                0x9d037238                DRV_WIFI_TaskCreate

.text.DRV_WIFI_TaskDestroy
                0x9d037264       0x2c
 .text.DRV_WIFI_TaskDestroy
                0x9d037264       0x2c build/default/production/_ext/412220316/drv_wifi_rtos_wrapper.o
                0x9d037264                DRV_WIFI_TaskDestroy

.text.TCPIP_OAHASH_EntryGet
                0x9d037290       0x2c
 .text.TCPIP_OAHASH_EntryGet
                0x9d037290       0x2c build/default/production/_ext/126554269/oahash.o
                0x9d037290                TCPIP_OAHASH_EntryGet

.text.TCPIP_STACK_NetDefaultSet
                0x9d0372bc       0x2c
 .text.TCPIP_STACK_NetDefaultSet
                0x9d0372bc       0x2c build/default/production/_ext/126554269/tcpip_manager.o
                0x9d0372bc                TCPIP_STACK_NetDefaultSet

.text.TCPIP_STACK_NetNameGet
                0x9d0372e8       0x2c
 .text.TCPIP_STACK_NetNameGet
                0x9d0372e8       0x2c build/default/production/_ext/126554269/tcpip_manager.o
                0x9d0372e8                TCPIP_STACK_NetNameGet

.text.TCPIP_STACK_NetAddressDnsPrimarySet
                0x9d037314       0x2c
 .text.TCPIP_STACK_NetAddressDnsPrimarySet
                0x9d037314       0x2c build/default/production/_ext/126554269/tcpip_manager.o
                0x9d037314                TCPIP_STACK_NetAddressDnsPrimarySet

.text.TCPIP_Notification_Deinitialize
                0x9d037340       0x2c
 .text.TCPIP_Notification_Deinitialize
                0x9d037340       0x2c build/default/production/_ext/126554269/tcpip_notify.o
                0x9d037340                TCPIP_Notification_Deinitialize

.text.strchr    0x9d03736c       0x2c
 .text.strchr   0x9d03736c       0x2c d:/program files (x86)/microchip/xc32/v2.30/bin/bin/../../lib/gcc/pic32mx/4.8.3/../../../../pic32mx/lib/fpu64\libc.a(strchr.o)
                0x9d03736c                strchr

.text._stub_sbd_memlayout
                0x9d037398       0x2c
 .text._stub_sbd_memlayout
                0x9d037398       0x2c d:/program files (x86)/microchip/xc32/v2.30/bin/bin/../../lib/gcc/pic32mx/4.8.3/../../../../pic32mx/lib/fpu64\libpic32.a(sbrk.o)
                0x9d037398                _sbd_memlayout
                0x9d037398                _stub_sbd_memlayout

.text._DRV_USART_DriverHandleValidate
                0x9d0373c4       0x28
 .text._DRV_USART_DriverHandleValidate
                0x9d0373c4       0x28 build/default/production/_ext/115751837/drv_usart.o
                0x9d0373c4                _DRV_USART_DriverHandleValidate

.text.DRV_USART_ClientStatus
                0x9d0373ec       0x28
 .text.DRV_USART_ClientStatus
                0x9d0373ec       0x28 build/default/production/_ext/115751837/drv_usart.o
                0x9d0373ec                DRV_USART_ClientStatus

.text.DRV_WIFI_ChannelListSet
                0x9d037414       0x28
 .text.DRV_WIFI_ChannelListSet
                0x9d037414       0x28 build/default/production/_ext/412220316/drv_wifi_connection_algorithm.o
                0x9d037414                DRV_WIFI_ChannelListSet

.text.DRV_WIFI_NetworkTypeGet
                0x9d03743c       0x28
 .text.DRV_WIFI_NetworkTypeGet
                0x9d03743c       0x28 build/default/production/_ext/412220316/drv_wifi_connection_profile.o
                0x9d03743c                DRV_WIFI_NetworkTypeGet

.text.DRV_WIFI_WepKeyTypeGet
                0x9d037464       0x28
 .text.DRV_WIFI_WepKeyTypeGet
                0x9d037464       0x28 build/default/production/_ext/412220316/drv_wifi_connection_profile.o
                0x9d037464                DRV_WIFI_WepKeyTypeGet

.text.DRV_WIFI_SecurityWpaSet
                0x9d03748c       0x28
 .text.DRV_WIFI_SecurityWpaSet
                0x9d03748c       0x28 build/default/production/_ext/412220316/drv_wifi_connection_profile.o
                0x9d03748c                DRV_WIFI_SecurityWpaSet

.text.DRV_WIFI_SecurityWpsSet
                0x9d0374b4       0x28
 .text.DRV_WIFI_SecurityWpsSet
                0x9d0374b4       0x28 build/default/production/_ext/412220316/drv_wifi_connection_profile.o
                0x9d0374b4                DRV_WIFI_SecurityWpsSet

.text.DRV_WIFI_HiddenSsidSet
                0x9d0374dc       0x28
 .text.DRV_WIFI_HiddenSsidSet
                0x9d0374dc       0x28 build/default/production/_ext/412220316/drv_wifi_connection_profile.o
                0x9d0374dc                DRV_WIFI_HiddenSsidSet

.text.DRV_WIFI_AdhocModeSet
                0x9d037504       0x28
 .text.DRV_WIFI_AdhocModeSet
                0x9d037504       0x28 build/default/production/_ext/412220316/drv_wifi_connection_profile.o
                0x9d037504                DRV_WIFI_AdhocModeSet

.text.MgmtEventsGet
                0x9d03752c       0x28
 .text.MgmtEventsGet
                0x9d03752c       0x28 build/default/production/_ext/412220316/drv_wifi_events.o
                0x9d03752c                MgmtEventsGet

.text._MRF24W_MACInitialize
                0x9d037554       0x28
 .text._MRF24W_MACInitialize
                0x9d037554       0x28 build/default/production/_ext/412220316/drv_wifi_mac.o
                0x9d037554                _MRF24W_MACInitialize

.text.DRV_WIFI_TxTaskInit
                0x9d03757c       0x28
 .text.DRV_WIFI_TxTaskInit
                0x9d03757c       0x28 build/default/production/_ext/412220316/drv_wifi_mac.o
                0x9d03757c                DRV_WIFI_TxTaskInit

.text.MgmtRespReceivedSet
                0x9d0375a4       0x28
 .text.MgmtRespReceivedSet
                0x9d0375a4       0x28 build/default/production/_ext/412220316/drv_wifi_mgmt_msg.o
                0x9d0375a4                MgmtRespReceivedSet

.text.DRV_WIFI_MgmtBaseGet
                0x9d0375cc       0x28
 .text.DRV_WIFI_MgmtBaseGet
                0x9d0375cc       0x28 build/default/production/_ext/412220316/drv_wifi_param_msg.o
                0x9d0375cc                DRV_WIFI_MgmtBaseGet

.text.SendRAWDataFrame
                0x9d0375f4       0x28
 .text.SendRAWDataFrame
                0x9d0375f4       0x28 build/default/production/_ext/412220316/drv_wifi_raw.o
                0x9d0375f4                SendRAWDataFrame

.text.RawMountRxDataBuffer
                0x9d03761c       0x28
 .text.RawMountRxDataBuffer
                0x9d03761c       0x28 build/default/production/_ext/412220316/drv_wifi_raw.o
                0x9d03761c                RawMountRxDataBuffer

.text.ScratchMount
                0x9d037644       0x28
 .text.ScratchMount
                0x9d037644       0x28 build/default/production/_ext/412220316/drv_wifi_raw.o
                0x9d037644                ScratchMount

.text.DRV_WIFI_ScanComplete
                0x9d03766c       0x28
 .text.DRV_WIFI_ScanComplete
                0x9d03766c       0x28 build/default/production/_ext/412220316/drv_wifi_scan_helper.o
                0x9d03766c                DRV_WIFI_ScanComplete

.text.Console_UART_RegisterCallback
                0x9d037694       0x28
 .text.Console_UART_RegisterCallback
                0x9d037694       0x28 build/default/production/_ext/595512524/sys_console_uart.o
                0x9d037694                Console_UART_RegisterCallback

.text.SYS_INT_ExternalInterruptTriggerSet
                0x9d0376bc       0x28
 .text.SYS_INT_ExternalInterruptTriggerSet
                0x9d0376bc       0x28 build/default/production/_ext/2044150628/sys_int_pic32.o
                0x9d0376bc                SYS_INT_ExternalInterruptTriggerSet

.text.SYS_TMR_TickCountGet
                0x9d0376e4       0x28
 .text.SYS_TMR_TickCountGet
                0x9d0376e4       0x28 build/default/production/_ext/1108686962/sys_tmr.o
                0x9d0376e4                SYS_TMR_TickCountGet

.text._TCPIP_HEAP_Size
                0x9d03770c       0x28
 .text._TCPIP_HEAP_Size
                0x9d03770c       0x28 build/default/production/_ext/126554269/tcpip_heap_internal.o

.text._TCPIP_HEAP_LastError
                0x9d037734       0x28
 .text._TCPIP_HEAP_LastError
                0x9d037734       0x28 build/default/production/_ext/126554269/tcpip_heap_internal.o

.text.TCPIP_Helper_PowerModeToString
                0x9d03775c       0x28
 .text.TCPIP_Helper_PowerModeToString
                0x9d03775c       0x28 build/default/production/_ext/126554269/tcpip_helpers.o
                0x9d03775c                TCPIP_Helper_PowerModeToString

.text.TCPIP_STACK_NetAddressGateway
                0x9d037784       0x28
 .text.TCPIP_STACK_NetAddressGateway
                0x9d037784       0x28 build/default/production/_ext/126554269/tcpip_manager.o
                0x9d037784                TCPIP_STACK_NetAddressGateway

.text.TCPIP_STACK_NetAddressDnsPrimary
                0x9d0377ac       0x28
 .text.TCPIP_STACK_NetAddressDnsPrimary
                0x9d0377ac       0x28 build/default/production/_ext/126554269/tcpip_manager.o
                0x9d0377ac                TCPIP_STACK_NetAddressDnsPrimary

.text.TCPIP_STACK_NetMACAddressGet
                0x9d0377d4       0x28
 .text.TCPIP_STACK_NetMACAddressGet
                0x9d0377d4       0x28 build/default/production/_ext/126554269/tcpip_manager.o
                0x9d0377d4                TCPIP_STACK_NetMACAddressGet

.text._TCPIPStackSignalHandlerDeregister
                0x9d0377fc       0x28
 .text._TCPIPStackSignalHandlerDeregister
                0x9d0377fc       0x28 build/default/production/_ext/126554269/tcpip_manager.o
                0x9d0377fc                _TCPIPStackSignalHandlerDeregister

.text.pvTaskIncrementMutexHeldCount
                0x9d037824       0x28
 .text.pvTaskIncrementMutexHeldCount
                0x9d037824       0x28 build/default/production/_ext/1808430591/tasks.o
                0x9d037824                pvTaskIncrementMutexHeldCount

.text.SYS_PORTS_PinRead
                0x9d03784c       0x28
 .text.SYS_PORTS_PinRead
                0x9d03784c       0x28 build/default/production/_ext/822048611/sys_ports_static.o
                0x9d03784c                SYS_PORTS_PinRead

.text.DRV_SPI_BufferAddRead
                0x9d037874       0x24
 .text.DRV_SPI_BufferAddRead
                0x9d037874       0x24 build/default/production/_ext/110609098/drv_spi.o
                0x9d037874                DRV_SPI_BufferAddRead

.text.DRV_SPI_BufferAddWrite
                0x9d037898       0x24
 .text.DRV_SPI_BufferAddWrite
                0x9d037898       0x24 build/default/production/_ext/110609098/drv_spi.o
                0x9d037898                DRV_SPI_BufferAddWrite

.text.DRV_WIFI_ConnectContextGet
                0x9d0378bc       0x24
 .text.DRV_WIFI_ConnectContextGet
                0x9d0378bc       0x24 build/default/production/_ext/412220316/drv_wifi_connection_manager.o
                0x9d0378bc                DRV_WIFI_ConnectContextGet

.text.DRV_WIFI_BssidSet
                0x9d0378e0       0x24
 .text.DRV_WIFI_BssidSet
                0x9d0378e0       0x24 build/default/production/_ext/412220316/drv_wifi_connection_profile.o
                0x9d0378e0                DRV_WIFI_BssidSet

.text.DRV_WIFI_SecurityOpenSet
                0x9d037904       0x24
 .text.DRV_WIFI_SecurityOpenSet
                0x9d037904       0x24 build/default/production/_ext/412220316/drv_wifi_connection_profile.o
                0x9d037904                DRV_WIFI_SecurityOpenSet

.text.MRF24W_MACProcess
                0x9d037928       0x24
 .text.MRF24W_MACProcess
                0x9d037928       0x24 build/default/production/_ext/412220316/drv_wifi_main.o

.text.DRV_WIFI_MacAddressSet
                0x9d03794c       0x24
 .text.DRV_WIFI_MacAddressSet
                0x9d03794c       0x24 build/default/production/_ext/412220316/drv_wifi_param_msg.o
                0x9d03794c                DRV_WIFI_MacAddressSet

.text.DRV_WIFI_SetPSK
                0x9d037970       0x24
 .text.DRV_WIFI_SetPSK
                0x9d037970       0x24 build/default/production/_ext/412220316/drv_wifi_param_msg.o
                0x9d037970                DRV_WIFI_SetPSK

.text.DRV_WIFI_TxModeGet
                0x9d037994       0x24
 .text.DRV_WIFI_TxModeGet
                0x9d037994       0x24 build/default/production/_ext/412220316/drv_wifi_param_msg.o
                0x9d037994                DRV_WIFI_TxModeGet

.text.DRV_WIFI_MacAddressGet
                0x9d0379b8       0x24
 .text.DRV_WIFI_MacAddressGet
                0x9d0379b8       0x24 build/default/production/_ext/412220316/drv_wifi_param_msg.o
                0x9d0379b8                DRV_WIFI_MacAddressGet

.text.DRV_WIFI_RegionalDomainGet
                0x9d0379dc       0x24
 .text.DRV_WIFI_RegionalDomainGet
                0x9d0379dc       0x24 build/default/production/_ext/412220316/drv_wifi_param_msg.o
                0x9d0379dc                DRV_WIFI_RegionalDomainGet

.text.ScratchUnmount
                0x9d037a00       0x24
 .text.ScratchUnmount
                0x9d037a00       0x24 build/default/production/_ext/412220316/drv_wifi_raw.o
                0x9d037a00                ScratchUnmount

.text.RawReadRelative
                0x9d037a24       0x24
 .text.RawReadRelative
                0x9d037a24       0x24 build/default/production/_ext/412220316/drv_wifi_raw.o
                0x9d037a24                RawReadRelative

.text.DRV_WIFI_MutexInit
                0x9d037a48       0x24
 .text.DRV_WIFI_MutexInit
                0x9d037a48       0x24 build/default/production/_ext/412220316/drv_wifi_rtos_wrapper.o
                0x9d037a48                DRV_WIFI_MutexInit

.text.SYS_TMR_TickCounterFrequencyGet
                0x9d037a6c       0x24
 .text.SYS_TMR_TickCounterFrequencyGet
                0x9d037a6c       0x24 build/default/production/_ext/1108686962/sys_tmr.o
                0x9d037a6c                SYS_TMR_TickCounterFrequencyGet

.text.SYS_TMR_SystemCountFrequencyGet
                0x9d037a90       0x24
 .text.SYS_TMR_SystemCountFrequencyGet
                0x9d037a90       0x24 build/default/production/_ext/1108686962/sys_tmr.o
                0x9d037a90                SYS_TMR_SystemCountFrequencyGet

.text._TCP_TxPktValid
                0x9d037ab4       0x24
 .text._TCP_TxPktValid
                0x9d037ab4       0x24 build/default/production/_ext/126554269/tcp.o

.text.TCPIP_UDP_Put
                0x9d037ad8       0x24
 .text.TCPIP_UDP_Put
                0x9d037ad8       0x24 build/default/production/_ext/126554269/udp.o
                0x9d037ad8                TCPIP_UDP_Put

.text._DHCPOptionWriteEnd
                0x9d037afc       0x24
 .text._DHCPOptionWriteEnd
                0x9d037afc       0x24 build/default/production/_ext/126554269/dhcp.o

.text.TCPIP_ZCLL_IsEnabled
                0x9d037b20       0x24
 .text.TCPIP_ZCLL_IsEnabled
                0x9d037b20       0x24 build/default/production/_ext/126554269/zero_conf_link_local.o
                0x9d037b20                TCPIP_ZCLL_IsEnabled

.text.prvTaskExitError
                0x9d037b44       0x24
 .text.prvTaskExitError
                0x9d037b44       0x24 build/default/production/_ext/417601773/port.o

.text.SYS_DEVCON_DataCacheClean
                0x9d037b68       0x24
 .text.SYS_DEVCON_DataCacheClean
                0x9d037b68       0x24 build/default/production/_ext/340578644/sys_devcon_pic32mz.o
                0x9d037b68                SYS_DEVCON_DataCacheClean

.text.IntHandlerSysDmaInstance0
                0x9d037b8c       0x24
 .text.IntHandlerSysDmaInstance0
                0x9d037b8c       0x24 build/default/production/_ext/1688732426/system_interrupt.o
                0x9d037b8c                IntHandlerSysDmaInstance0

.text.IntHandlerSysDmaInstance1
                0x9d037bb0       0x24
 .text.IntHandlerSysDmaInstance1
                0x9d037bb0       0x24 build/default/production/_ext/1688732426/system_interrupt.o
                0x9d037bb0                IntHandlerSysDmaInstance1

.text.vApplicationStackOverflowHook
                0x9d037bd4       0x24
 .text.vApplicationStackOverflowHook
                0x9d037bd4       0x24 build/default/production/_ext/1688732426/rtos_hooks.o
                0x9d037bd4                vApplicationStackOverflowHook

.text.vApplicationMallocFailedHook
                0x9d037bf8       0x24
 .text.vApplicationMallocFailedHook
                0x9d037bf8       0x24 build/default/production/_ext/1688732426/rtos_hooks.o
                0x9d037bf8                vApplicationMallocFailedHook

.text.tolower   0x9d037c1c       0x24
 .text.tolower  0x9d037c1c       0x24 d:/program files (x86)/microchip/xc32/v2.30/bin/bin/../../lib/gcc/pic32mx/4.8.3/../../../../pic32mx/lib/fpu64\libc.a(ctypef.o)
                0x9d037c1c                tolower

.text.toupper   0x9d037c40       0x24
 .text.toupper  0x9d037c40       0x24 d:/program files (x86)/microchip/xc32/v2.30/bin/bin/../../lib/gcc/pic32mx/4.8.3/../../../../pic32mx/lib/fpu64\libc.a(ctypef.o)
                0x9d037c40                toupper

.text.DRV_SPI_Tasks
                0x9d037c64       0x20
 .text.DRV_SPI_Tasks
                0x9d037c64       0x20 build/default/production/_ext/110609098/drv_spi.o
                0x9d037c64                DRV_SPI_Tasks

.text.Cmd_DeleteConfig
                0x9d037c84       0x20
 .text.Cmd_DeleteConfig
                0x9d037c84       0x20 build/default/production/_ext/412220316/drv_wifi_commands.o

.text.Cmd_SaveConfig
                0x9d037ca4       0x20
 .text.Cmd_SaveConfig
                0x9d037ca4       0x20 build/default/production/_ext/412220316/drv_wifi_commands.o

.text.SPI_DMA_TxComplete
                0x9d037cc4       0x20
 .text.SPI_DMA_TxComplete
                0x9d037cc4       0x20 build/default/production/_ext/412220316/drv_wifi_spi.o

.text.SPI_DMA_RxComplete
                0x9d037ce4       0x20
 .text.SPI_DMA_RxComplete
                0x9d037ce4       0x20 build/default/production/_ext/412220316/drv_wifi_spi.o

.text.DRV_WIFI_DeferredISR_SemGive
                0x9d037d04       0x20
 .text.DRV_WIFI_DeferredISR_SemGive
                0x9d037d04       0x20 build/default/production/_ext/412220316/drv_wifi_rtos_wrapper.o
                0x9d037d04                DRV_WIFI_DeferredISR_SemGive

.text.SYS_CMD_MESSAGE
                0x9d037d24       0x20
 .text.SYS_CMD_MESSAGE
                0x9d037d24       0x20 build/default/production/_ext/1052224704/sys_command.o
                0x9d037d24                SYS_CMD_MESSAGE

.text.SYS_DMA_ChannelTransferEventHandlerSet
                0x9d037d44       0x20
 .text.SYS_DMA_ChannelTransferEventHandlerSet
                0x9d037d44       0x20 build/default/production/_ext/1855423469/sys_dma.o
                0x9d037d44                SYS_DMA_ChannelTransferEventHandlerSet

.text.TCPIP_HEAP_Malloc
                0x9d037d64       0x20
 .text.TCPIP_HEAP_Malloc
                0x9d037d64       0x20 build/default/production/_ext/126554269/tcpip_heap_alloc.o
                0x9d037d64                TCPIP_HEAP_Malloc

.text.TCPIP_HEAP_Calloc
                0x9d037d84       0x20
 .text.TCPIP_HEAP_Calloc
                0x9d037d84       0x20 build/default/production/_ext/126554269/tcpip_heap_alloc.o
                0x9d037d84                TCPIP_HEAP_Calloc

.text.TCPIP_HEAP_Free
                0x9d037da4       0x20
 .text.TCPIP_HEAP_Free
                0x9d037da4       0x20 build/default/production/_ext/126554269/tcpip_heap_alloc.o
                0x9d037da4                TCPIP_HEAP_Free

.rodata         0x9d037dc4       0x20
 .rodata        0x9d037dc4       0x20 build/default/production/_ext/126554269/arp.o

.text.TCPIP_DNS_OAHASH_KeyCompare
                0x9d037de4       0x20
 .text.TCPIP_DNS_OAHASH_KeyCompare
                0x9d037de4       0x20 build/default/production/_ext/126554269/dns.o

.text.TCPIP_DNS_GetIPv4Addresses
                0x9d037e04       0x20
 .text.TCPIP_DNS_GetIPv4Addresses
                0x9d037e04       0x20 build/default/production/_ext/126554269/dns.o
                0x9d037e04                TCPIP_DNS_GetIPv4Addresses

.text.TCPIP_DNS_GetIPv6Addresses
                0x9d037e24       0x20
 .text.TCPIP_DNS_GetIPv6Addresses
                0x9d037e24       0x20 build/default/production/_ext/126554269/dns.o
                0x9d037e24                TCPIP_DNS_GetIPv6Addresses

.text.TCPIP_DNS_Enable
                0x9d037e44       0x20
 .text.TCPIP_DNS_Enable
                0x9d037e44       0x20 build/default/production/_ext/126554269/dns.o
                0x9d037e44                TCPIP_DNS_Enable

.text.TCPIP_STACK_Status
                0x9d037e64       0x20
 .text.TCPIP_STACK_Status
                0x9d037e64       0x20 build/default/production/_ext/126554269/tcpip_manager.o
                0x9d037e64                TCPIP_STACK_Status

.text.TCPIP_STACK_NetIsUp
                0x9d037e84       0x20
 .text.TCPIP_STACK_NetIsUp
                0x9d037e84       0x20 build/default/production/_ext/126554269/tcpip_manager.o
                0x9d037e84                TCPIP_STACK_NetIsUp

.text.TCPIP_STACK_AddressServiceCanStart
                0x9d037ea4       0x20
 .text.TCPIP_STACK_AddressServiceCanStart
                0x9d037ea4       0x20 build/default/production/_ext/126554269/tcpip_manager.o
                0x9d037ea4                TCPIP_STACK_AddressServiceCanStart

.text.TCPIP_STACK_HeapHandleGet
                0x9d037ec4       0x20
 .text.TCPIP_STACK_HeapHandleGet
                0x9d037ec4       0x20 build/default/production/_ext/126554269/tcpip_manager.o
                0x9d037ec4                TCPIP_STACK_HeapHandleGet

.text.vListInitialise
                0x9d037ee4       0x20
 .text.vListInitialise
                0x9d037ee4       0x20 build/default/production/_ext/1808430591/list.o
                0x9d037ee4                vListInitialise

.text.SYS_CLK_PeripheralFrequencyGet
                0x9d037f04       0x20
 .text.SYS_CLK_PeripheralFrequencyGet
                0x9d037f04       0x20 build/default/production/_ext/639803181/sys_clk.o
                0x9d037f04                SYS_CLK_PeripheralFrequencyGet

.text.IntHandlerDrvTmrInstance0
                0x9d037f24       0x20
 .text.IntHandlerDrvTmrInstance0
                0x9d037f24       0x20 build/default/production/_ext/1688732426/system_interrupt.o
                0x9d037f24                IntHandlerDrvTmrInstance0

.text.IntHandlerDrvUsartTransmitInstance0
                0x9d037f44       0x20
 .text.IntHandlerDrvUsartTransmitInstance0
                0x9d037f44       0x20 build/default/production/_ext/1688732426/system_interrupt.o
                0x9d037f44                IntHandlerDrvUsartTransmitInstance0

.text.IntHandlerDrvUsartReceiveInstance0
                0x9d037f64       0x20
 .text.IntHandlerDrvUsartReceiveInstance0
                0x9d037f64       0x20 build/default/production/_ext/1688732426/system_interrupt.o
                0x9d037f64                IntHandlerDrvUsartReceiveInstance0

.text.IntHandlerDrvUsartErrorInstance0
                0x9d037f84       0x20
 .text.IntHandlerDrvUsartErrorInstance0
                0x9d037f84       0x20 build/default/production/_ext/1688732426/system_interrupt.o
                0x9d037f84                IntHandlerDrvUsartErrorInstance0

.text.IntHandlerSPIRxInstance0
                0x9d037fa4       0x20
 .text.IntHandlerSPIRxInstance0
                0x9d037fa4       0x20 build/default/production/_ext/1688732426/system_interrupt.o
                0x9d037fa4                IntHandlerSPIRxInstance0

.text.IntHandlerSPITxInstance0
                0x9d037fc4       0x20
 .text.IntHandlerSPITxInstance0
                0x9d037fc4       0x20 build/default/production/_ext/1688732426/system_interrupt.o
                0x9d037fc4                IntHandlerSPITxInstance0

.text.IntHandlerSPIFaultInstance0
                0x9d037fe4       0x20
 .text.IntHandlerSPIFaultInstance0
                0x9d037fe4       0x20 build/default/production/_ext/1688732426/system_interrupt.o
                0x9d037fe4                IntHandlerSPIFaultInstance0

.text.main      0x9d038004       0x20
 .text.main     0x9d038004       0x20 build/default/production/_ext/1360937237/main.o
                0x9d038004                main

.text._WNETCOM_Tasks
                0x9d038024       0x20
 .text._WNETCOM_Tasks
                0x9d038024       0x20 build/default/production/_ext/1688732426/system_tasks.o

.rodata         0x9d038044       0x1c
 .rodata        0x9d038044       0x1c build/default/production/_ext/494209719/drv_tmr.o

.text._MRF24W_MACCheckLink
                0x9d038060       0x1c
 .text._MRF24W_MACCheckLink
                0x9d038060       0x1c build/default/production/_ext/412220316/drv_wifi_mac.o
                0x9d038060                _MRF24W_MACCheckLink

.text.MRF24W_MACEventGetPending
                0x9d03807c       0x1c
 .text.MRF24W_MACEventGetPending
                0x9d03807c       0x1c build/default/production/_ext/412220316/drv_wifi_main.o

.text.MRF24W_MACEventAcknowledge
                0x9d038098       0x1c
 .text.MRF24W_MACEventAcknowledge
                0x9d038098       0x1c build/default/production/_ext/412220316/drv_wifi_main.o

.text.MRF24W_MACEventSetMask
                0x9d0380b4       0x1c
 .text.MRF24W_MACEventSetMask
                0x9d0380b4       0x1c build/default/production/_ext/412220316/drv_wifi_main.o

.text.MRF24W_MACRxPacket
                0x9d0380d0       0x1c
 .text.MRF24W_MACRxPacket
                0x9d0380d0       0x1c build/default/production/_ext/412220316/drv_wifi_main.o

.text.MRF24W_MACCheckLink
                0x9d0380ec       0x1c
 .text.MRF24W_MACCheckLink
                0x9d0380ec       0x1c build/default/production/_ext/412220316/drv_wifi_main.o

.text.DRV_WIFI_MutexLock
                0x9d038108       0x1c
 .text.DRV_WIFI_MutexLock
                0x9d038108       0x1c build/default/production/_ext/412220316/drv_wifi_rtos_wrapper.o
                0x9d038108                DRV_WIFI_MutexLock

.text.DRV_WIFI_MutexUnlock
                0x9d038124       0x1c
 .text.DRV_WIFI_MutexUnlock
                0x9d038124       0x1c build/default/production/_ext/412220316/drv_wifi_rtos_wrapper.o
                0x9d038124                DRV_WIFI_MutexUnlock

.text.DRV_WIFI_SemDeInit
                0x9d038140       0x1c
 .text.DRV_WIFI_SemDeInit
                0x9d038140       0x1c build/default/production/_ext/412220316/drv_wifi_rtos_wrapper.o
                0x9d038140                DRV_WIFI_SemDeInit

.text.DRV_WIFI_SemTake
                0x9d03815c       0x1c
 .text.DRV_WIFI_SemTake
                0x9d03815c       0x1c build/default/production/_ext/412220316/drv_wifi_rtos_wrapper.o
                0x9d03815c                DRV_WIFI_SemTake

.text.DRV_WIFI_SemGive
                0x9d038178       0x1c
 .text.DRV_WIFI_SemGive
                0x9d038178       0x1c build/default/production/_ext/412220316/drv_wifi_rtos_wrapper.o
                0x9d038178                DRV_WIFI_SemGive

.text.DRV_WIFI_ISR_SemGive
                0x9d038194       0x1c
 .text.DRV_WIFI_ISR_SemGive
                0x9d038194       0x1c build/default/production/_ext/412220316/drv_wifi_rtos_wrapper.o
                0x9d038194                DRV_WIFI_ISR_SemGive

.text.DRV_WIFI_TaskDelay
                0x9d0381b0       0x1c
 .text.DRV_WIFI_TaskDelay
                0x9d0381b0       0x1c build/default/production/_ext/412220316/drv_wifi_rtos_wrapper.o
                0x9d0381b0                DRV_WIFI_TaskDelay

.text.SYS_RANDOM_PseudoGet
                0x9d0381cc       0x1c
 .text.SYS_RANDOM_PseudoGet
                0x9d0381cc       0x1c build/default/production/_ext/1304044280/sys_random.o
                0x9d0381cc                SYS_RANDOM_PseudoGet

.text.SYS_TMR_CallbackStop
                0x9d0381e8       0x1c
 .text.SYS_TMR_CallbackStop
                0x9d0381e8       0x1c build/default/production/_ext/1108686962/sys_tmr.o
                0x9d0381e8                SYS_TMR_CallbackStop

.text.SYS_TMR_CallbackPeriodic
                0x9d038204       0x1c
 .text.SYS_TMR_CallbackPeriodic
                0x9d038204       0x1c build/default/production/_ext/1108686962/sys_tmr.o
                0x9d038204                SYS_TMR_CallbackPeriodic

.text.SYS_TMR_CallbackSingle
                0x9d038220       0x1c
 .text.SYS_TMR_CallbackSingle
                0x9d038220       0x1c build/default/production/_ext/1108686962/sys_tmr.o
                0x9d038220                SYS_TMR_CallbackSingle

.text.TCPIP_UDP_ServerOpen
                0x9d03823c       0x1c
 .text.TCPIP_UDP_ServerOpen
                0x9d03823c       0x1c build/default/production/_ext/126554269/udp.o
                0x9d03823c                TCPIP_UDP_ServerOpen

.text.TCPIP_UDP_ClientOpen
                0x9d038258       0x1c
 .text.TCPIP_UDP_ClientOpen
                0x9d038258       0x1c build/default/production/_ext/126554269/udp.o
                0x9d038258                TCPIP_UDP_ClientOpen

.text.TCPIP_UDP_TxPutIsReady
                0x9d038274       0x1c
 .text.TCPIP_UDP_TxPutIsReady
                0x9d038274       0x1c build/default/production/_ext/126554269/udp.o
                0x9d038274                TCPIP_UDP_TxPutIsReady

.text.TCPIP_UDP_Get
                0x9d038290       0x1c
 .text.TCPIP_UDP_Get
                0x9d038290       0x1c build/default/production/_ext/126554269/udp.o
                0x9d038290                TCPIP_UDP_Get

.text.TCPIP_DNS_Resolve
                0x9d0382ac       0x1c
 .text.TCPIP_DNS_Resolve
                0x9d0382ac       0x1c build/default/production/_ext/126554269/dns.o
                0x9d0382ac                TCPIP_DNS_Resolve

.text._Command_ZcllOnOff
                0x9d0382c8       0x1c
 .text._Command_ZcllOnOff
                0x9d0382c8       0x1c build/default/production/_ext/126554269/tcpip_commands.o

.text._Command_DHCPSOnOff
                0x9d0382e4       0x1c
 .text._Command_DHCPSOnOff
                0x9d0382e4       0x1c build/default/production/_ext/126554269/tcpip_commands.o

.text.btohexa_high
                0x9d038300       0x1c
 .text.btohexa_high
                0x9d038300       0x1c build/default/production/_ext/1551925347/helpers.o
                0x9d038300                btohexa_high

.text.btohexa_low
                0x9d03831c       0x1c
 .text.btohexa_low
                0x9d03831c       0x1c build/default/production/_ext/1551925347/helpers.o
                0x9d03831c                btohexa_low

.text.TCPIP_Helper_ChecksumFold
                0x9d038338       0x1c
 .text.TCPIP_Helper_ChecksumFold
                0x9d038338       0x1c build/default/production/_ext/126554269/tcpip_helpers.o
                0x9d038338                TCPIP_Helper_ChecksumFold

.text.TCPIP_Notification_Initialize
                0x9d038354       0x1c
 .text.TCPIP_Notification_Initialize
                0x9d038354       0x1c build/default/production/_ext/126554269/tcpip_notify.o
                0x9d038354                TCPIP_Notification_Initialize

.text.vQueueDelete
                0x9d038370       0x1c
 .text.vQueueDelete
                0x9d038370       0x1c build/default/production/_ext/1808430591/queue.o
                0x9d038370                vQueueDelete

.text.vPortClearInterruptMaskFromISR
                0x9d03838c       0x1c
 .text.vPortClearInterruptMaskFromISR
                0x9d03838c       0x1c build/default/production/_ext/417601773/port.o
                0x9d03838c                vPortClearInterruptMaskFromISR

.text.SYS_CLK_ReferenceFrequencyGet
                0x9d0383a8       0x1c
 .text.SYS_CLK_ReferenceFrequencyGet
                0x9d0383a8       0x1c build/default/production/_ext/639803181/sys_clk.o
                0x9d0383a8                SYS_CLK_ReferenceFrequencyGet

.rodata         0x9d0383c4       0x1c
 .rodata        0x9d0383c4       0x1c build/default/production/_ext/1688732426/system_tasks.o

.text.srand     0x9d0383e0       0x1c
 .text.srand    0x9d0383e0       0x1c d:/program files (x86)/microchip/xc32/v2.30/bin/bin/../../lib/gcc/pic32mx/4.8.3/../../../../pic32mx/lib/fpu64\libc.a(rand.o)
                0x9d0383e0                srand

.text.SYS_TMR_ModuleStatusGet
                0x9d0383fc       0x18
 .text.SYS_TMR_ModuleStatusGet
                0x9d0383fc       0x18 build/default/production/_ext/1108686962/sys_tmr.o
                0x9d0383fc                SYS_TMR_ModuleStatusGet

.text.TCPIP_ARP_HashKeyCompare
                0x9d038414       0x18
 .text.TCPIP_ARP_HashKeyCompare
                0x9d038414       0x18 build/default/production/_ext/126554269/arp.o
                0x9d038414                TCPIP_ARP_HashKeyCompare

.text.TCPIP_STACK_NetIndexGet
                0x9d03842c       0x18
 .text.TCPIP_STACK_NetIndexGet
                0x9d03842c       0x18 build/default/production/_ext/126554269/tcpip_manager.o
                0x9d03842c                TCPIP_STACK_NetIndexGet

.text.TCPIP_STACK_NetIxGet
                0x9d038444       0x18
 .text.TCPIP_STACK_NetIxGet
                0x9d038444       0x18 build/default/production/_ext/126554269/tcpip_manager.o
                0x9d038444                TCPIP_STACK_NetIxGet

.text.TCPIP_STACK_GatewayAddressSet
                0x9d03845c       0x18
 .text.TCPIP_STACK_GatewayAddressSet
                0x9d03845c       0x18 build/default/production/_ext/126554269/tcpip_manager.o
                0x9d03845c                TCPIP_STACK_GatewayAddressSet

.text.TCPIP_STACK_PrimaryDNSAddressSet
                0x9d038474       0x18
 .text.TCPIP_STACK_PrimaryDNSAddressSet
                0x9d038474       0x18 build/default/production/_ext/126554269/tcpip_manager.o
                0x9d038474                TCPIP_STACK_PrimaryDNSAddressSet

.text.TCPIP_STACK_SecondaryDNSAddressSet
                0x9d03848c       0x18
 .text.TCPIP_STACK_SecondaryDNSAddressSet
                0x9d03848c       0x18 build/default/production/_ext/126554269/tcpip_manager.o
                0x9d03848c                TCPIP_STACK_SecondaryDNSAddressSet

.text.WNETCOM_Initialize
                0x9d0384a4       0x18
 .text.WNETCOM_Initialize
                0x9d0384a4       0x18 build/default/production/_ext/1360937237/wnetcom.o
                0x9d0384a4                WNETCOM_Initialize

.text           0x9d0384bc       0x18
 .text          0x9d0384bc       0x18 d:/program files (x86)/microchip/xc32/v2.30/bin/bin/../../lib/gcc/pic32mx/4.8.3/../../../../pic32mx/lib/fpu64\libpic32.a(default-nmi-handler.o)
                0x9d0384bc                _nmi_handler

.text._MRF24W_MACEventGetPending
                0x9d0384d4       0x14
 .text._MRF24W_MACEventGetPending
                0x9d0384d4       0x14 build/default/production/_ext/412220316/drv_wifi_events.o
                0x9d0384d4                _MRF24W_MACEventGetPending

.text.SYS_INT_Initialize
                0x9d0384e8       0x14
 .text.SYS_INT_Initialize
                0x9d0384e8       0x14 build/default/production/_ext/2044150628/sys_int_pic32.o
                0x9d0384e8                SYS_INT_Initialize

.text.vTaskSuspendAll
                0x9d0384fc       0x14
 .text.vTaskSuspendAll
                0x9d0384fc       0x14 build/default/production/_ext/1808430591/tasks.o
                0x9d0384fc                vTaskSuspendAll

.text.vTaskSetTimeOutState
                0x9d038510       0x14
 .text.vTaskSetTimeOutState
                0x9d038510       0x14 build/default/production/_ext/1808430591/tasks.o
                0x9d038510                vTaskSetTimeOutState

.text.SYS_DEVCON_Initialize
                0x9d038524       0x14
 .text.SYS_DEVCON_Initialize
                0x9d038524       0x14 build/default/production/_ext/340578644/sys_devcon.o
                0x9d038524                SYS_DEVCON_Initialize

.text.SignalWiFiConnectionChanged
                0x9d038538       0x10
 .text.SignalWiFiConnectionChanged
                0x9d038538       0x10 build/default/production/_ext/412220316/drv_wifi_com.o
                0x9d038538                SignalWiFiConnectionChanged

.text.IncrementRxPendingCount
                0x9d038548       0x10
 .text.IncrementRxPendingCount
                0x9d038548       0x10 build/default/production/_ext/412220316/drv_wifi_com.o
                0x9d038548                IncrementRxPendingCount

.text.DecrementRxPendingCount
                0x9d038558       0x10
 .text.DecrementRxPendingCount
                0x9d038558       0x10 build/default/production/_ext/412220316/drv_wifi_com.o
                0x9d038558                DecrementRxPendingCount

.text.isInitComplete
                0x9d038568       0x10
 .text.isInitComplete
                0x9d038568       0x10 build/default/production/_ext/412220316/drv_wifi_init.o
                0x9d038568                isInitComplete

.text.TCPIP_ARP_HashKeyCopy
                0x9d038578       0x10
 .text.TCPIP_ARP_HashKeyCopy
                0x9d038578       0x10 build/default/production/_ext/126554269/arp.o
                0x9d038578                TCPIP_ARP_HashKeyCopy

.text.TCPIP_Helper_SingleListInitialize
                0x9d038588       0x10
 .text.TCPIP_Helper_SingleListInitialize
                0x9d038588       0x10 build/default/production/_ext/126554269/tcpip_helpers.o
                0x9d038588                TCPIP_Helper_SingleListInitialize

.text.vTaskMissedYield
                0x9d038598       0x10
 .text.vTaskMissedYield
                0x9d038598       0x10 build/default/production/_ext/1808430591/tasks.o
                0x9d038598                vTaskMissedYield

.text.DRV_SPI_SYS_QUEUE_IsEmpty
                0x9d0385a8        0xc
 .text.DRV_SPI_SYS_QUEUE_IsEmpty
                0x9d0385a8        0xc build/default/production/_ext/1908449382/drv_spi_sys_queue_fifo.o
                0x9d0385a8                DRV_SPI_SYS_QUEUE_IsEmpty

.text.DRV_WIFI_AllEventClear
                0x9d0385b4        0xc
 .text.DRV_WIFI_AllEventClear
                0x9d0385b4        0xc build/default/production/_ext/412220316/drv_wifi_event_handler.o
                0x9d0385b4                DRV_WIFI_AllEventClear

.text.ChipResetTimeoutCallback
                0x9d0385c0        0xc
 .text.ChipResetTimeoutCallback
                0x9d0385c0        0xc build/default/production/_ext/412220316/drv_wifi_init.o

.text.isRxStateMachineIdle
                0x9d0385cc        0xc
 .text.isRxStateMachineIdle
                0x9d0385cc        0xc build/default/production/_ext/412220316/drv_wifi_mac.o
                0x9d0385cc                isRxStateMachineIdle

.text.SetRxPacketPending
                0x9d0385d8        0xc
 .text.SetRxPacketPending
                0x9d0385d8        0xc build/default/production/_ext/412220316/drv_wifi_mac.o
                0x9d0385d8                SetRxPacketPending

.text.GetStackData
                0x9d0385e4        0xc
 .text.GetStackData
                0x9d0385e4        0xc build/default/production/_ext/412220316/drv_wifi_main.o
                0x9d0385e4                GetStackData

.text.DRV_WIFI_PowerSaveStateGet
                0x9d0385f0        0xc
 .text.DRV_WIFI_PowerSaveStateGet
                0x9d0385f0        0xc build/default/production/_ext/412220316/drv_wifi_power_save.o
                0x9d0385f0                DRV_WIFI_PowerSaveStateGet

.text.TCPIP_STACK_NumberOfNetworksGet
                0x9d0385fc        0xc
 .text.TCPIP_STACK_NumberOfNetworksGet
                0x9d0385fc        0xc build/default/production/_ext/126554269/tcpip_manager.o
                0x9d0385fc                TCPIP_STACK_NumberOfNetworksGet

.text.TCPIP_STACK_NetBIOSName
                0x9d038608        0xc
 .text.TCPIP_STACK_NetBIOSName
                0x9d038608        0xc build/default/production/_ext/126554269/tcpip_manager.o
                0x9d038608                TCPIP_STACK_NetBIOSName

.text._TCPIPStackAddressServiceIsRunning
                0x9d038614        0xc
 .text._TCPIPStackAddressServiceIsRunning
                0x9d038614        0xc build/default/production/_ext/126554269/tcpip_manager.o
                0x9d038614                _TCPIPStackAddressServiceIsRunning

.text.SYS_CLK_SystemFrequencyGet
                0x9d038620        0xc
 .text.SYS_CLK_SystemFrequencyGet
                0x9d038620        0xc build/default/production/_ext/639803181/sys_clk.o
                0x9d038620                SYS_CLK_SystemFrequencyGet

.text.GetRxPendingCount
                0x9d03862c        0x8
 .text.GetRxPendingCount
                0x9d03862c        0x8 build/default/production/_ext/412220316/drv_wifi_com.o
                0x9d03862c                GetRxPendingCount

.text.isLinkUp  0x9d038634        0x8
 .text.isLinkUp
                0x9d038634        0x8 build/default/production/_ext/412220316/drv_wifi_connection_manager.o
                0x9d038634                isLinkUp

.text.SetLogicalConnectionState
                0x9d03863c        0x8
 .text.SetLogicalConnectionState
                0x9d03863c        0x8 build/default/production/_ext/412220316/drv_wifi_connection_manager.o
                0x9d03863c                SetLogicalConnectionState

.text.DRV_WIFI_Initialize
                0x9d038644        0x8
 .text.DRV_WIFI_Initialize
                0x9d038644        0x8 build/default/production/_ext/412220316/drv_wifi_init.o
                0x9d038644                DRV_WIFI_Initialize

.text.RxTxUnLockSleepTimeoutHandler
                0x9d03864c        0x8
 .text.RxTxUnLockSleepTimeoutHandler
                0x9d03864c        0x8 build/default/production/_ext/412220316/drv_wifi_mac.o

.text.RawResetInitStateMachine
                0x9d038654        0x8
 .text.RawResetInitStateMachine
                0x9d038654        0x8 build/default/production/_ext/412220316/drv_wifi_mac.o
                0x9d038654                RawResetInitStateMachine

.text.MRF24W_MACReinitialize
                0x9d03865c        0x8
 .text.MRF24W_MACReinitialize
                0x9d03865c        0x8 build/default/production/_ext/412220316/drv_wifi_main.o

.text.MRF24W_MACStatus
                0x9d038664        0x8
 .text.MRF24W_MACStatus
                0x9d038664        0x8 build/default/production/_ext/412220316/drv_wifi_main.o

.text.MRF24W_MACGetConfig
                0x9d03866c        0x8
 .text.MRF24W_MACGetConfig
                0x9d03866c        0x8 build/default/production/_ext/412220316/drv_wifi_main.o

.text.MRF24W_MACPowerMode
                0x9d038674        0x8
 .text.MRF24W_MACPowerMode
                0x9d038674        0x8 build/default/production/_ext/412220316/drv_wifi_main.o

.text.MRF24W_MACStatisticsGet
                0x9d03867c        0x8
 .text.MRF24W_MACStatisticsGet
                0x9d03867c        0x8 build/default/production/_ext/412220316/drv_wifi_main.o

.text.MRF24W_MACRegisterStatisticsGet
                0x9d038684        0x8
 .text.MRF24W_MACRegisterStatisticsGet
                0x9d038684        0x8 build/default/production/_ext/412220316/drv_wifi_main.o

.rodata         0x9d03868c        0x8
 .rodata        0x9d03868c        0x8 build/default/production/_ext/412220316/drv_wifi_pbkdf2.o

.text.isSleepNeeded
                0x9d038694        0x8
 .text.isSleepNeeded
                0x9d038694        0x8 build/default/production/_ext/412220316/drv_wifi_power_save.o
                0x9d038694                isSleepNeeded

.text.ClearSleepNeeded
                0x9d03869c        0x8
 .text.ClearSleepNeeded
                0x9d03869c        0x8 build/default/production/_ext/412220316/drv_wifi_power_save.o
                0x9d03869c                ClearSleepNeeded

.text.GetPowerSaveMode
                0x9d0386a4        0x8
 .text.GetPowerSaveMode
                0x9d0386a4        0x8 build/default/production/_ext/412220316/drv_wifi_power_save.o
                0x9d0386a4                GetPowerSaveMode

.text.DRV_WIFI_InHibernateMode
                0x9d0386ac        0x8
 .text.DRV_WIFI_InHibernateMode
                0x9d0386ac        0x8 build/default/production/_ext/412220316/drv_wifi_power_save.o
                0x9d0386ac                DRV_WIFI_InHibernateMode

.text.DRV_WIFI_HibernateModeClear
                0x9d0386b4        0x8
 .text.DRV_WIFI_HibernateModeClear
                0x9d0386b4        0x8 build/default/production/_ext/412220316/drv_wifi_power_save.o
                0x9d0386b4                DRV_WIFI_HibernateModeClear

.text.ClearAllIndexOutofBoundsFlags
                0x9d0386bc        0x8
 .text.ClearAllIndexOutofBoundsFlags
                0x9d0386bc        0x8 build/default/production/_ext/412220316/drv_wifi_raw.o
                0x9d0386bc                ClearAllIndexOutofBoundsFlags

.text.GetCommandCharacter
                0x9d0386c4        0x8
 .text.GetCommandCharacter
                0x9d0386c4        0x8 build/default/production/_ext/1052224704/sys_command.o

.text._DHCPOptionProcessEnd
                0x9d0386cc        0x8
 .text._DHCPOptionProcessEnd
                0x9d0386cc        0x8 build/default/production/_ext/126554269/dhcp.o

.text.TCPIP_STACK_NetDefaultGet
                0x9d0386d4        0x8
 .text.TCPIP_STACK_NetDefaultGet
                0x9d0386d4        0x8 build/default/production/_ext/126554269/tcpip_manager.o
                0x9d0386d4                TCPIP_STACK_NetDefaultGet

.text.TCPIP_PKT_Deinitialize
                0x9d0386dc        0x8
 .text.TCPIP_PKT_Deinitialize
                0x9d0386dc        0x8 build/default/production/_ext/126554269/tcpip_packet.o
                0x9d0386dc                TCPIP_PKT_Deinitialize

.text.vListInitialiseItem
                0x9d0386e4        0x8
 .text.vListInitialiseItem
                0x9d0386e4        0x8 build/default/production/_ext/1808430591/list.o
                0x9d0386e4                vListInitialiseItem

.rodata         0x9d0386ec        0x8
 .rodata        0x9d0386ec        0x8 build/default/production/_ext/1808430591/tasks.o

.text._on_reset
                0x9d0386f4        0x8
 .text._on_reset
                0x9d0386f4        0x8 d:/program files (x86)/microchip/xc32/v2.30/bin/bin/../../lib/gcc/pic32mx/4.8.3/../../../../pic32mx/lib/fpu64\libpic32.a(default-on-reset.o)
                0x9d0386f4                _on_reset

.text._on_bootstrap
                0x9d0386fc        0x8
 .text._on_bootstrap
                0x9d0386fc        0x8 d:/program files (x86)/microchip/xc32/v2.30/bin/bin/../../lib/gcc/pic32mx/4.8.3/../../../../pic32mx/lib/fpu64\libpic32.a(default-on-bootstrap.o)
                0x9d0386fc                _on_bootstrap

.rodata         0x9d038708        0x8
 .rodata        0x9d038708        0x8 d:/program files (x86)/microchip/xc32/v2.30/bin/bin/../../lib/gcc/pic32mx/4.8.3/../../../../pic32mx/lib/fpu64\libmfd.a(s_frexp.o)

.rodata         0x9d038704        0x4
 .rodata        0x9d038704        0x4 build/default/production/_ext/126554269/tcpip_announce.o

.rodata         0x9d038710        0x4
 .rodata        0x9d038710        0x4 build/default/production/_ext/417601773/port.o
                0x9d038710                xISRStackTop
